
motor_switch_classes.elf:     file format elf32-avr

Sections:
Idx Name          Size      VMA       LMA       File off  Algn
  0 .data         00000000  00800200  00800200  000006fc  2**0
                  CONTENTS, ALLOC, LOAD, DATA
  1 .text         00000688  00000000  00000000  00000074  2**1
                  CONTENTS, ALLOC, LOAD, READONLY, CODE
  2 .bss          0000004b  00800200  00800200  000006fc  2**0
                  ALLOC
  3 .comment      00000030  00000000  00000000  000006fc  2**0
                  CONTENTS, READONLY
  4 .note.gnu.avr.deviceinfo 0000003c  00000000  00000000  0000072c  2**2
                  CONTENTS, READONLY
  5 .debug_aranges 00000038  00000000  00000000  00000768  2**0
                  CONTENTS, READONLY, DEBUGGING
  6 .debug_info   00001bee  00000000  00000000  000007a0  2**0
                  CONTENTS, READONLY, DEBUGGING
  7 .debug_abbrev 00000d57  00000000  00000000  0000238e  2**0
                  CONTENTS, READONLY, DEBUGGING
  8 .debug_line   000006aa  00000000  00000000  000030e5  2**0
                  CONTENTS, READONLY, DEBUGGING
  9 .debug_frame  0000007c  00000000  00000000  00003790  2**2
                  CONTENTS, READONLY, DEBUGGING
 10 .debug_str    00000b49  00000000  00000000  0000380c  2**0
                  CONTENTS, READONLY, DEBUGGING
 11 .debug_loc    0000045f  00000000  00000000  00004355  2**0
                  CONTENTS, READONLY, DEBUGGING
 12 .debug_ranges 00000040  00000000  00000000  000047b4  2**0
                  CONTENTS, READONLY, DEBUGGING

Disassembly of section .text:

00000000 <__vectors>:
   0:	0c 94 73 00 	jmp	0xe6	; 0xe6 <__ctors_end>
   4:	0c 94 90 00 	jmp	0x120	; 0x120 <__bad_interrupt>
   8:	0c 94 90 00 	jmp	0x120	; 0x120 <__bad_interrupt>
   c:	0c 94 90 00 	jmp	0x120	; 0x120 <__bad_interrupt>
  10:	0c 94 90 00 	jmp	0x120	; 0x120 <__bad_interrupt>
  14:	0c 94 90 00 	jmp	0x120	; 0x120 <__bad_interrupt>
  18:	0c 94 90 00 	jmp	0x120	; 0x120 <__bad_interrupt>
  1c:	0c 94 90 00 	jmp	0x120	; 0x120 <__bad_interrupt>
  20:	0c 94 90 00 	jmp	0x120	; 0x120 <__bad_interrupt>
  24:	0c 94 90 00 	jmp	0x120	; 0x120 <__bad_interrupt>
  28:	0c 94 90 00 	jmp	0x120	; 0x120 <__bad_interrupt>
  2c:	0c 94 90 00 	jmp	0x120	; 0x120 <__bad_interrupt>
  30:	0c 94 90 00 	jmp	0x120	; 0x120 <__bad_interrupt>
  34:	0c 94 90 00 	jmp	0x120	; 0x120 <__bad_interrupt>
  38:	0c 94 90 00 	jmp	0x120	; 0x120 <__bad_interrupt>
  3c:	0c 94 90 00 	jmp	0x120	; 0x120 <__bad_interrupt>
  40:	0c 94 90 00 	jmp	0x120	; 0x120 <__bad_interrupt>
  44:	0c 94 90 00 	jmp	0x120	; 0x120 <__bad_interrupt>
  48:	0c 94 90 00 	jmp	0x120	; 0x120 <__bad_interrupt>
  4c:	0c 94 90 00 	jmp	0x120	; 0x120 <__bad_interrupt>
  50:	0c 94 90 00 	jmp	0x120	; 0x120 <__bad_interrupt>
  54:	0c 94 90 00 	jmp	0x120	; 0x120 <__bad_interrupt>
  58:	0c 94 90 00 	jmp	0x120	; 0x120 <__bad_interrupt>
  5c:	0c 94 90 00 	jmp	0x120	; 0x120 <__bad_interrupt>
  60:	0c 94 90 00 	jmp	0x120	; 0x120 <__bad_interrupt>
  64:	0c 94 90 00 	jmp	0x120	; 0x120 <__bad_interrupt>
  68:	0c 94 90 00 	jmp	0x120	; 0x120 <__bad_interrupt>
  6c:	0c 94 90 00 	jmp	0x120	; 0x120 <__bad_interrupt>
  70:	0c 94 90 00 	jmp	0x120	; 0x120 <__bad_interrupt>
  74:	0c 94 90 00 	jmp	0x120	; 0x120 <__bad_interrupt>
  78:	0c 94 90 00 	jmp	0x120	; 0x120 <__bad_interrupt>
  7c:	0c 94 90 00 	jmp	0x120	; 0x120 <__bad_interrupt>
  80:	0c 94 90 00 	jmp	0x120	; 0x120 <__bad_interrupt>
  84:	0c 94 90 00 	jmp	0x120	; 0x120 <__bad_interrupt>
  88:	0c 94 90 00 	jmp	0x120	; 0x120 <__bad_interrupt>
  8c:	0c 94 90 00 	jmp	0x120	; 0x120 <__bad_interrupt>
  90:	0c 94 90 00 	jmp	0x120	; 0x120 <__bad_interrupt>
  94:	0c 94 90 00 	jmp	0x120	; 0x120 <__bad_interrupt>
  98:	0c 94 90 00 	jmp	0x120	; 0x120 <__bad_interrupt>
  9c:	0c 94 90 00 	jmp	0x120	; 0x120 <__bad_interrupt>
  a0:	0c 94 90 00 	jmp	0x120	; 0x120 <__bad_interrupt>
  a4:	0c 94 90 00 	jmp	0x120	; 0x120 <__bad_interrupt>
  a8:	0c 94 1b 01 	jmp	0x236	; 0x236 <__vector_42>
  ac:	0c 94 90 00 	jmp	0x120	; 0x120 <__bad_interrupt>
  b0:	0c 94 90 00 	jmp	0x120	; 0x120 <__bad_interrupt>
  b4:	0c 94 90 00 	jmp	0x120	; 0x120 <__bad_interrupt>
  b8:	0c 94 90 00 	jmp	0x120	; 0x120 <__bad_interrupt>
  bc:	0c 94 90 00 	jmp	0x120	; 0x120 <__bad_interrupt>
  c0:	0c 94 90 00 	jmp	0x120	; 0x120 <__bad_interrupt>
  c4:	0c 94 90 00 	jmp	0x120	; 0x120 <__bad_interrupt>
  c8:	0c 94 90 00 	jmp	0x120	; 0x120 <__bad_interrupt>
  cc:	0c 94 90 00 	jmp	0x120	; 0x120 <__bad_interrupt>
  d0:	0c 94 90 00 	jmp	0x120	; 0x120 <__bad_interrupt>
  d4:	0c 94 90 00 	jmp	0x120	; 0x120 <__bad_interrupt>
  d8:	0c 94 90 00 	jmp	0x120	; 0x120 <__bad_interrupt>
  dc:	0c 94 90 00 	jmp	0x120	; 0x120 <__bad_interrupt>
  e0:	0c 94 90 00 	jmp	0x120	; 0x120 <__bad_interrupt>

000000e4 <__ctors_start>:
  e4:	35 03       	mulsu	r19, r21

000000e6 <__ctors_end>:
  e6:	11 24       	eor	r1, r1
  e8:	1f be       	out	0x3f, r1	; 63
  ea:	cf ef       	ldi	r28, 0xFF	; 255
  ec:	d1 e2       	ldi	r29, 0x21	; 33
  ee:	de bf       	out	0x3e, r29	; 62
  f0:	cd bf       	out	0x3d, r28	; 61

000000f2 <__do_clear_bss>:
  f2:	22 e0       	ldi	r18, 0x02	; 2
  f4:	a0 e0       	ldi	r26, 0x00	; 0
  f6:	b2 e0       	ldi	r27, 0x02	; 2
  f8:	01 c0       	rjmp	.+2      	; 0xfc <.do_clear_bss_start>

000000fa <.do_clear_bss_loop>:
  fa:	1d 92       	st	X+, r1

000000fc <.do_clear_bss_start>:
  fc:	ab 34       	cpi	r26, 0x4B	; 75
  fe:	b2 07       	cpc	r27, r18
 100:	e1 f7       	brne	.-8      	; 0xfa <.do_clear_bss_loop>

00000102 <__do_global_ctors>:
 102:	10 e0       	ldi	r17, 0x00	; 0
 104:	c3 e7       	ldi	r28, 0x73	; 115
 106:	d0 e0       	ldi	r29, 0x00	; 0
 108:	04 c0       	rjmp	.+8      	; 0x112 <__do_global_ctors+0x10>
 10a:	21 97       	sbiw	r28, 0x01	; 1
 10c:	fe 01       	movw	r30, r28
 10e:	0e 94 3c 03 	call	0x678	; 0x678 <__tablejump2__>
 112:	c2 37       	cpi	r28, 0x72	; 114
 114:	d1 07       	cpc	r29, r17
 116:	c9 f7       	brne	.-14     	; 0x10a <__do_global_ctors+0x8>
 118:	0e 94 42 01 	call	0x284	; 0x284 <main>
 11c:	0c 94 42 03 	jmp	0x684	; 0x684 <_exit>

00000120 <__bad_interrupt>:
 120:	0c 94 00 00 	jmp	0	; 0x0 <__vectors>

00000124 <_Z41__static_initialization_and_destruction_0ii>:
				m1.stop();
			}
		}
	}
	return 0;
 124:	01 97       	sbiw	r24, 0x01	; 1
 126:	09 f0       	breq	.+2      	; 0x12a <_Z41__static_initialization_and_destruction_0ii+0x6>
 128:	85 c0       	rjmp	.+266    	; 0x234 <_Z41__static_initialization_and_destruction_0ii+0x110>
 12a:	6f 3f       	cpi	r22, 0xFF	; 255
 12c:	7f 4f       	sbci	r23, 0xFF	; 255
 12e:	09 f0       	breq	.+2      	; 0x132 <_Z41__static_initialization_and_destruction_0ii+0xe>
 130:	81 c0       	rjmp	.+258    	; 0x234 <_Z41__static_initialization_and_destruction_0ii+0x110>
	private:
	volatile uint32_t system_millis;
	
	public:
	Timer() {
		system_millis = 0;
 132:	10 92 47 02 	sts	0x0247, r1	; 0x800247 <systemTimer>
 136:	10 92 48 02 	sts	0x0248, r1	; 0x800248 <systemTimer+0x1>
 13a:	10 92 49 02 	sts	0x0249, r1	; 0x800249 <systemTimer+0x2>
 13e:	10 92 4a 02 	sts	0x024A, r1	; 0x80024a <systemTimer+0x3>
	bool lastState;
	bool stableState;
	bool flagPressed;
	
	public:
	SwitchUser(volatile uint8_t* pinR, volatile uint8_t* portR, volatile uint8_t* ddrR, uint8_t m) {
 142:	e3 e3       	ldi	r30, 0x33	; 51
 144:	f2 e0       	ldi	r31, 0x02	; 2
 146:	82 e3       	ldi	r24, 0x32	; 50
 148:	90 e0       	ldi	r25, 0x00	; 0
 14a:	a0 e0       	ldi	r26, 0x00	; 0
 14c:	b0 e0       	ldi	r27, 0x00	; 0
 14e:	83 87       	std	Z+11, r24	; 0x0b
 150:	94 87       	std	Z+12, r25	; 0x0c
 152:	a5 87       	std	Z+13, r26	; 0x0d
 154:	b6 87       	std	Z+14, r27	; 0x0e
		pinReg = pinR;
 156:	89 e2       	ldi	r24, 0x29	; 41
 158:	90 e0       	ldi	r25, 0x00	; 0
 15a:	91 83       	std	Z+1, r25	; 0x01
 15c:	80 83       	st	Z, r24
		portReg = portR;
 15e:	8b e2       	ldi	r24, 0x2B	; 43
 160:	90 e0       	ldi	r25, 0x00	; 0
 162:	93 83       	std	Z+3, r25	; 0x03
 164:	82 83       	std	Z+2, r24	; 0x02
		ddrReg = ddrR;
 166:	8a e2       	ldi	r24, 0x2A	; 42
 168:	90 e0       	ldi	r25, 0x00	; 0
 16a:	95 83       	std	Z+5, r25	; 0x05
 16c:	84 83       	std	Z+4, r24	; 0x04
		mask = m;
 16e:	88 e0       	ldi	r24, 0x08	; 8
 170:	86 83       	std	Z+6, r24	; 0x06
		
		lastChangeTimestamp = 0;
 172:	17 82       	std	Z+7, r1	; 0x07
 174:	10 86       	std	Z+8, r1	; 0x08
 176:	11 86       	std	Z+9, r1	; 0x09
 178:	12 86       	std	Z+10, r1	; 0x0a
		lastState = false;
 17a:	17 86       	std	Z+15, r1	; 0x0f
		stableState = false;
 17c:	10 8a       	std	Z+16, r1	; 0x10
		flagPressed = false;
 17e:	11 8a       	std	Z+17, r1	; 0x11
	bool lastReading;
	bool stableState;
	const uint32_t debounceDelay = 20;
	
	public:
	SwitchMotor(volatile uint8_t* pinR, volatile uint8_t* portR, volatile uint8_t* ddrR, uint8_t m) {
 180:	af e1       	ldi	r26, 0x1F	; 31
 182:	b2 e0       	ldi	r27, 0x02	; 2
 184:	44 e1       	ldi	r20, 0x14	; 20
 186:	50 e0       	ldi	r21, 0x00	; 0
 188:	60 e0       	ldi	r22, 0x00	; 0
 18a:	70 e0       	ldi	r23, 0x00	; 0
 18c:	50 96       	adiw	r26, 0x10	; 16
 18e:	4d 93       	st	X+, r20
 190:	5d 93       	st	X+, r21
 192:	6d 93       	st	X+, r22
 194:	7c 93       	st	X, r23
 196:	53 97       	sbiw	r26, 0x13	; 19
		pinReg  = pinR;
 198:	86 e0       	ldi	r24, 0x06	; 6
 19a:	91 e0       	ldi	r25, 0x01	; 1
 19c:	11 96       	adiw	r26, 0x01	; 1
 19e:	9c 93       	st	X, r25
 1a0:	8e 93       	st	-X, r24
		portReg = portR;
 1a2:	88 e0       	ldi	r24, 0x08	; 8
 1a4:	91 e0       	ldi	r25, 0x01	; 1
 1a6:	13 96       	adiw	r26, 0x03	; 3
 1a8:	9c 93       	st	X, r25
 1aa:	8e 93       	st	-X, r24
 1ac:	12 97       	sbiw	r26, 0x02	; 2
		ddrReg  = ddrR;
 1ae:	87 e0       	ldi	r24, 0x07	; 7
 1b0:	91 e0       	ldi	r25, 0x01	; 1
 1b2:	15 96       	adiw	r26, 0x05	; 5
 1b4:	9c 93       	st	X, r25
 1b6:	8e 93       	st	-X, r24
 1b8:	14 97       	sbiw	r26, 0x04	; 4
		mask    = m;
 1ba:	80 e4       	ldi	r24, 0x40	; 64
 1bc:	16 96       	adiw	r26, 0x06	; 6
 1be:	8c 93       	st	X, r24
 1c0:	16 97       	sbiw	r26, 0x06	; 6
		currentState = MOVING;
 1c2:	17 96       	adiw	r26, 0x07	; 7
 1c4:	1c 92       	st	X, r1
 1c6:	17 97       	sbiw	r26, 0x07	; 7
		flagPressed = false;
 1c8:	18 96       	adiw	r26, 0x08	; 8
 1ca:	1c 92       	st	X, r1
 1cc:	18 97       	sbiw	r26, 0x08	; 8
		expectedDirection = false;
 1ce:	19 96       	adiw	r26, 0x09	; 9
 1d0:	1c 92       	st	X, r1
 1d2:	19 97       	sbiw	r26, 0x09	; 9
		
		lastDebounceTimestamp = 0;
 1d4:	1a 96       	adiw	r26, 0x0a	; 10
 1d6:	1d 92       	st	X+, r1
 1d8:	1d 92       	st	X+, r1
 1da:	1d 92       	st	X+, r1
 1dc:	1c 92       	st	X, r1
 1de:	1d 97       	sbiw	r26, 0x0d	; 13
		lastReading = false;
 1e0:	1e 96       	adiw	r26, 0x0e	; 14
 1e2:	1c 92       	st	X, r1
 1e4:	1e 97       	sbiw	r26, 0x0e	; 14
		stableState = false;
 1e6:	1f 96       	adiw	r26, 0x0f	; 15
 1e8:	1c 92       	st	X, r1
 1ea:	1f 97       	sbiw	r26, 0x0f	; 15
	Motor(
		volatile uint8_t* pDIR, volatile uint8_t* dDIR, uint8_t mDIR,
		volatile uint8_t* pEN,  volatile uint8_t* dEN,  uint8_t mEN,
		volatile uint8_t* rPWM,
		SwitchMotor* sw = 0
	) {
 1ec:	e0 e0       	ldi	r30, 0x00	; 0
 1ee:	f2 e0       	ldi	r31, 0x02	; 2
 1f0:	44 e6       	ldi	r20, 0x64	; 100
 1f2:	50 e0       	ldi	r21, 0x00	; 0
 1f4:	60 e0       	ldi	r22, 0x00	; 0
 1f6:	70 e0       	ldi	r23, 0x00	; 0
 1f8:	44 8b       	std	Z+20, r20	; 0x14
 1fa:	55 8b       	std	Z+21, r21	; 0x15
 1fc:	66 8b       	std	Z+22, r22	; 0x16
 1fe:	77 8b       	std	Z+23, r23	; 0x17
		portDIR = pDIR; ddrDIR = dDIR; maskDIR = mDIR;
 200:	25 e2       	ldi	r18, 0x25	; 37
 202:	30 e0       	ldi	r19, 0x00	; 0
 204:	31 83       	std	Z+1, r19	; 0x01
 206:	20 83       	st	Z, r18
 208:	84 e2       	ldi	r24, 0x24	; 36
 20a:	90 e0       	ldi	r25, 0x00	; 0
 20c:	93 83       	std	Z+3, r25	; 0x03
 20e:	82 83       	std	Z+2, r24	; 0x02
 210:	41 e0       	ldi	r20, 0x01	; 1
 212:	44 83       	std	Z+4, r20	; 0x04
		portEN  = pEN;  ddrEN  = dEN;  maskEN  = mEN;
 214:	36 83       	std	Z+6, r19	; 0x06
 216:	25 83       	std	Z+5, r18	; 0x05
 218:	90 87       	std	Z+8, r25	; 0x08
 21a:	87 83       	std	Z+7, r24	; 0x07
 21c:	80 e1       	ldi	r24, 0x10	; 16
 21e:	81 87       	std	Z+9, r24	; 0x09
		ocrPWM  = rPWM;
 220:	83 eb       	ldi	r24, 0xB3	; 179
 222:	90 e0       	ldi	r25, 0x00	; 0
 224:	93 87       	std	Z+11, r25	; 0x0b
 226:	82 87       	std	Z+10, r24	; 0x0a
		eorSwitch = sw;
 228:	b5 87       	std	Z+13, r27	; 0x0d
 22a:	a4 87       	std	Z+12, r26	; 0x0c
		
		isMoving = false;
 22c:	16 86       	std	Z+14, r1	; 0x0e
		isEscaping = false;
 22e:	17 86       	std	Z+15, r1	; 0x0f
		isCalibrating = false;
 230:	10 8e       	std	Z+24, r1	; 0x18
		isWaitingAfterCalib = false;
 232:	11 8e       	std	Z+25, r1	; 0x19
 234:	08 95       	ret

00000236 <__vector_42>:
#include "Motor.h"

Timer systemTimer;
Timer* timerPtr = 0;

ISR(TIMER4_COMPA_vect) {
 236:	1f 92       	push	r1
 238:	0f 92       	push	r0
 23a:	0f b6       	in	r0, 0x3f	; 63
 23c:	0f 92       	push	r0
 23e:	11 24       	eor	r1, r1
 240:	8f 93       	push	r24
 242:	9f 93       	push	r25
 244:	af 93       	push	r26
 246:	bf 93       	push	r27
 248:	ef 93       	push	r30
 24a:	ff 93       	push	r31
	if (timerPtr) timerPtr->addTick();
 24c:	e0 91 45 02 	lds	r30, 0x0245	; 0x800245 <timerPtr>
 250:	f0 91 46 02 	lds	r31, 0x0246	; 0x800246 <timerPtr+0x1>
 254:	30 97       	sbiw	r30, 0x00	; 0
 256:	59 f0       	breq	.+22     	; 0x26e <__vector_42+0x38>
		OCR4A = 124;
		TIMSK4 |= (1 << OCIE4A);
	}
	
	void addTick() {
		system_millis++;
 258:	80 81       	ld	r24, Z
 25a:	91 81       	ldd	r25, Z+1	; 0x01
 25c:	a2 81       	ldd	r26, Z+2	; 0x02
 25e:	b3 81       	ldd	r27, Z+3	; 0x03
 260:	01 96       	adiw	r24, 0x01	; 1
 262:	a1 1d       	adc	r26, r1
 264:	b1 1d       	adc	r27, r1
 266:	80 83       	st	Z, r24
 268:	91 83       	std	Z+1, r25	; 0x01
 26a:	a2 83       	std	Z+2, r26	; 0x02
 26c:	b3 83       	std	Z+3, r27	; 0x03
}
 26e:	ff 91       	pop	r31
 270:	ef 91       	pop	r30
 272:	bf 91       	pop	r27
 274:	af 91       	pop	r26
 276:	9f 91       	pop	r25
 278:	8f 91       	pop	r24
 27a:	0f 90       	pop	r0
 27c:	0f be       	out	0x3f, r0	; 63
 27e:	0f 90       	pop	r0
 280:	1f 90       	pop	r1
 282:	18 95       	reti

00000284 <main>:
Motor m1(&PORTB, &DDRB, (1<<PB0),
&PORTB, &DDRB, (1<<PB4),
&OCR2A, &sw1);

int main(void) {
	timerPtr = &systemTimer;
 284:	87 e4       	ldi	r24, 0x47	; 71
 286:	92 e0       	ldi	r25, 0x02	; 2
 288:	90 93 46 02 	sts	0x0246, r25	; 0x800246 <timerPtr+0x1>
 28c:	80 93 45 02 	sts	0x0245, r24	; 0x800245 <timerPtr>
	
	cli();
 290:	f8 94       	cli
		system_millis = 0;
	}
	
	void init() {
		// CTC
		TCCR4B &= ~((1 << WGM43) | (1 << WGM41) | (1 << WGM40));
 292:	e1 ea       	ldi	r30, 0xA1	; 161
 294:	f0 e0       	ldi	r31, 0x00	; 0
 296:	80 81       	ld	r24, Z
 298:	8c 7e       	andi	r24, 0xEC	; 236
 29a:	80 83       	st	Z, r24
		TCCR4B |= (1 << WGM42);
 29c:	80 81       	ld	r24, Z
 29e:	88 60       	ori	r24, 0x08	; 8
 2a0:	80 83       	st	Z, r24

		// 64 prescaler
		TCCR4B |= (1 << CS41) | (1 << CS40);
 2a2:	80 81       	ld	r24, Z
 2a4:	83 60       	ori	r24, 0x03	; 3
 2a6:	80 83       	st	Z, r24
		TCCR4B &= ~(1 << CS42);
 2a8:	80 81       	ld	r24, Z
 2aa:	8b 7f       	andi	r24, 0xFB	; 251
 2ac:	80 83       	st	Z, r24

		// 1ms interrupt
		OCR4A = 124;
 2ae:	8c e7       	ldi	r24, 0x7C	; 124
 2b0:	90 e0       	ldi	r25, 0x00	; 0
 2b2:	90 93 a9 00 	sts	0x00A9, r25	; 0x8000a9 <__TEXT_REGION_LENGTH__+0x7f00a9>
 2b6:	80 93 a8 00 	sts	0x00A8, r24	; 0x8000a8 <__TEXT_REGION_LENGTH__+0x7f00a8>
		TIMSK4 |= (1 << OCIE4A);
 2ba:	e2 e7       	ldi	r30, 0x72	; 114
 2bc:	f0 e0       	ldi	r31, 0x00	; 0
 2be:	80 81       	ld	r24, Z
 2c0:	82 60       	ori	r24, 0x02	; 2
 2c2:	80 83       	st	Z, r24
	}
	
	void init() {
		*ddrReg &= ~mask;	// Input
 2c4:	e3 e3       	ldi	r30, 0x33	; 51
 2c6:	f2 e0       	ldi	r31, 0x02	; 2
 2c8:	a4 81       	ldd	r26, Z+4	; 0x04
 2ca:	b5 81       	ldd	r27, Z+5	; 0x05
 2cc:	8c 91       	ld	r24, X
 2ce:	96 81       	ldd	r25, Z+6	; 0x06
 2d0:	90 95       	com	r25
 2d2:	89 23       	and	r24, r25
 2d4:	8c 93       	st	X, r24
		*portReg |= mask;	// Pull-up
 2d6:	a2 81       	ldd	r26, Z+2	; 0x02
 2d8:	b3 81       	ldd	r27, Z+3	; 0x03
 2da:	9c 91       	ld	r25, X
 2dc:	86 81       	ldd	r24, Z+6	; 0x06
 2de:	89 2b       	or	r24, r25
 2e0:	8c 93       	st	X, r24
	}
	
	void init() {
		*ddrReg &= ~mask;	// Input
 2e2:	ef e1       	ldi	r30, 0x1F	; 31
 2e4:	f2 e0       	ldi	r31, 0x02	; 2
 2e6:	a4 81       	ldd	r26, Z+4	; 0x04
 2e8:	b5 81       	ldd	r27, Z+5	; 0x05
 2ea:	8c 91       	ld	r24, X
 2ec:	96 81       	ldd	r25, Z+6	; 0x06
 2ee:	90 95       	com	r25
 2f0:	89 23       	and	r24, r25
 2f2:	8c 93       	st	X, r24
		*portReg |= mask;	// Pull-up
 2f4:	a2 81       	ldd	r26, Z+2	; 0x02
 2f6:	b3 81       	ldd	r27, Z+3	; 0x03
 2f8:	9c 91       	ld	r25, X
 2fa:	86 81       	ldd	r24, Z+6	; 0x06
 2fc:	89 2b       	or	r24, r25
 2fe:	8c 93       	st	X, r24
	}
	
	void init() {
		*ddrDIR |= maskDIR;	// Output
 300:	e0 e0       	ldi	r30, 0x00	; 0
 302:	f2 e0       	ldi	r31, 0x02	; 2
 304:	a2 81       	ldd	r26, Z+2	; 0x02
 306:	b3 81       	ldd	r27, Z+3	; 0x03
 308:	9c 91       	ld	r25, X
 30a:	84 81       	ldd	r24, Z+4	; 0x04
 30c:	89 2b       	or	r24, r25
 30e:	8c 93       	st	X, r24
		*ddrEN |= maskEN;	// Output
 310:	a7 81       	ldd	r26, Z+7	; 0x07
 312:	b0 85       	ldd	r27, Z+8	; 0x08
 314:	9c 91       	ld	r25, X
 316:	81 85       	ldd	r24, Z+9	; 0x09
 318:	89 2b       	or	r24, r25
 31a:	8c 93       	st	X, r24
		*portDIR &= ~maskDIR;
 31c:	a0 81       	ld	r26, Z
 31e:	b1 81       	ldd	r27, Z+1	; 0x01
 320:	8c 91       	ld	r24, X
 322:	94 81       	ldd	r25, Z+4	; 0x04
 324:	90 95       	com	r25
 326:	89 23       	and	r24, r25
 328:	8c 93       	st	X, r24
		*portEN &= ~maskEN;
 32a:	a5 81       	ldd	r26, Z+5	; 0x05
 32c:	b6 81       	ldd	r27, Z+6	; 0x06
 32e:	8c 91       	ld	r24, X
 330:	91 85       	ldd	r25, Z+9	; 0x09
 332:	90 95       	com	r25
 334:	89 23       	and	r24, r25
 336:	8c 93       	st	X, r24
		
		*ocrPWM = 0;
 338:	02 84       	ldd	r0, Z+10	; 0x0a
 33a:	f3 85       	ldd	r31, Z+11	; 0x0b
 33c:	e0 2d       	mov	r30, r0
 33e:	10 82       	st	Z, r1
	systemTimer.init();
	sw6.init();
	sw1.init();
	m1.init();
	sei();
 340:	78 94       	sei
		system_millis++;
	}
	
	uint32_t millis() {
		uint32_t time;
		uint8_t oldSREG = SREG;
 342:	2f b7       	in	r18, 0x3f	; 63
		cli();
 344:	f8 94       	cli
		time = system_millis;
 346:	80 91 47 02 	lds	r24, 0x0247	; 0x800247 <systemTimer>
 34a:	90 91 48 02 	lds	r25, 0x0248	; 0x800248 <systemTimer+0x1>
 34e:	a0 91 49 02 	lds	r26, 0x0249	; 0x800249 <systemTimer+0x2>
 352:	b0 91 4a 02 	lds	r27, 0x024A	; 0x80024a <systemTimer+0x3>
		SREG = oldSREG;
 356:	2f bf       	out	0x3f, r18	; 63
		sei();
 358:	78 94       	sei
	}
	
	void update(uint32_t currentTime) {
		bool reading = !(*pinReg & mask);
 35a:	e3 e3       	ldi	r30, 0x33	; 51
 35c:	f2 e0       	ldi	r31, 0x02	; 2
 35e:	c0 81       	ld	r28, Z
 360:	d1 81       	ldd	r29, Z+1	; 0x01
 362:	38 81       	ld	r19, Y
 364:	26 81       	ldd	r18, Z+6	; 0x06
 366:	32 23       	and	r19, r18
 368:	21 e0       	ldi	r18, 0x01	; 1
 36a:	09 f0       	breq	.+2      	; 0x36e <main+0xea>
 36c:	20 e0       	ldi	r18, 0x00	; 0
		
		if (reading != lastState) {
 36e:	30 91 42 02 	lds	r19, 0x0242	; 0x800242 <sw6+0xf>
 372:	23 17       	cp	r18, r19
 374:	41 f0       	breq	.+16     	; 0x386 <main+0x102>
			lastChangeTimestamp = currentTime;
 376:	80 93 3a 02 	sts	0x023A, r24	; 0x80023a <sw6+0x7>
 37a:	90 93 3b 02 	sts	0x023B, r25	; 0x80023b <sw6+0x8>
 37e:	a0 93 3c 02 	sts	0x023C, r26	; 0x80023c <sw6+0x9>
 382:	b0 93 3d 02 	sts	0x023D, r27	; 0x80023d <sw6+0xa>
		}
		
		if ((currentTime - lastChangeTimestamp) > debounceDelay) {
 386:	e3 e3       	ldi	r30, 0x33	; 51
 388:	f2 e0       	ldi	r31, 0x02	; 2
 38a:	47 81       	ldd	r20, Z+7	; 0x07
 38c:	50 85       	ldd	r21, Z+8	; 0x08
 38e:	61 85       	ldd	r22, Z+9	; 0x09
 390:	72 85       	ldd	r23, Z+10	; 0x0a
 392:	6c 01       	movw	r12, r24
 394:	7d 01       	movw	r14, r26
 396:	c4 1a       	sub	r12, r20
 398:	d5 0a       	sbc	r13, r21
 39a:	e6 0a       	sbc	r14, r22
 39c:	f7 0a       	sbc	r15, r23
 39e:	43 85       	ldd	r20, Z+11	; 0x0b
 3a0:	54 85       	ldd	r21, Z+12	; 0x0c
 3a2:	65 85       	ldd	r22, Z+13	; 0x0d
 3a4:	76 85       	ldd	r23, Z+14	; 0x0e
 3a6:	4c 15       	cp	r20, r12
 3a8:	5d 05       	cpc	r21, r13
 3aa:	6e 05       	cpc	r22, r14
 3ac:	7f 05       	cpc	r23, r15
 3ae:	58 f4       	brcc	.+22     	; 0x3c6 <main+0x142>
			if (reading != stableState) {
 3b0:	30 91 43 02 	lds	r19, 0x0243	; 0x800243 <sw6+0x10>
 3b4:	23 17       	cp	r18, r19
 3b6:	39 f0       	breq	.+14     	; 0x3c6 <main+0x142>
				stableState = reading;
 3b8:	20 93 43 02 	sts	0x0243, r18	; 0x800243 <sw6+0x10>
				if (stableState) {
 3bc:	22 23       	and	r18, r18
 3be:	19 f0       	breq	.+6      	; 0x3c6 <main+0x142>
					flagPressed = true;
 3c0:	31 e0       	ldi	r19, 0x01	; 1
 3c2:	30 93 44 02 	sts	0x0244, r19	; 0x800244 <sw6+0x11>
				}
			}
		}
		lastState = reading;
 3c6:	20 93 42 02 	sts	0x0242, r18	; 0x800242 <sw6+0xf>
	}
	
	bool isPressed() {
		return !(*pinReg & mask);	// Pressed is 0
 3ca:	ef e1       	ldi	r30, 0x1F	; 31
 3cc:	f2 e0       	ldi	r31, 0x02	; 2
 3ce:	c0 81       	ld	r28, Z
 3d0:	d1 81       	ldd	r29, Z+1	; 0x01
 3d2:	38 81       	ld	r19, Y
 3d4:	26 81       	ldd	r18, Z+6	; 0x06
 3d6:	32 23       	and	r19, r18
 3d8:	21 e0       	ldi	r18, 0x01	; 1
 3da:	09 f0       	breq	.+2      	; 0x3de <main+0x15a>
 3dc:	20 e0       	ldi	r18, 0x00	; 0
	}
	
	void update(uint32_t currentTime) {
		bool reading = isPressed();
		
        if (reading != lastReading) {
 3de:	30 91 2d 02 	lds	r19, 0x022D	; 0x80022d <sw1+0xe>
 3e2:	23 17       	cp	r18, r19
 3e4:	41 f0       	breq	.+16     	; 0x3f6 <main+0x172>
			lastDebounceTimestamp = currentTime;
 3e6:	80 93 29 02 	sts	0x0229, r24	; 0x800229 <sw1+0xa>
 3ea:	90 93 2a 02 	sts	0x022A, r25	; 0x80022a <sw1+0xb>
 3ee:	a0 93 2b 02 	sts	0x022B, r26	; 0x80022b <sw1+0xc>
 3f2:	b0 93 2c 02 	sts	0x022C, r27	; 0x80022c <sw1+0xd>
		}
		
		if ((currentTime - lastDebounceTimestamp) > debounceDelay) {
 3f6:	ef e1       	ldi	r30, 0x1F	; 31
 3f8:	f2 e0       	ldi	r31, 0x02	; 2
 3fa:	42 85       	ldd	r20, Z+10	; 0x0a
 3fc:	53 85       	ldd	r21, Z+11	; 0x0b
 3fe:	64 85       	ldd	r22, Z+12	; 0x0c
 400:	75 85       	ldd	r23, Z+13	; 0x0d
 402:	6c 01       	movw	r12, r24
 404:	7d 01       	movw	r14, r26
 406:	c4 1a       	sub	r12, r20
 408:	d5 0a       	sbc	r13, r21
 40a:	e6 0a       	sbc	r14, r22
 40c:	f7 0a       	sbc	r15, r23
 40e:	40 89       	ldd	r20, Z+16	; 0x10
 410:	51 89       	ldd	r21, Z+17	; 0x11
 412:	62 89       	ldd	r22, Z+18	; 0x12
 414:	73 89       	ldd	r23, Z+19	; 0x13
 416:	4c 15       	cp	r20, r12
 418:	5d 05       	cpc	r21, r13
 41a:	6e 05       	cpc	r22, r14
 41c:	7f 05       	cpc	r23, r15
 41e:	a0 f4       	brcc	.+40     	; 0x448 <__LOCK_REGION_LENGTH__+0x48>
			if (reading != stableState) {
 420:	30 91 2e 02 	lds	r19, 0x022E	; 0x80022e <sw1+0xf>
 424:	23 17       	cp	r18, r19
 426:	81 f0       	breq	.+32     	; 0x448 <__LOCK_REGION_LENGTH__+0x48>
				stableState = reading;
 428:	20 93 2e 02 	sts	0x022E, r18	; 0x80022e <sw1+0xf>
				
				if (stableState) {
 42c:	22 23       	and	r18, r18
 42e:	61 f0       	breq	.+24     	; 0x448 <__LOCK_REGION_LENGTH__+0x48>
					flagPressed = true;
 430:	31 e0       	ldi	r19, 0x01	; 1
 432:	30 87       	std	Z+8, r19	; 0x08
					if (expectedDirection) {
 434:	31 85       	ldd	r19, Z+9	; 0x09
 436:	33 23       	and	r19, r19
 438:	21 f0       	breq	.+8      	; 0x442 <__LOCK_REGION_LENGTH__+0x42>
						currentState = SIDE_1;
 43a:	31 e0       	ldi	r19, 0x01	; 1
 43c:	30 93 26 02 	sts	0x0226, r19	; 0x800226 <sw1+0x7>
 440:	03 c0       	rjmp	.+6      	; 0x448 <__LOCK_REGION_LENGTH__+0x48>
					} else {
						currentState = SIDE_2;
 442:	32 e0       	ldi	r19, 0x02	; 2
 444:	30 93 26 02 	sts	0x0226, r19	; 0x800226 <sw1+0x7>
					}
				}
			}
		}
		lastReading = reading;
 448:	20 93 2d 02 	sts	0x022D, r18	; 0x80022d <sw1+0xe>
		}
	}
	
	void update(uint32_t currentTime) {
		// post Calibration pause (200ms)
		if (isWaitingAfterCalib) {
 44c:	20 91 19 02 	lds	r18, 0x0219	; 0x800219 <__DATA_REGION_ORIGIN__+0x19>
 450:	22 23       	and	r18, r18
 452:	49 f1       	breq	.+82     	; 0x4a6 <__LOCK_REGION_LENGTH__+0xa6>
			if ((currentTime - stateTimer) >= 200) {
 454:	40 91 1a 02 	lds	r20, 0x021A	; 0x80021a <__DATA_REGION_ORIGIN__+0x1a>
 458:	50 91 1b 02 	lds	r21, 0x021B	; 0x80021b <__DATA_REGION_ORIGIN__+0x1b>
 45c:	60 91 1c 02 	lds	r22, 0x021C	; 0x80021c <__DATA_REGION_ORIGIN__+0x1c>
 460:	70 91 1d 02 	lds	r23, 0x021D	; 0x80021d <__DATA_REGION_ORIGIN__+0x1d>
 464:	8c 01       	movw	r16, r24
 466:	9d 01       	movw	r18, r26
 468:	04 1b       	sub	r16, r20
 46a:	15 0b       	sbc	r17, r21
 46c:	26 0b       	sbc	r18, r22
 46e:	37 0b       	sbc	r19, r23
 470:	08 3c       	cpi	r16, 0xC8	; 200
 472:	11 05       	cpc	r17, r1
 474:	21 05       	cpc	r18, r1
 476:	31 05       	cpc	r19, r1
 478:	08 f4       	brcc	.+2      	; 0x47c <__LOCK_REGION_LENGTH__+0x7c>
 47a:	96 c0       	rjmp	.+300    	; 0x5a8 <__LOCK_REGION_LENGTH__+0x1a8>
				isWaitingAfterCalib = false;
 47c:	e0 e0       	ldi	r30, 0x00	; 0
 47e:	f2 e0       	ldi	r31, 0x02	; 2
 480:	11 8e       	std	Z+25, r1	; 0x19
				if (eorSwitch != 0) {
 482:	04 84       	ldd	r0, Z+12	; 0x0c
 484:	f5 85       	ldd	r31, Z+13	; 0x0d
 486:	e0 2d       	mov	r30, r0
 488:	30 97       	sbiw	r30, 0x00	; 0
 48a:	09 f4       	brne	.+2      	; 0x48e <__LOCK_REGION_LENGTH__+0x8e>
 48c:	8d c0       	rjmp	.+282    	; 0x5a8 <__LOCK_REGION_LENGTH__+0x1a8>
					if (calibDirection)	eorSwitch->forceState(SwitchMotor::SIDE_1);
 48e:	20 91 1e 02 	lds	r18, 0x021E	; 0x80021e <__DATA_REGION_ORIGIN__+0x1e>
 492:	22 23       	and	r18, r18
 494:	21 f0       	breq	.+8      	; 0x49e <__LOCK_REGION_LENGTH__+0x9e>
    }
	
	void forceState(SwState s) {
		currentState = s;
 496:	21 e0       	ldi	r18, 0x01	; 1
 498:	27 83       	std	Z+7, r18	; 0x07
		flagPressed = false;
 49a:	10 86       	std	Z+8, r1	; 0x08
 49c:	85 c0       	rjmp	.+266    	; 0x5a8 <__LOCK_REGION_LENGTH__+0x1a8>
		}
		lastReading = reading;
    }
	
	void forceState(SwState s) {
		currentState = s;
 49e:	22 e0       	ldi	r18, 0x02	; 2
 4a0:	27 83       	std	Z+7, r18	; 0x07
		flagPressed = false;
 4a2:	10 86       	std	Z+8, r1	; 0x08
 4a4:	81 c0       	rjmp	.+258    	; 0x5a8 <__LOCK_REGION_LENGTH__+0x1a8>
			}
			return;
		}
		
		// Normal control
		if (eorSwitch != 0 && isMoving) {
 4a6:	e0 91 0c 02 	lds	r30, 0x020C	; 0x80020c <__DATA_REGION_ORIGIN__+0xc>
 4aa:	f0 91 0d 02 	lds	r31, 0x020D	; 0x80020d <__DATA_REGION_ORIGIN__+0xd>
 4ae:	30 97       	sbiw	r30, 0x00	; 0
 4b0:	09 f4       	brne	.+2      	; 0x4b4 <__LOCK_REGION_LENGTH__+0xb4>
 4b2:	7a c0       	rjmp	.+244    	; 0x5a8 <__LOCK_REGION_LENGTH__+0x1a8>
 4b4:	20 91 0e 02 	lds	r18, 0x020E	; 0x80020e <__DATA_REGION_ORIGIN__+0xe>
 4b8:	22 23       	and	r18, r18
 4ba:	09 f4       	brne	.+2      	; 0x4be <__LOCK_REGION_LENGTH__+0xbe>
 4bc:	75 c0       	rjmp	.+234    	; 0x5a8 <__LOCK_REGION_LENGTH__+0x1a8>
			
			if (isEscaping) {
 4be:	20 91 0f 02 	lds	r18, 0x020F	; 0x80020f <__DATA_REGION_ORIGIN__+0xf>
 4c2:	22 23       	and	r18, r18
 4c4:	69 f1       	breq	.+90     	; 0x520 <__LOCK_REGION_LENGTH__+0x120>
		*ddrReg &= ~mask;	// Input
		*portReg |= mask;	// Pull-up
	}
	
	bool isPressed() {
		return !(*pinReg & mask);	// Pressed is 0
 4c6:	c0 81       	ld	r28, Z
 4c8:	d1 81       	ldd	r29, Z+1	; 0x01
 4ca:	38 81       	ld	r19, Y
 4cc:	26 81       	ldd	r18, Z+6	; 0x06
 4ce:	23 23       	and	r18, r19
				if (!eorSwitch->isPressed()) {
 4d0:	f1 f0       	breq	.+60     	; 0x50e <__LOCK_REGION_LENGTH__+0x10e>
					if((currentTime - escapeStartTimestamp) > escapeDelay) {
 4d2:	c0 e0       	ldi	r28, 0x00	; 0
 4d4:	d2 e0       	ldi	r29, 0x02	; 2
 4d6:	48 89       	ldd	r20, Y+16	; 0x10
 4d8:	59 89       	ldd	r21, Y+17	; 0x11
 4da:	6a 89       	ldd	r22, Y+18	; 0x12
 4dc:	7b 89       	ldd	r23, Y+19	; 0x13
 4de:	6c 01       	movw	r12, r24
 4e0:	7d 01       	movw	r14, r26
 4e2:	c4 1a       	sub	r12, r20
 4e4:	d5 0a       	sbc	r13, r21
 4e6:	e6 0a       	sbc	r14, r22
 4e8:	f7 0a       	sbc	r15, r23
 4ea:	4c 89       	ldd	r20, Y+20	; 0x14
 4ec:	5d 89       	ldd	r21, Y+21	; 0x15
 4ee:	6e 89       	ldd	r22, Y+22	; 0x16
 4f0:	7f 89       	ldd	r23, Y+23	; 0x17
 4f2:	4c 15       	cp	r20, r12
 4f4:	5d 05       	cpc	r21, r13
 4f6:	6e 05       	cpc	r22, r14
 4f8:	7f 05       	cpc	r23, r15
 4fa:	08 f0       	brcs	.+2      	; 0x4fe <__LOCK_REGION_LENGTH__+0xfe>
 4fc:	55 c0       	rjmp	.+170    	; 0x5a8 <__LOCK_REGION_LENGTH__+0x1a8>
						isEscaping = false;
 4fe:	10 92 0f 02 	sts	0x020F, r1	; 0x80020f <__DATA_REGION_ORIGIN__+0xf>
		expectedDirection = direction;
		flagPressed = false;
	}
	
	bool consumePressedFlag() {
		if (flagPressed) {
 502:	20 85       	ldd	r18, Z+8	; 0x08
 504:	22 23       	and	r18, r18
 506:	09 f4       	brne	.+2      	; 0x50a <__LOCK_REGION_LENGTH__+0x10a>
 508:	4f c0       	rjmp	.+158    	; 0x5a8 <__LOCK_REGION_LENGTH__+0x1a8>
			flagPressed = false;
 50a:	10 86       	std	Z+8, r1	; 0x08
 50c:	4d c0       	rjmp	.+154    	; 0x5a8 <__LOCK_REGION_LENGTH__+0x1a8>
						eorSwitch->consumePressedFlag();
					}
				} else {
					escapeStartTimestamp = currentTime;
 50e:	80 93 10 02 	sts	0x0210, r24	; 0x800210 <__DATA_REGION_ORIGIN__+0x10>
 512:	90 93 11 02 	sts	0x0211, r25	; 0x800211 <__DATA_REGION_ORIGIN__+0x11>
 516:	a0 93 12 02 	sts	0x0212, r26	; 0x800212 <__DATA_REGION_ORIGIN__+0x12>
 51a:	b0 93 13 02 	sts	0x0213, r27	; 0x800213 <__DATA_REGION_ORIGIN__+0x13>
 51e:	44 c0       	rjmp	.+136    	; 0x5a8 <__LOCK_REGION_LENGTH__+0x1a8>
		expectedDirection = direction;
		flagPressed = false;
	}
	
	bool consumePressedFlag() {
		if (flagPressed) {
 520:	20 85       	ldd	r18, Z+8	; 0x08
 522:	21 11       	cpse	r18, r1
			flagPressed = false;
 524:	10 86       	std	Z+8, r1	; 0x08
				}
			} else {
				if(eorSwitch->consumePressedFlag()) {
 526:	22 23       	and	r18, r18
 528:	c1 f0       	breq	.+48     	; 0x55a <__LOCK_REGION_LENGTH__+0x15a>
		if (forward)	*portDIR |= maskDIR;
		else			*portDIR &= ~maskDIR;
	}
	
	void setSpeed(uint8_t speed) {
		*ocrPWM = speed;
 52a:	e0 e0       	ldi	r30, 0x00	; 0
 52c:	f2 e0       	ldi	r31, 0x02	; 2
 52e:	c2 85       	ldd	r28, Z+10	; 0x0a
 530:	d3 85       	ldd	r29, Z+11	; 0x0b
 532:	18 82       	st	Y, r1
	}
	
	void stop() {
		setSpeed(0);
		*portEN &= ~maskEN;
 534:	c5 81       	ldd	r28, Z+5	; 0x05
 536:	d6 81       	ldd	r29, Z+6	; 0x06
 538:	38 81       	ld	r19, Y
 53a:	21 85       	ldd	r18, Z+9	; 0x09
 53c:	20 95       	com	r18
 53e:	23 23       	and	r18, r19
 540:	28 83       	st	Y, r18
		isMoving = false;
 542:	16 86       	std	Z+14, r1	; 0x0e
				}
			} else {
				if(eorSwitch->consumePressedFlag()) {
					stop();
				
					if (isCalibrating) {
 544:	20 8d       	ldd	r18, Z+24	; 0x18
 546:	22 23       	and	r18, r18
 548:	79 f1       	breq	.+94     	; 0x5a8 <__LOCK_REGION_LENGTH__+0x1a8>
						isCalibrating = false;
 54a:	10 8e       	std	Z+24, r1	; 0x18
						isWaitingAfterCalib = true;
 54c:	21 e0       	ldi	r18, 0x01	; 1
 54e:	21 8f       	std	Z+25, r18	; 0x19
						stateTimer = currentTime;
 550:	82 8f       	std	Z+26, r24	; 0x1a
 552:	93 8f       	std	Z+27, r25	; 0x1b
 554:	a4 8f       	std	Z+28, r26	; 0x1c
 556:	b5 8f       	std	Z+29, r27	; 0x1d
 558:	27 c0       	rjmp	.+78     	; 0x5a8 <__LOCK_REGION_LENGTH__+0x1a8>
					}
				}
				// Safety timeout (10s)
				else if (isCalibrating && (currentTime - stateTimer) > 10000) {
 55a:	20 91 18 02 	lds	r18, 0x0218	; 0x800218 <__DATA_REGION_ORIGIN__+0x18>
 55e:	22 23       	and	r18, r18
 560:	19 f1       	breq	.+70     	; 0x5a8 <__LOCK_REGION_LENGTH__+0x1a8>
 562:	40 91 1a 02 	lds	r20, 0x021A	; 0x80021a <__DATA_REGION_ORIGIN__+0x1a>
 566:	50 91 1b 02 	lds	r21, 0x021B	; 0x80021b <__DATA_REGION_ORIGIN__+0x1b>
 56a:	60 91 1c 02 	lds	r22, 0x021C	; 0x80021c <__DATA_REGION_ORIGIN__+0x1c>
 56e:	70 91 1d 02 	lds	r23, 0x021D	; 0x80021d <__DATA_REGION_ORIGIN__+0x1d>
 572:	8c 01       	movw	r16, r24
 574:	9d 01       	movw	r18, r26
 576:	04 1b       	sub	r16, r20
 578:	15 0b       	sbc	r17, r21
 57a:	26 0b       	sbc	r18, r22
 57c:	37 0b       	sbc	r19, r23
 57e:	b9 01       	movw	r22, r18
 580:	a8 01       	movw	r20, r16
 582:	41 31       	cpi	r20, 0x11	; 17
 584:	57 42       	sbci	r21, 0x27	; 39
 586:	61 05       	cpc	r22, r1
 588:	71 05       	cpc	r23, r1
 58a:	70 f0       	brcs	.+28     	; 0x5a8 <__LOCK_REGION_LENGTH__+0x1a8>
		if (forward)	*portDIR |= maskDIR;
		else			*portDIR &= ~maskDIR;
	}
	
	void setSpeed(uint8_t speed) {
		*ocrPWM = speed;
 58c:	e0 e0       	ldi	r30, 0x00	; 0
 58e:	f2 e0       	ldi	r31, 0x02	; 2
 590:	c2 85       	ldd	r28, Z+10	; 0x0a
 592:	d3 85       	ldd	r29, Z+11	; 0x0b
 594:	18 82       	st	Y, r1
	}
	
	void stop() {
		setSpeed(0);
		*portEN &= ~maskEN;
 596:	c5 81       	ldd	r28, Z+5	; 0x05
 598:	d6 81       	ldd	r29, Z+6	; 0x06
 59a:	38 81       	ld	r19, Y
 59c:	21 85       	ldd	r18, Z+9	; 0x09
 59e:	20 95       	com	r18
 5a0:	23 23       	and	r18, r19
 5a2:	28 83       	st	Y, r18
		isMoving = false;
 5a4:	16 86       	std	Z+14, r1	; 0x0e
					}
				}
				// Safety timeout (10s)
				else if (isCalibrating && (currentTime - stateTimer) > 10000) {
					stop();
					isCalibrating = false;
 5a6:	10 8e       	std	Z+24, r1	; 0x18
	}
	
	bool consumeClick() {
		if (flagPressed) {
 5a8:	20 91 44 02 	lds	r18, 0x0244	; 0x800244 <sw6+0x11>
 5ac:	21 11       	cpse	r18, r1
			flagPressed = false;
 5ae:	10 92 44 02 	sts	0x0244, r1	; 0x800244 <sw6+0x11>
		// Update
		sw6.update(currentMillis);
		sw1.update(currentMillis);
		m1.update(currentMillis);
		
		if (sw6.consumeClick()) {
 5b2:	22 23       	and	r18, r18
 5b4:	09 f4       	brne	.+2      	; 0x5b8 <__LOCK_REGION_LENGTH__+0x1b8>
 5b6:	c5 ce       	rjmp	.-630    	; 0x342 <main+0xbe>
		*portEN &= ~maskEN;
		isMoving = false;
	}
	
	bool getIsMoving() {
		return isMoving;
 5b8:	30 91 0e 02 	lds	r19, 0x020E	; 0x80020e <__DATA_REGION_ORIGIN__+0xe>
			if (!m1.getIsMoving()) {
 5bc:	31 11       	cpse	r19, r1
 5be:	47 c0       	rjmp	.+142    	; 0x64e <__LOCK_REGION_LENGTH__+0x24e>
	}
	
	void goTo(bool direction, uint32_t currentTime) {
		bool startFromSide = false;
	
		if (eorSwitch != 0) {
 5c0:	e0 91 0c 02 	lds	r30, 0x020C	; 0x80020c <__DATA_REGION_ORIGIN__+0xc>
 5c4:	f0 91 0d 02 	lds	r31, 0x020D	; 0x80020d <__DATA_REGION_ORIGIN__+0xd>
 5c8:	30 97       	sbiw	r30, 0x00	; 0
 5ca:	91 f0       	breq	.+36     	; 0x5f0 <__LOCK_REGION_LENGTH__+0x1f0>
	bool isPressed() {
		return !(*pinReg & mask);	// Pressed is 0
	}

	SwState getState() {
		return currentState;
 5cc:	47 81       	ldd	r20, Z+7	; 0x07
			SwitchMotor::SwState state = eorSwitch->getState();
			if ((direction && state == SwitchMotor::SIDE_1) ||
				(!direction && state == SwitchMotor::SIDE_2)) {
 5ce:	42 30       	cpi	r20, 0x02	; 2
 5d0:	09 f4       	brne	.+2      	; 0x5d4 <__LOCK_REGION_LENGTH__+0x1d4>
 5d2:	b7 ce       	rjmp	.-658    	; 0x342 <main+0xbe>
				return;
			}
			if (state != SwitchMotor::MOVING) {
 5d4:	41 11       	cpse	r20, r1
 5d6:	02 c0       	rjmp	.+4      	; 0x5dc <__LOCK_REGION_LENGTH__+0x1dc>
		calibDirection = direction;
		stateTimer = currentTime;		
	}
	
	void goTo(bool direction, uint32_t currentTime) {
		bool startFromSide = false;
 5d8:	60 e0       	ldi	r22, 0x00	; 0
 5da:	01 c0       	rjmp	.+2      	; 0x5de <__LOCK_REGION_LENGTH__+0x1de>
			if ((direction && state == SwitchMotor::SIDE_1) ||
				(!direction && state == SwitchMotor::SIDE_2)) {
				return;
			}
			if (state != SwitchMotor::MOVING) {
				startFromSide = true;
 5dc:	61 e0       	ldi	r22, 0x01	; 1
		}
		lastReading = reading;
    }
	
	void forceState(SwState s) {
		currentState = s;
 5de:	17 82       	std	Z+7, r1	; 0x07
		flagPressed = false;
 5e0:	10 86       	std	Z+8, r1	; 0x08
			}
			
			eorSwitch->forceState(SwitchMotor::MOVING);
			eorSwitch->setExpectedDirection(direction);
 5e2:	e0 91 0c 02 	lds	r30, 0x020C	; 0x80020c <__DATA_REGION_ORIGIN__+0xc>
 5e6:	f0 91 0d 02 	lds	r31, 0x020D	; 0x80020d <__DATA_REGION_ORIGIN__+0xd>
	}
	
	void setExpectedDirection(bool direction) {
		expectedDirection = direction;
 5ea:	11 86       	std	Z+9, r1	; 0x09
		flagPressed = false;
 5ec:	10 86       	std	Z+8, r1	; 0x08
 5ee:	01 c0       	rjmp	.+2      	; 0x5f2 <__LOCK_REGION_LENGTH__+0x1f2>
		calibDirection = direction;
		stateTimer = currentTime;		
	}
	
	void goTo(bool direction, uint32_t currentTime) {
		bool startFromSide = false;
 5f0:	60 e0       	ldi	r22, 0x00	; 0
		*ocrPWM = 0;
	}
	
	void setDirection(bool forward) {
		if (forward)	*portDIR |= maskDIR;
		else			*portDIR &= ~maskDIR;
 5f2:	e0 e0       	ldi	r30, 0x00	; 0
 5f4:	f2 e0       	ldi	r31, 0x02	; 2
 5f6:	c0 81       	ld	r28, Z
 5f8:	d1 81       	ldd	r29, Z+1	; 0x01
 5fa:	58 81       	ld	r21, Y
 5fc:	44 81       	ldd	r20, Z+4	; 0x04
 5fe:	40 95       	com	r20
 600:	45 23       	and	r20, r21
 602:	48 83       	st	Y, r20
	}
	
	void setSpeed(uint8_t speed) {
		*ocrPWM = speed;
 604:	c2 85       	ldd	r28, Z+10	; 0x0a
 606:	d3 85       	ldd	r29, Z+11	; 0x0b
 608:	4c ec       	ldi	r20, 0xCC	; 204
 60a:	48 83       	st	Y, r20
			eorSwitch->setExpectedDirection(direction);
		}
		
		setDirection(direction);
		setSpeed(204);
		isMoving = true;
 60c:	41 e0       	ldi	r20, 0x01	; 1
 60e:	46 87       	std	Z+14, r20	; 0x0e
		
		if (startFromSide || (eorSwitch != 0 && eorSwitch->isPressed())) {	
 610:	61 11       	cpse	r22, r1
 612:	0f c0       	rjmp	.+30     	; 0x632 <__LOCK_REGION_LENGTH__+0x232>
 614:	e0 91 0c 02 	lds	r30, 0x020C	; 0x80020c <__DATA_REGION_ORIGIN__+0xc>
 618:	f0 91 0d 02 	lds	r31, 0x020D	; 0x80020d <__DATA_REGION_ORIGIN__+0xd>
 61c:	30 97       	sbiw	r30, 0x00	; 0
 61e:	41 f0       	breq	.+16     	; 0x630 <__LOCK_REGION_LENGTH__+0x230>
		*ddrReg &= ~mask;	// Input
		*portReg |= mask;	// Pull-up
	}
	
	bool isPressed() {
		return !(*pinReg & mask);	// Pressed is 0
 620:	c0 81       	ld	r28, Z
 622:	d1 81       	ldd	r29, Z+1	; 0x01
 624:	58 81       	ld	r21, Y
 626:	46 81       	ldd	r20, Z+6	; 0x06
 628:	45 23       	and	r20, r21
 62a:	19 f0       	breq	.+6      	; 0x632 <__LOCK_REGION_LENGTH__+0x232>
 62c:	23 2f       	mov	r18, r19
 62e:	01 c0       	rjmp	.+2      	; 0x632 <__LOCK_REGION_LENGTH__+0x232>
 630:	23 2f       	mov	r18, r19
 632:	22 23       	and	r18, r18
 634:	49 f0       	breq	.+18     	; 0x648 <__LOCK_REGION_LENGTH__+0x248>
			isEscaping = true;
 636:	e0 e0       	ldi	r30, 0x00	; 0
 638:	f2 e0       	ldi	r31, 0x02	; 2
 63a:	21 e0       	ldi	r18, 0x01	; 1
 63c:	27 87       	std	Z+15, r18	; 0x0f
			escapeStartTimestamp = currentTime;
 63e:	80 8b       	std	Z+16, r24	; 0x10
 640:	91 8b       	std	Z+17, r25	; 0x11
 642:	a2 8b       	std	Z+18, r26	; 0x12
 644:	b3 8b       	std	Z+19, r27	; 0x13
 646:	7d ce       	rjmp	.-774    	; 0x342 <main+0xbe>
		} else {
			isEscaping = false;
 648:	10 92 0f 02 	sts	0x020F, r1	; 0x80020f <__DATA_REGION_ORIGIN__+0xf>
 64c:	7a ce       	rjmp	.-780    	; 0x342 <main+0xbe>
		if (forward)	*portDIR |= maskDIR;
		else			*portDIR &= ~maskDIR;
	}
	
	void setSpeed(uint8_t speed) {
		*ocrPWM = speed;
 64e:	e0 e0       	ldi	r30, 0x00	; 0
 650:	f2 e0       	ldi	r31, 0x02	; 2
 652:	a2 85       	ldd	r26, Z+10	; 0x0a
 654:	b3 85       	ldd	r27, Z+11	; 0x0b
 656:	1c 92       	st	X, r1
	}
	
	void stop() {
		setSpeed(0);
		*portEN &= ~maskEN;
 658:	a5 81       	ldd	r26, Z+5	; 0x05
 65a:	b6 81       	ldd	r27, Z+6	; 0x06
 65c:	9c 91       	ld	r25, X
 65e:	81 85       	ldd	r24, Z+9	; 0x09
 660:	80 95       	com	r24
 662:	89 23       	and	r24, r25
 664:	8c 93       	st	X, r24
		isMoving = false;
 666:	16 86       	std	Z+14, r1	; 0x0e
 668:	6c ce       	rjmp	.-808    	; 0x342 <main+0xbe>

0000066a <_GLOBAL__sub_I_systemTimer>:
				m1.stop();
			}
		}
	}
	return 0;
 66a:	6f ef       	ldi	r22, 0xFF	; 255
 66c:	7f ef       	ldi	r23, 0xFF	; 255
 66e:	81 e0       	ldi	r24, 0x01	; 1
 670:	90 e0       	ldi	r25, 0x00	; 0
 672:	0e 94 92 00 	call	0x124	; 0x124 <_Z41__static_initialization_and_destruction_0ii>
 676:	08 95       	ret

00000678 <__tablejump2__>:
 678:	ee 0f       	add	r30, r30
 67a:	ff 1f       	adc	r31, r31
 67c:	05 90       	lpm	r0, Z+
 67e:	f4 91       	lpm	r31, Z
 680:	e0 2d       	mov	r30, r0
 682:	09 94       	ijmp

00000684 <_exit>:
 684:	f8 94       	cli

00000686 <__stop_program>:
 686:	ff cf       	rjmp	.-2      	; 0x686 <__stop_program>
