
motor_switch_classes.elf:     file format elf32-avr

Sections:
Idx Name          Size      VMA       LMA       File off  Algn
  0 .data         00000000  00800200  00800200  000007d8  2**0
                  CONTENTS, ALLOC, LOAD, DATA
  1 .text         00000764  00000000  00000000  00000074  2**1
                  CONTENTS, ALLOC, LOAD, READONLY, CODE
  2 .bss          0000004b  00800200  00800200  000007d8  2**0
                  ALLOC
  3 .comment      00000030  00000000  00000000  000007d8  2**0
                  CONTENTS, READONLY
  4 .note.gnu.avr.deviceinfo 0000003c  00000000  00000000  00000808  2**2
                  CONTENTS, READONLY
  5 .debug_aranges 00000038  00000000  00000000  00000844  2**0
                  CONTENTS, READONLY, DEBUGGING
  6 .debug_info   00001e0d  00000000  00000000  0000087c  2**0
                  CONTENTS, READONLY, DEBUGGING
  7 .debug_abbrev 00000d61  00000000  00000000  00002689  2**0
                  CONTENTS, READONLY, DEBUGGING
  8 .debug_line   000007b8  00000000  00000000  000033ea  2**0
                  CONTENTS, READONLY, DEBUGGING
  9 .debug_frame  00000088  00000000  00000000  00003ba4  2**2
                  CONTENTS, READONLY, DEBUGGING
 10 .debug_str    00000b76  00000000  00000000  00003c2c  2**0
                  CONTENTS, READONLY, DEBUGGING
 11 .debug_loc    00000634  00000000  00000000  000047a2  2**0
                  CONTENTS, READONLY, DEBUGGING
 12 .debug_ranges 00000040  00000000  00000000  00004dd6  2**0
                  CONTENTS, READONLY, DEBUGGING

Disassembly of section .text:

00000000 <__vectors>:
   0:	0c 94 73 00 	jmp	0xe6	; 0xe6 <__ctors_end>
   4:	0c 94 90 00 	jmp	0x120	; 0x120 <__bad_interrupt>
   8:	0c 94 90 00 	jmp	0x120	; 0x120 <__bad_interrupt>
   c:	0c 94 90 00 	jmp	0x120	; 0x120 <__bad_interrupt>
  10:	0c 94 90 00 	jmp	0x120	; 0x120 <__bad_interrupt>
  14:	0c 94 90 00 	jmp	0x120	; 0x120 <__bad_interrupt>
  18:	0c 94 90 00 	jmp	0x120	; 0x120 <__bad_interrupt>
  1c:	0c 94 90 00 	jmp	0x120	; 0x120 <__bad_interrupt>
  20:	0c 94 90 00 	jmp	0x120	; 0x120 <__bad_interrupt>
  24:	0c 94 90 00 	jmp	0x120	; 0x120 <__bad_interrupt>
  28:	0c 94 90 00 	jmp	0x120	; 0x120 <__bad_interrupt>
  2c:	0c 94 90 00 	jmp	0x120	; 0x120 <__bad_interrupt>
  30:	0c 94 90 00 	jmp	0x120	; 0x120 <__bad_interrupt>
  34:	0c 94 90 00 	jmp	0x120	; 0x120 <__bad_interrupt>
  38:	0c 94 90 00 	jmp	0x120	; 0x120 <__bad_interrupt>
  3c:	0c 94 90 00 	jmp	0x120	; 0x120 <__bad_interrupt>
  40:	0c 94 90 00 	jmp	0x120	; 0x120 <__bad_interrupt>
  44:	0c 94 90 00 	jmp	0x120	; 0x120 <__bad_interrupt>
  48:	0c 94 90 00 	jmp	0x120	; 0x120 <__bad_interrupt>
  4c:	0c 94 90 00 	jmp	0x120	; 0x120 <__bad_interrupt>
  50:	0c 94 90 00 	jmp	0x120	; 0x120 <__bad_interrupt>
  54:	0c 94 90 00 	jmp	0x120	; 0x120 <__bad_interrupt>
  58:	0c 94 90 00 	jmp	0x120	; 0x120 <__bad_interrupt>
  5c:	0c 94 90 00 	jmp	0x120	; 0x120 <__bad_interrupt>
  60:	0c 94 90 00 	jmp	0x120	; 0x120 <__bad_interrupt>
  64:	0c 94 90 00 	jmp	0x120	; 0x120 <__bad_interrupt>
  68:	0c 94 90 00 	jmp	0x120	; 0x120 <__bad_interrupt>
  6c:	0c 94 90 00 	jmp	0x120	; 0x120 <__bad_interrupt>
  70:	0c 94 90 00 	jmp	0x120	; 0x120 <__bad_interrupt>
  74:	0c 94 90 00 	jmp	0x120	; 0x120 <__bad_interrupt>
  78:	0c 94 90 00 	jmp	0x120	; 0x120 <__bad_interrupt>
  7c:	0c 94 90 00 	jmp	0x120	; 0x120 <__bad_interrupt>
  80:	0c 94 90 00 	jmp	0x120	; 0x120 <__bad_interrupt>
  84:	0c 94 90 00 	jmp	0x120	; 0x120 <__bad_interrupt>
  88:	0c 94 90 00 	jmp	0x120	; 0x120 <__bad_interrupt>
  8c:	0c 94 90 00 	jmp	0x120	; 0x120 <__bad_interrupt>
  90:	0c 94 90 00 	jmp	0x120	; 0x120 <__bad_interrupt>
  94:	0c 94 90 00 	jmp	0x120	; 0x120 <__bad_interrupt>
  98:	0c 94 90 00 	jmp	0x120	; 0x120 <__bad_interrupt>
  9c:	0c 94 90 00 	jmp	0x120	; 0x120 <__bad_interrupt>
  a0:	0c 94 90 00 	jmp	0x120	; 0x120 <__bad_interrupt>
  a4:	0c 94 90 00 	jmp	0x120	; 0x120 <__bad_interrupt>
  a8:	0c 94 18 01 	jmp	0x230	; 0x230 <__vector_42>
  ac:	0c 94 90 00 	jmp	0x120	; 0x120 <__bad_interrupt>
  b0:	0c 94 90 00 	jmp	0x120	; 0x120 <__bad_interrupt>
  b4:	0c 94 90 00 	jmp	0x120	; 0x120 <__bad_interrupt>
  b8:	0c 94 90 00 	jmp	0x120	; 0x120 <__bad_interrupt>
  bc:	0c 94 90 00 	jmp	0x120	; 0x120 <__bad_interrupt>
  c0:	0c 94 90 00 	jmp	0x120	; 0x120 <__bad_interrupt>
  c4:	0c 94 90 00 	jmp	0x120	; 0x120 <__bad_interrupt>
  c8:	0c 94 90 00 	jmp	0x120	; 0x120 <__bad_interrupt>
  cc:	0c 94 90 00 	jmp	0x120	; 0x120 <__bad_interrupt>
  d0:	0c 94 90 00 	jmp	0x120	; 0x120 <__bad_interrupt>
  d4:	0c 94 90 00 	jmp	0x120	; 0x120 <__bad_interrupt>
  d8:	0c 94 90 00 	jmp	0x120	; 0x120 <__bad_interrupt>
  dc:	0c 94 90 00 	jmp	0x120	; 0x120 <__bad_interrupt>
  e0:	0c 94 90 00 	jmp	0x120	; 0x120 <__bad_interrupt>

000000e4 <__ctors_start>:
  e4:	a3 03       	fmuls	r18, r19

000000e6 <__ctors_end>:
  e6:	11 24       	eor	r1, r1
  e8:	1f be       	out	0x3f, r1	; 63
  ea:	cf ef       	ldi	r28, 0xFF	; 255
  ec:	d1 e2       	ldi	r29, 0x21	; 33
  ee:	de bf       	out	0x3e, r29	; 62
  f0:	cd bf       	out	0x3d, r28	; 61

000000f2 <__do_clear_bss>:
  f2:	22 e0       	ldi	r18, 0x02	; 2
  f4:	a0 e0       	ldi	r26, 0x00	; 0
  f6:	b2 e0       	ldi	r27, 0x02	; 2
  f8:	01 c0       	rjmp	.+2      	; 0xfc <.do_clear_bss_start>

000000fa <.do_clear_bss_loop>:
  fa:	1d 92       	st	X+, r1

000000fc <.do_clear_bss_start>:
  fc:	ab 34       	cpi	r26, 0x4B	; 75
  fe:	b2 07       	cpc	r27, r18
 100:	e1 f7       	brne	.-8      	; 0xfa <.do_clear_bss_loop>

00000102 <__do_global_ctors>:
 102:	10 e0       	ldi	r17, 0x00	; 0
 104:	c3 e7       	ldi	r28, 0x73	; 115
 106:	d0 e0       	ldi	r29, 0x00	; 0
 108:	04 c0       	rjmp	.+8      	; 0x112 <__do_global_ctors+0x10>
 10a:	21 97       	sbiw	r28, 0x01	; 1
 10c:	fe 01       	movw	r30, r28
 10e:	0e 94 aa 03 	call	0x754	; 0x754 <__tablejump2__>
 112:	c2 37       	cpi	r28, 0x72	; 114
 114:	d1 07       	cpc	r29, r17
 116:	c9 f7       	brne	.-14     	; 0x10a <__do_global_ctors+0x8>
 118:	0e 94 3f 01 	call	0x27e	; 0x27e <main>
 11c:	0c 94 b0 03 	jmp	0x760	; 0x760 <_exit>

00000120 <__bad_interrupt>:
 120:	0c 94 00 00 	jmp	0	; 0x0 <__vectors>

00000124 <_Z41__static_initialization_and_destruction_0ii>:
            m3.calibrate(true, currentMillis);
        }
    }

    return 0;
 124:	cf 93       	push	r28
 126:	df 93       	push	r29
 128:	01 97       	sbiw	r24, 0x01	; 1
 12a:	09 f0       	breq	.+2      	; 0x12e <_Z41__static_initialization_and_destruction_0ii+0xa>
 12c:	7e c0       	rjmp	.+252    	; 0x22a <_Z41__static_initialization_and_destruction_0ii+0x106>
 12e:	6f 3f       	cpi	r22, 0xFF	; 255
 130:	7f 4f       	sbci	r23, 0xFF	; 255
 132:	09 f0       	breq	.+2      	; 0x136 <_Z41__static_initialization_and_destruction_0ii+0x12>
 134:	7a c0       	rjmp	.+244    	; 0x22a <_Z41__static_initialization_and_destruction_0ii+0x106>
	private:
	volatile uint32_t system_millis;
	
	public:
	Timer() {
		system_millis = 0;
 136:	10 92 47 02 	sts	0x0247, r1	; 0x800247 <systemTimer>
 13a:	10 92 48 02 	sts	0x0248, r1	; 0x800248 <systemTimer+0x1>
 13e:	10 92 49 02 	sts	0x0249, r1	; 0x800249 <systemTimer+0x2>
 142:	10 92 4a 02 	sts	0x024A, r1	; 0x80024a <systemTimer+0x3>
	bool lastState;
	bool stableState;
	bool flagPressed;
	
	public:
	SwitchUser(volatile uint8_t* pinR, volatile uint8_t* portR, volatile uint8_t* ddrR, uint8_t m) {
 146:	e3 e3       	ldi	r30, 0x33	; 51
 148:	f2 e0       	ldi	r31, 0x02	; 2
 14a:	82 e3       	ldi	r24, 0x32	; 50
 14c:	90 e0       	ldi	r25, 0x00	; 0
 14e:	a0 e0       	ldi	r26, 0x00	; 0
 150:	b0 e0       	ldi	r27, 0x00	; 0
 152:	83 87       	std	Z+11, r24	; 0x0b
 154:	94 87       	std	Z+12, r25	; 0x0c
 156:	a5 87       	std	Z+13, r26	; 0x0d
 158:	b6 87       	std	Z+14, r27	; 0x0e
		pinReg = pinR;
 15a:	c9 e2       	ldi	r28, 0x29	; 41
 15c:	d0 e0       	ldi	r29, 0x00	; 0
 15e:	d1 83       	std	Z+1, r29	; 0x01
 160:	c0 83       	st	Z, r28
		portReg = portR;
 162:	2b e2       	ldi	r18, 0x2B	; 43
 164:	30 e0       	ldi	r19, 0x00	; 0
 166:	33 83       	std	Z+3, r19	; 0x03
 168:	22 83       	std	Z+2, r18	; 0x02
		ddrReg = ddrR;
 16a:	8a e2       	ldi	r24, 0x2A	; 42
 16c:	90 e0       	ldi	r25, 0x00	; 0
 16e:	95 83       	std	Z+5, r25	; 0x05
 170:	84 83       	std	Z+4, r24	; 0x04
		mask = m;
 172:	48 e0       	ldi	r20, 0x08	; 8
 174:	46 83       	std	Z+6, r20	; 0x06
		
		lastChangeTimestamp = 0;
 176:	17 82       	std	Z+7, r1	; 0x07
 178:	10 86       	std	Z+8, r1	; 0x08
 17a:	11 86       	std	Z+9, r1	; 0x09
 17c:	12 86       	std	Z+10, r1	; 0x0a
		lastState = false;
 17e:	17 86       	std	Z+15, r1	; 0x0f
		stableState = false;
 180:	10 8a       	std	Z+16, r1	; 0x10
		flagPressed = false;
 182:	11 8a       	std	Z+17, r1	; 0x11
	bool lastReading;
	bool stableState;
	const uint32_t debounceDelay = 100;	//ms de espera para ignorar ruido mecánico.
	
	public:
	SwitchMotor(volatile uint8_t* pinR, volatile uint8_t* portR, volatile uint8_t* ddrR, uint8_t m) {
 184:	af e1       	ldi	r26, 0x1F	; 31
 186:	b2 e0       	ldi	r27, 0x02	; 2
 188:	44 e6       	ldi	r20, 0x64	; 100
 18a:	50 e0       	ldi	r21, 0x00	; 0
 18c:	60 e0       	ldi	r22, 0x00	; 0
 18e:	70 e0       	ldi	r23, 0x00	; 0
 190:	50 96       	adiw	r26, 0x10	; 16
 192:	4d 93       	st	X+, r20
 194:	5d 93       	st	X+, r21
 196:	6d 93       	st	X+, r22
 198:	7c 93       	st	X, r23
 19a:	53 97       	sbiw	r26, 0x13	; 19
		pinReg  = pinR;
 19c:	11 96       	adiw	r26, 0x01	; 1
 19e:	dc 93       	st	X, r29
 1a0:	ce 93       	st	-X, r28
		portReg = portR;
 1a2:	13 96       	adiw	r26, 0x03	; 3
 1a4:	3c 93       	st	X, r19
 1a6:	2e 93       	st	-X, r18
 1a8:	12 97       	sbiw	r26, 0x02	; 2
		ddrReg  = ddrR;
 1aa:	15 96       	adiw	r26, 0x05	; 5
 1ac:	9c 93       	st	X, r25
 1ae:	8e 93       	st	-X, r24
 1b0:	14 97       	sbiw	r26, 0x04	; 4
		mask    = m;
 1b2:	81 e0       	ldi	r24, 0x01	; 1
 1b4:	16 96       	adiw	r26, 0x06	; 6
 1b6:	8c 93       	st	X, r24
 1b8:	16 97       	sbiw	r26, 0x06	; 6
		currentState = MOVING;
 1ba:	17 96       	adiw	r26, 0x07	; 7
 1bc:	1c 92       	st	X, r1
 1be:	17 97       	sbiw	r26, 0x07	; 7
		flagPressed = false;
 1c0:	18 96       	adiw	r26, 0x08	; 8
 1c2:	1c 92       	st	X, r1
 1c4:	18 97       	sbiw	r26, 0x08	; 8
		expectedDirection = false;
 1c6:	19 96       	adiw	r26, 0x09	; 9
 1c8:	1c 92       	st	X, r1
 1ca:	19 97       	sbiw	r26, 0x09	; 9
		
		lastDebounceTimestamp = 0;
 1cc:	1a 96       	adiw	r26, 0x0a	; 10
 1ce:	1d 92       	st	X+, r1
 1d0:	1d 92       	st	X+, r1
 1d2:	1d 92       	st	X+, r1
 1d4:	1c 92       	st	X, r1
 1d6:	1d 97       	sbiw	r26, 0x0d	; 13
		lastReading = false;
 1d8:	1e 96       	adiw	r26, 0x0e	; 14
 1da:	1c 92       	st	X, r1
 1dc:	1e 97       	sbiw	r26, 0x0e	; 14
		/* 
		 * ==== isPressed() ====
		 * Devuelve el estado acutal de la seńal del switch.
		 *  - return: [bool] true si el switch está presionado. flase en caso contrario.
		 */
		return !(*pinReg & mask);	// Lógica invertida (Pull-up)
 1de:	99 b1       	in	r25, 0x09	; 9
 1e0:	89 27       	eor	r24, r25
 1e2:	81 70       	andi	r24, 0x01	; 1
		flagPressed = false;
		expectedDirection = false;
		
		lastDebounceTimestamp = 0;
		lastReading = false;
		stableState = isPressed();
 1e4:	1f 96       	adiw	r26, 0x0f	; 15
 1e6:	8c 93       	st	X, r24
 1e8:	1f 97       	sbiw	r26, 0x0f	; 15
	Motor(
		volatile uint8_t* pDIR, volatile uint8_t* dDIR, uint8_t mDIR,
		volatile uint8_t* pEN,  volatile uint8_t* dEN,  uint8_t mEN,
		volatile uint8_t* rPWM,
		SwitchMotor* sw = 0
	) {
 1ea:	e0 e0       	ldi	r30, 0x00	; 0
 1ec:	f2 e0       	ldi	r31, 0x02	; 2
 1ee:	44 8b       	std	Z+20, r20	; 0x14
 1f0:	55 8b       	std	Z+21, r21	; 0x15
 1f2:	66 8b       	std	Z+22, r22	; 0x16
 1f4:	77 8b       	std	Z+23, r23	; 0x17
		portDIR = pDIR; ddrDIR = dDIR; maskDIR = mDIR;
 1f6:	25 e2       	ldi	r18, 0x25	; 37
 1f8:	30 e0       	ldi	r19, 0x00	; 0
 1fa:	31 83       	std	Z+1, r19	; 0x01
 1fc:	20 83       	st	Z, r18
 1fe:	84 e2       	ldi	r24, 0x24	; 36
 200:	90 e0       	ldi	r25, 0x00	; 0
 202:	93 83       	std	Z+3, r25	; 0x03
 204:	82 83       	std	Z+2, r24	; 0x02
 206:	44 e0       	ldi	r20, 0x04	; 4
 208:	44 83       	std	Z+4, r20	; 0x04
		portEN  = pEN;  ddrEN  = dEN;  maskEN  = mEN;
 20a:	36 83       	std	Z+6, r19	; 0x06
 20c:	25 83       	std	Z+5, r18	; 0x05
 20e:	90 87       	std	Z+8, r25	; 0x08
 210:	87 83       	std	Z+7, r24	; 0x07
 212:	80 e4       	ldi	r24, 0x40	; 64
 214:	81 87       	std	Z+9, r24	; 0x09
		ocrPWM  = rPWM;
 216:	8a e8       	ldi	r24, 0x8A	; 138
 218:	90 e0       	ldi	r25, 0x00	; 0
 21a:	93 87       	std	Z+11, r25	; 0x0b
 21c:	82 87       	std	Z+10, r24	; 0x0a
		eorSwitch = sw;
 21e:	b5 87       	std	Z+13, r27	; 0x0d
 220:	a4 87       	std	Z+12, r26	; 0x0c
		
		isMoving = false;
 222:	16 86       	std	Z+14, r1	; 0x0e
		isEscaping = false;
 224:	17 86       	std	Z+15, r1	; 0x0f
		isCalibrating = false;
 226:	10 8e       	std	Z+24, r1	; 0x18
		isWaitingAfterCalib = false;
 228:	11 8e       	std	Z+25, r1	; 0x19
 22a:	df 91       	pop	r29
 22c:	cf 91       	pop	r28
 22e:	08 95       	ret

00000230 <__vector_42>:
#include "SwitchMotor.h"
#include "Motor.h"

Timer systemTimer;
Timer* timerPtr = 0;
ISR(TIMER4_COMPA_vect) {
 230:	1f 92       	push	r1
 232:	0f 92       	push	r0
 234:	0f b6       	in	r0, 0x3f	; 63
 236:	0f 92       	push	r0
 238:	11 24       	eor	r1, r1
 23a:	8f 93       	push	r24
 23c:	9f 93       	push	r25
 23e:	af 93       	push	r26
 240:	bf 93       	push	r27
 242:	ef 93       	push	r30
 244:	ff 93       	push	r31
    if (timerPtr) timerPtr->addTick();
 246:	e0 91 45 02 	lds	r30, 0x0245	; 0x800245 <timerPtr>
 24a:	f0 91 46 02 	lds	r31, 0x0246	; 0x800246 <timerPtr+0x1>
 24e:	30 97       	sbiw	r30, 0x00	; 0
 250:	59 f0       	breq	.+22     	; 0x268 <__vector_42+0x38>
		OCR4A = 124;
		TIMSK4 |= (1 << OCIE4A);
	}
	
	void addTick() {
		system_millis++;
 252:	80 81       	ld	r24, Z
 254:	91 81       	ldd	r25, Z+1	; 0x01
 256:	a2 81       	ldd	r26, Z+2	; 0x02
 258:	b3 81       	ldd	r27, Z+3	; 0x03
 25a:	01 96       	adiw	r24, 0x01	; 1
 25c:	a1 1d       	adc	r26, r1
 25e:	b1 1d       	adc	r27, r1
 260:	80 83       	st	Z, r24
 262:	91 83       	std	Z+1, r25	; 0x01
 264:	a2 83       	std	Z+2, r26	; 0x02
 266:	b3 83       	std	Z+3, r27	; 0x03
}
 268:	ff 91       	pop	r31
 26a:	ef 91       	pop	r30
 26c:	bf 91       	pop	r27
 26e:	af 91       	pop	r26
 270:	9f 91       	pop	r25
 272:	8f 91       	pop	r24
 274:	0f 90       	pop	r0
 276:	0f be       	out	0x3f, r0	; 63
 278:	0f 90       	pop	r0
 27a:	1f 90       	pop	r1
 27c:	18 95       	reti

0000027e <main>:
Motor m3(&PORTB, &DDRB, (1<<PB2),
         &PORTB, &DDRB, (1<<PB6),
         &OCR1BL, &sw3);

int main(void) {
    timerPtr = &systemTimer;
 27e:	87 e4       	ldi	r24, 0x47	; 71
 280:	92 e0       	ldi	r25, 0x02	; 2
 282:	90 93 46 02 	sts	0x0246, r25	; 0x800246 <timerPtr+0x1>
 286:	80 93 45 02 	sts	0x0245, r24	; 0x800245 <timerPtr>

    cli();
 28a:	f8 94       	cli
    
    // Timer 1 (M3 - OCR1B)
    TCCR1A |= (1 << COM1B1) | (1 << WGM10);
 28c:	e0 e8       	ldi	r30, 0x80	; 128
 28e:	f0 e0       	ldi	r31, 0x00	; 0
 290:	80 81       	ld	r24, Z
 292:	81 62       	ori	r24, 0x21	; 33
 294:	80 83       	st	Z, r24
    TCCR1B |= (1 << WGM12) | (1 << CS11) | (1 << CS10);
 296:	e1 e8       	ldi	r30, 0x81	; 129
 298:	f0 e0       	ldi	r31, 0x00	; 0
 29a:	80 81       	ld	r24, Z
 29c:	8b 60       	ori	r24, 0x0B	; 11
 29e:	80 83       	st	Z, r24
    OCR1BH = 0;
 2a0:	10 92 8b 00 	sts	0x008B, r1	; 0x80008b <__TEXT_REGION_LENGTH__+0x7f008b>
    OCR1BL = 0;
 2a4:	10 92 8a 00 	sts	0x008A, r1	; 0x80008a <__TEXT_REGION_LENGTH__+0x7f008a>
		system_millis = 0;
	}
	
	void init() {
		// CTC
		TCCR4B &= ~((1 << WGM43) | (1 << WGM41) | (1 << WGM40));
 2a8:	e1 ea       	ldi	r30, 0xA1	; 161
 2aa:	f0 e0       	ldi	r31, 0x00	; 0
 2ac:	80 81       	ld	r24, Z
 2ae:	8c 7e       	andi	r24, 0xEC	; 236
 2b0:	80 83       	st	Z, r24
		TCCR4B |= (1 << WGM42);
 2b2:	80 81       	ld	r24, Z
 2b4:	88 60       	ori	r24, 0x08	; 8
 2b6:	80 83       	st	Z, r24

		// 64 prescaler
		TCCR4B |= (1 << CS41) | (1 << CS40);
 2b8:	80 81       	ld	r24, Z
 2ba:	83 60       	ori	r24, 0x03	; 3
 2bc:	80 83       	st	Z, r24
		TCCR4B &= ~(1 << CS42);
 2be:	80 81       	ld	r24, Z
 2c0:	8b 7f       	andi	r24, 0xFB	; 251
 2c2:	80 83       	st	Z, r24

		// 1ms interrupt
		OCR4A = 124;
 2c4:	8c e7       	ldi	r24, 0x7C	; 124
 2c6:	90 e0       	ldi	r25, 0x00	; 0
 2c8:	90 93 a9 00 	sts	0x00A9, r25	; 0x8000a9 <__TEXT_REGION_LENGTH__+0x7f00a9>
 2cc:	80 93 a8 00 	sts	0x00A8, r24	; 0x8000a8 <__TEXT_REGION_LENGTH__+0x7f00a8>
		TIMSK4 |= (1 << OCIE4A);
 2d0:	e2 e7       	ldi	r30, 0x72	; 114
 2d2:	f0 e0       	ldi	r31, 0x00	; 0
 2d4:	80 81       	ld	r24, Z
 2d6:	82 60       	ori	r24, 0x02	; 2
 2d8:	80 83       	st	Z, r24
	}
	
	void init() {
		*ddrReg &= ~mask;	// Input
 2da:	e3 e3       	ldi	r30, 0x33	; 51
 2dc:	f2 e0       	ldi	r31, 0x02	; 2
 2de:	a4 81       	ldd	r26, Z+4	; 0x04
 2e0:	b5 81       	ldd	r27, Z+5	; 0x05
 2e2:	8c 91       	ld	r24, X
 2e4:	96 81       	ldd	r25, Z+6	; 0x06
 2e6:	90 95       	com	r25
 2e8:	89 23       	and	r24, r25
 2ea:	8c 93       	st	X, r24
		*portReg |= mask;	// Pull-up
 2ec:	a2 81       	ldd	r26, Z+2	; 0x02
 2ee:	b3 81       	ldd	r27, Z+3	; 0x03
 2f0:	9c 91       	ld	r25, X
 2f2:	86 81       	ldd	r24, Z+6	; 0x06
 2f4:	89 2b       	or	r24, r25
 2f6:	8c 93       	st	X, r24
	void init() {
		/* 
		 * ==== init() ====
		 * Configura el pin como entrada y activa resistencia pull-up interna.
		 */
		*ddrReg &= ~mask;	// Input
 2f8:	ef e1       	ldi	r30, 0x1F	; 31
 2fa:	f2 e0       	ldi	r31, 0x02	; 2
 2fc:	a4 81       	ldd	r26, Z+4	; 0x04
 2fe:	b5 81       	ldd	r27, Z+5	; 0x05
 300:	8c 91       	ld	r24, X
 302:	96 81       	ldd	r25, Z+6	; 0x06
 304:	90 95       	com	r25
 306:	89 23       	and	r24, r25
 308:	8c 93       	st	X, r24
		*portReg |= mask;	// Pull-up
 30a:	a2 81       	ldd	r26, Z+2	; 0x02
 30c:	b3 81       	ldd	r27, Z+3	; 0x03
 30e:	9c 91       	ld	r25, X
 310:	86 81       	ldd	r24, Z+6	; 0x06
 312:	89 2b       	or	r24, r25
 314:	8c 93       	st	X, r24
	void init() {
		/* 
		 * ==== init() ====
		 * Configura ambos pines como salida e inicializa velocidad 0.
		 */
		*ddrDIR |= maskDIR;	// Output
 316:	e0 e0       	ldi	r30, 0x00	; 0
 318:	f2 e0       	ldi	r31, 0x02	; 2
 31a:	a2 81       	ldd	r26, Z+2	; 0x02
 31c:	b3 81       	ldd	r27, Z+3	; 0x03
 31e:	9c 91       	ld	r25, X
 320:	84 81       	ldd	r24, Z+4	; 0x04
 322:	89 2b       	or	r24, r25
 324:	8c 93       	st	X, r24
		*ddrEN |= maskEN;	// Output
 326:	a7 81       	ldd	r26, Z+7	; 0x07
 328:	b0 85       	ldd	r27, Z+8	; 0x08
 32a:	9c 91       	ld	r25, X
 32c:	81 85       	ldd	r24, Z+9	; 0x09
 32e:	89 2b       	or	r24, r25
 330:	8c 93       	st	X, r24
		*portDIR &= ~maskDIR;
 332:	a0 81       	ld	r26, Z
 334:	b1 81       	ldd	r27, Z+1	; 0x01
 336:	8c 91       	ld	r24, X
 338:	94 81       	ldd	r25, Z+4	; 0x04
 33a:	90 95       	com	r25
 33c:	89 23       	and	r24, r25
 33e:	8c 93       	st	X, r24
		*portEN &= ~maskEN;
 340:	a5 81       	ldd	r26, Z+5	; 0x05
 342:	b6 81       	ldd	r27, Z+6	; 0x06
 344:	8c 91       	ld	r24, X
 346:	91 85       	ldd	r25, Z+9	; 0x09
 348:	90 95       	com	r25
 34a:	89 23       	and	r24, r25
 34c:	8c 93       	st	X, r24
		
		*ocrPWM = 0;
 34e:	a2 85       	ldd	r26, Z+10	; 0x0a
 350:	b3 85       	ldd	r27, Z+11	; 0x0b
 352:	1c 92       	st	X, r1
    systemTimer.init();
    sw6.init();
    sw3.init();
    m3.init();
    
    sei();
 354:	78 94       	sei
		system_millis++;
	}
	
	uint32_t millis() {
		uint32_t time;
		uint8_t oldSREG = SREG;
 356:	8f b7       	in	r24, 0x3f	; 63
		cli();
 358:	f8 94       	cli
		time = system_millis;
 35a:	40 91 47 02 	lds	r20, 0x0247	; 0x800247 <systemTimer>
 35e:	50 91 48 02 	lds	r21, 0x0248	; 0x800248 <systemTimer+0x1>
 362:	60 91 49 02 	lds	r22, 0x0249	; 0x800249 <systemTimer+0x2>
 366:	70 91 4a 02 	lds	r23, 0x024A	; 0x80024a <systemTimer+0x3>
		SREG = oldSREG;
 36a:	8f bf       	out	0x3f, r24	; 63
		sei();
 36c:	78 94       	sei
		 *  - direction: [bool] Dirección de giro.
		 *  - currentTime: [uint32_t] Tiempo actual en ms.
		 */
		bool startFromSide = false;
	
		if (eorSwitch != 0) {
 36e:	04 84       	ldd	r0, Z+12	; 0x0c
 370:	f5 85       	ldd	r31, Z+13	; 0x0d
 372:	e0 2d       	mov	r30, r0
 374:	30 97       	sbiw	r30, 0x00	; 0
 376:	b1 f0       	breq	.+44     	; 0x3a4 <main+0x126>
		/* 
		 * ==== getState() ====
		 * Devuelve el estado acutal del actuador tras el filtrado.
		 *  - return: [SwState] Estado relativo en el que está el actuador.
		 */
		return currentState;
 378:	87 81       	ldd	r24, Z+7	; 0x07
			SwitchMotor::SwState state = eorSwitch->getState();
			
			// No moverse si ya está en posición de destino.
			if ((direction && state == SwitchMotor::SIDE_1) ||
 37a:	81 30       	cpi	r24, 0x01	; 1
 37c:	39 f4       	brne	.+14     	; 0x38c <main+0x10e>
		/* 
		 * ==== setSpeed(bool speed) ====
		 * Establece la velociad de rotación del motor.
		 *  - speed: [uint8_t] Velocidad (PWM) de rotación.
		 */
		*ocrPWM = speed;
 37e:	e0 e0       	ldi	r30, 0x00	; 0
 380:	f2 e0       	ldi	r31, 0x02	; 2
 382:	a2 85       	ldd	r26, Z+10	; 0x0a
 384:	b3 85       	ldd	r27, Z+11	; 0x0b
 386:	1c 92       	st	X, r1
		/* 
		 * ==== stop() ====
		 * Para el motor, y resetea las variables de estado.
		 */
		setSpeed(0);
		isMoving = false;
 388:	16 86       	std	Z+14, r1	; 0x0e
 38a:	3d c0       	rjmp	.+122    	; 0x406 <__LOCK_REGION_LENGTH__+0x6>
			if ((direction && state == SwitchMotor::SIDE_1) ||
				(!direction && state == SwitchMotor::SIDE_2)) {
				stop();
				return;
			}
			if (state != SwitchMotor::MOVING) {
 38c:	81 11       	cpse	r24, r1
				startFromSide = true;
 38e:	81 e0       	ldi	r24, 0x01	; 1
		/* 
		 * ==== forceState(SwState s) ====
		 * Establece el estado del actuador. Debe ser usado tras la calibración.
		 *  - s: [SwState] Estado actual del actuador.
		 */
		currentState = s;
 390:	17 82       	std	Z+7, r1	; 0x07
		flagPressed = false;
 392:	10 86       	std	Z+8, r1	; 0x08
			}
			
			// Prepara el switch para escuchar la colisión.
			eorSwitch->forceState(SwitchMotor::MOVING);
			eorSwitch->setExpectedDirection(direction);
 394:	e0 91 0c 02 	lds	r30, 0x020C	; 0x80020c <__DATA_REGION_ORIGIN__+0xc>
 398:	f0 91 0d 02 	lds	r31, 0x020D	; 0x80020d <__DATA_REGION_ORIGIN__+0xd>
		/* 
		 * ==== setExpectedDirection(bool direction) ====
		 * Establece la dirección a la que se mueve el motor.
		 *  - direction: [bool] true si la dirección es hacia SIDE_1, false en caso contrario.
		 */
		expectedDirection = direction;
 39c:	91 e0       	ldi	r25, 0x01	; 1
 39e:	91 87       	std	Z+9, r25	; 0x09
		flagPressed = false;
 3a0:	10 86       	std	Z+8, r1	; 0x08
 3a2:	01 c0       	rjmp	.+2      	; 0x3a6 <main+0x128>
		 * ==== startMoving(bool direction, uint32_t currentTime) ====
		 * Ordena el arranque del motor en una dirección determinada.
		 *  - direction: [bool] Dirección de giro.
		 *  - currentTime: [uint32_t] Tiempo actual en ms.
		 */
		bool startFromSide = false;
 3a4:	80 e0       	ldi	r24, 0x00	; 0
		/* 
		 * ==== setDirection(bool forward) ====
		 * Establece la dirección de giro del motor.
		 *  - forward: [bool] Dirección de giro.
		 */
		if (forward)	*portDIR |= maskDIR;
 3a6:	e0 e0       	ldi	r30, 0x00	; 0
 3a8:	f2 e0       	ldi	r31, 0x02	; 2
 3aa:	a0 81       	ld	r26, Z
 3ac:	b1 81       	ldd	r27, Z+1	; 0x01
 3ae:	2c 91       	ld	r18, X
 3b0:	94 81       	ldd	r25, Z+4	; 0x04
 3b2:	92 2b       	or	r25, r18
 3b4:	9c 93       	st	X, r25
		/* 
		 * ==== setSpeed(bool speed) ====
		 * Establece la velociad de rotación del motor.
		 *  - speed: [uint8_t] Velocidad (PWM) de rotación.
		 */
		*ocrPWM = speed;
 3b6:	a2 85       	ldd	r26, Z+10	; 0x0a
 3b8:	b3 85       	ldd	r27, Z+11	; 0x0b
 3ba:	9c ec       	ldi	r25, 0xCC	; 204
 3bc:	9c 93       	st	X, r25
			eorSwitch->setExpectedDirection(direction);
		}
		
		setDirection(direction);
		setSpeed(204); // 80% PWM
		isMoving = true;
 3be:	91 e0       	ldi	r25, 0x01	; 1
 3c0:	96 87       	std	Z+14, r25	; 0x0e
		
		// Si arranca en sensor, activar escape.
		if (startFromSide || (eorSwitch != 0 && eorSwitch->isPressed())) {	
 3c2:	81 11       	cpse	r24, r1
 3c4:	0e c0       	rjmp	.+28     	; 0x3e2 <main+0x164>
 3c6:	e0 91 0c 02 	lds	r30, 0x020C	; 0x80020c <__DATA_REGION_ORIGIN__+0xc>
 3ca:	f0 91 0d 02 	lds	r31, 0x020D	; 0x80020d <__DATA_REGION_ORIGIN__+0xd>
 3ce:	30 97       	sbiw	r30, 0x00	; 0
 3d0:	51 f0       	breq	.+20     	; 0x3e6 <main+0x168>
		/* 
		 * ==== isPressed() ====
		 * Devuelve el estado acutal de la seńal del switch.
		 *  - return: [bool] true si el switch está presionado. flase en caso contrario.
		 */
		return !(*pinReg & mask);	// Lógica invertida (Pull-up)
 3d2:	a0 81       	ld	r26, Z
 3d4:	b1 81       	ldd	r27, Z+1	; 0x01
 3d6:	9c 91       	ld	r25, X
 3d8:	86 81       	ldd	r24, Z+6	; 0x06
 3da:	89 23       	and	r24, r25
 3dc:	31 f0       	breq	.+12     	; 0x3ea <main+0x16c>
 3de:	80 e0       	ldi	r24, 0x00	; 0
 3e0:	05 c0       	rjmp	.+10     	; 0x3ec <main+0x16e>
 3e2:	81 e0       	ldi	r24, 0x01	; 1
 3e4:	03 c0       	rjmp	.+6      	; 0x3ec <main+0x16e>
 3e6:	80 e0       	ldi	r24, 0x00	; 0
 3e8:	01 c0       	rjmp	.+2      	; 0x3ec <main+0x16e>
 3ea:	81 e0       	ldi	r24, 0x01	; 1
 3ec:	88 23       	and	r24, r24
 3ee:	49 f0       	breq	.+18     	; 0x402 <__LOCK_REGION_LENGTH__+0x2>
			isEscaping = true;
 3f0:	e0 e0       	ldi	r30, 0x00	; 0
 3f2:	f2 e0       	ldi	r31, 0x02	; 2
 3f4:	81 e0       	ldi	r24, 0x01	; 1
 3f6:	87 87       	std	Z+15, r24	; 0x0f
			escapeStartTimestamp = currentTime;
 3f8:	40 8b       	std	Z+16, r20	; 0x10
 3fa:	51 8b       	std	Z+17, r21	; 0x11
 3fc:	62 8b       	std	Z+18, r22	; 0x12
 3fe:	73 8b       	std	Z+19, r23	; 0x13
 400:	02 c0       	rjmp	.+4      	; 0x406 <__LOCK_REGION_LENGTH__+0x6>
		} else {
			isEscaping = false;
 402:	10 92 0f 02 	sts	0x020F, r1	; 0x80020f <__DATA_REGION_ORIGIN__+0xf>
		 *  - currentTime: [uint32_t] Tiempo actual en ms.
		 */
		
		startMoving(direction, currentTime);
		
		if(isMoving) {
 406:	80 91 0e 02 	lds	r24, 0x020E	; 0x80020e <__DATA_REGION_ORIGIN__+0xe>
 40a:	88 23       	and	r24, r24
 40c:	31 f0       	breq	.+12     	; 0x41a <__LOCK_REGION_LENGTH__+0x1a>
		/* 
		 * ==== setSpeed(bool speed) ====
		 * Establece la velociad de rotación del motor.
		 *  - speed: [uint8_t] Velocidad (PWM) de rotación.
		 */
		*ocrPWM = speed;
 40e:	e0 91 0a 02 	lds	r30, 0x020A	; 0x80020a <__DATA_REGION_ORIGIN__+0xa>
 412:	f0 91 0b 02 	lds	r31, 0x020B	; 0x80020b <__DATA_REGION_ORIGIN__+0xb>
 416:	89 e9       	ldi	r24, 0x99	; 153
 418:	80 83       	st	Z, r24
		
		if(isMoving) {
			setSpeed(153); // 60% PWM
		}
		
		isCalibrating = true;
 41a:	e0 e0       	ldi	r30, 0x00	; 0
 41c:	f2 e0       	ldi	r31, 0x02	; 2
 41e:	81 e0       	ldi	r24, 0x01	; 1
 420:	80 8f       	std	Z+24, r24	; 0x18
		isWaitingAfterCalib = false;
 422:	11 8e       	std	Z+25, r1	; 0x19
		calibDirection = direction;
 424:	86 8f       	std	Z+30, r24	; 0x1e
		stateTimer = currentTime;		
 426:	42 8f       	std	Z+26, r20	; 0x1a
 428:	53 8f       	std	Z+27, r21	; 0x1b
 42a:	64 8f       	std	Z+28, r22	; 0x1c
 42c:	75 8f       	std	Z+29, r23	; 0x1d
		system_millis++;
	}
	
	uint32_t millis() {
		uint32_t time;
		uint8_t oldSREG = SREG;
 42e:	8f b7       	in	r24, 0x3f	; 63
		cli();
 430:	f8 94       	cli
		time = system_millis;
 432:	40 91 47 02 	lds	r20, 0x0247	; 0x800247 <systemTimer>
 436:	50 91 48 02 	lds	r21, 0x0248	; 0x800248 <systemTimer+0x1>
 43a:	60 91 49 02 	lds	r22, 0x0249	; 0x800249 <systemTimer+0x2>
 43e:	70 91 4a 02 	lds	r23, 0x024A	; 0x80024a <systemTimer+0x3>
		SREG = oldSREG;
 442:	8f bf       	out	0x3f, r24	; 63
		sei();
 444:	78 94       	sei
	}
	
	void update(uint32_t currentTime) {
		bool reading = !(*pinReg & mask);
 446:	e3 e3       	ldi	r30, 0x33	; 51
 448:	f2 e0       	ldi	r31, 0x02	; 2
 44a:	a0 81       	ld	r26, Z
 44c:	b1 81       	ldd	r27, Z+1	; 0x01
 44e:	9c 91       	ld	r25, X
 450:	86 81       	ldd	r24, Z+6	; 0x06
 452:	98 23       	and	r25, r24
 454:	81 e0       	ldi	r24, 0x01	; 1
 456:	09 f0       	breq	.+2      	; 0x45a <__LOCK_REGION_LENGTH__+0x5a>
 458:	80 e0       	ldi	r24, 0x00	; 0
		
		if (reading != lastState) {
 45a:	90 91 42 02 	lds	r25, 0x0242	; 0x800242 <sw6+0xf>
 45e:	89 17       	cp	r24, r25
 460:	41 f0       	breq	.+16     	; 0x472 <__LOCK_REGION_LENGTH__+0x72>
			lastChangeTimestamp = currentTime;
 462:	40 93 3a 02 	sts	0x023A, r20	; 0x80023a <sw6+0x7>
 466:	50 93 3b 02 	sts	0x023B, r21	; 0x80023b <sw6+0x8>
 46a:	60 93 3c 02 	sts	0x023C, r22	; 0x80023c <sw6+0x9>
 46e:	70 93 3d 02 	sts	0x023D, r23	; 0x80023d <sw6+0xa>
		}
		
		if ((currentTime - lastChangeTimestamp) > debounceDelay) {
 472:	e3 e3       	ldi	r30, 0x33	; 51
 474:	f2 e0       	ldi	r31, 0x02	; 2
 476:	07 81       	ldd	r16, Z+7	; 0x07
 478:	10 85       	ldd	r17, Z+8	; 0x08
 47a:	21 85       	ldd	r18, Z+9	; 0x09
 47c:	32 85       	ldd	r19, Z+10	; 0x0a
 47e:	6a 01       	movw	r12, r20
 480:	7b 01       	movw	r14, r22
 482:	c0 1a       	sub	r12, r16
 484:	d1 0a       	sbc	r13, r17
 486:	e2 0a       	sbc	r14, r18
 488:	f3 0a       	sbc	r15, r19
 48a:	03 85       	ldd	r16, Z+11	; 0x0b
 48c:	14 85       	ldd	r17, Z+12	; 0x0c
 48e:	25 85       	ldd	r18, Z+13	; 0x0d
 490:	36 85       	ldd	r19, Z+14	; 0x0e
 492:	0c 15       	cp	r16, r12
 494:	1d 05       	cpc	r17, r13
 496:	2e 05       	cpc	r18, r14
 498:	3f 05       	cpc	r19, r15
 49a:	58 f4       	brcc	.+22     	; 0x4b2 <__LOCK_REGION_LENGTH__+0xb2>
			if (reading != stableState) {
 49c:	90 91 43 02 	lds	r25, 0x0243	; 0x800243 <sw6+0x10>
 4a0:	89 17       	cp	r24, r25
 4a2:	39 f0       	breq	.+14     	; 0x4b2 <__LOCK_REGION_LENGTH__+0xb2>
				stableState = reading;
 4a4:	80 93 43 02 	sts	0x0243, r24	; 0x800243 <sw6+0x10>
				if (stableState) {
 4a8:	88 23       	and	r24, r24
 4aa:	19 f0       	breq	.+6      	; 0x4b2 <__LOCK_REGION_LENGTH__+0xb2>
					flagPressed = true;
 4ac:	91 e0       	ldi	r25, 0x01	; 1
 4ae:	90 93 44 02 	sts	0x0244, r25	; 0x800244 <sw6+0x11>
				}
			}
		}
		lastState = reading;
 4b2:	80 93 42 02 	sts	0x0242, r24	; 0x800242 <sw6+0xf>
 4b6:	ef e1       	ldi	r30, 0x1F	; 31
 4b8:	f2 e0       	ldi	r31, 0x02	; 2
 4ba:	a0 81       	ld	r26, Z
 4bc:	b1 81       	ldd	r27, Z+1	; 0x01
 4be:	9c 91       	ld	r25, X
 4c0:	86 81       	ldd	r24, Z+6	; 0x06
 4c2:	98 23       	and	r25, r24
 4c4:	81 e0       	ldi	r24, 0x01	; 1
 4c6:	09 f0       	breq	.+2      	; 0x4ca <__LOCK_REGION_LENGTH__+0xca>
 4c8:	80 e0       	ldi	r24, 0x00	; 0
		 *  - currentTime: [uint32_t] Tiempo actual en ms.
		 */
		
		bool reading = isPressed();

		if (reading != stableState) {
 4ca:	90 91 2e 02 	lds	r25, 0x022E	; 0x80022e <sw3+0xf>
 4ce:	89 17       	cp	r24, r25
 4d0:	29 f1       	breq	.+74     	; 0x51c <__LOCK_REGION_LENGTH__+0x11c>
			if ((currentTime - lastDebounceTimestamp) > debounceDelay) {
 4d2:	ef e1       	ldi	r30, 0x1F	; 31
 4d4:	f2 e0       	ldi	r31, 0x02	; 2
 4d6:	02 85       	ldd	r16, Z+10	; 0x0a
 4d8:	13 85       	ldd	r17, Z+11	; 0x0b
 4da:	24 85       	ldd	r18, Z+12	; 0x0c
 4dc:	35 85       	ldd	r19, Z+13	; 0x0d
 4de:	6a 01       	movw	r12, r20
 4e0:	7b 01       	movw	r14, r22
 4e2:	c0 1a       	sub	r12, r16
 4e4:	d1 0a       	sbc	r13, r17
 4e6:	e2 0a       	sbc	r14, r18
 4e8:	f3 0a       	sbc	r15, r19
 4ea:	00 89       	ldd	r16, Z+16	; 0x10
 4ec:	11 89       	ldd	r17, Z+17	; 0x11
 4ee:	22 89       	ldd	r18, Z+18	; 0x12
 4f0:	33 89       	ldd	r19, Z+19	; 0x13
 4f2:	0c 15       	cp	r16, r12
 4f4:	1d 05       	cpc	r17, r13
 4f6:	2e 05       	cpc	r18, r14
 4f8:	3f 05       	cpc	r19, r15
 4fa:	80 f4       	brcc	.+32     	; 0x51c <__LOCK_REGION_LENGTH__+0x11c>
				stableState = reading;
 4fc:	80 93 2e 02 	sts	0x022E, r24	; 0x80022e <sw3+0xf>
				if (stableState) {
 500:	88 23       	and	r24, r24
 502:	61 f0       	breq	.+24     	; 0x51c <__LOCK_REGION_LENGTH__+0x11c>
					flagPressed = true;
 504:	91 e0       	ldi	r25, 0x01	; 1
 506:	90 87       	std	Z+8, r25	; 0x08
					if (expectedDirection) currentState = SIDE_1;
 508:	91 85       	ldd	r25, Z+9	; 0x09
 50a:	99 23       	and	r25, r25
 50c:	21 f0       	breq	.+8      	; 0x516 <__LOCK_REGION_LENGTH__+0x116>
 50e:	91 e0       	ldi	r25, 0x01	; 1
 510:	90 93 26 02 	sts	0x0226, r25	; 0x800226 <sw3+0x7>
 514:	03 c0       	rjmp	.+6      	; 0x51c <__LOCK_REGION_LENGTH__+0x11c>
					else                   currentState = SIDE_2;
 516:	92 e0       	ldi	r25, 0x02	; 2
 518:	90 93 26 02 	sts	0x0226, r25	; 0x800226 <sw3+0x7>
				}
			}
		}
		if(reading == stableState) {
 51c:	90 91 2e 02 	lds	r25, 0x022E	; 0x80022e <sw3+0xf>
 520:	89 13       	cpse	r24, r25
 522:	02 c0       	rjmp	.+4      	; 0x528 <__LOCK_REGION_LENGTH__+0x128>
				lastReading = reading;		
 524:	80 93 2d 02 	sts	0x022D, r24	; 0x80022d <sw3+0xe>
		 * Revisa colisiones y timeouts.
		 *  - currentTime: [uint32_t] Tiempo actual en ms.
		 */
		
		// 1. Pausa post-calibración
		if (isWaitingAfterCalib) {
 528:	80 91 19 02 	lds	r24, 0x0219	; 0x800219 <__DATA_REGION_ORIGIN__+0x19>
 52c:	88 23       	and	r24, r24
 52e:	59 f1       	breq	.+86     	; 0x586 <__LOCK_REGION_LENGTH__+0x186>
			if ((currentTime - stateTimer) >= 200) {
 530:	80 91 1a 02 	lds	r24, 0x021A	; 0x80021a <__DATA_REGION_ORIGIN__+0x1a>
 534:	90 91 1b 02 	lds	r25, 0x021B	; 0x80021b <__DATA_REGION_ORIGIN__+0x1b>
 538:	a0 91 1c 02 	lds	r26, 0x021C	; 0x80021c <__DATA_REGION_ORIGIN__+0x1c>
 53c:	b0 91 1d 02 	lds	r27, 0x021D	; 0x80021d <__DATA_REGION_ORIGIN__+0x1d>
 540:	6a 01       	movw	r12, r20
 542:	7b 01       	movw	r14, r22
 544:	c8 1a       	sub	r12, r24
 546:	d9 0a       	sbc	r13, r25
 548:	ea 0a       	sbc	r14, r26
 54a:	fb 0a       	sbc	r15, r27
 54c:	d7 01       	movw	r26, r14
 54e:	c6 01       	movw	r24, r12
 550:	88 3c       	cpi	r24, 0xC8	; 200
 552:	91 05       	cpc	r25, r1
 554:	a1 05       	cpc	r26, r1
 556:	b1 05       	cpc	r27, r1
 558:	08 f4       	brcc	.+2      	; 0x55c <__LOCK_REGION_LENGTH__+0x15c>
 55a:	8c c0       	rjmp	.+280    	; 0x674 <__LOCK_REGION_LENGTH__+0x274>
				isWaitingAfterCalib = false;
 55c:	e0 e0       	ldi	r30, 0x00	; 0
 55e:	f2 e0       	ldi	r31, 0x02	; 2
 560:	11 8e       	std	Z+25, r1	; 0x19
				if (eorSwitch != 0) {
 562:	04 84       	ldd	r0, Z+12	; 0x0c
 564:	f5 85       	ldd	r31, Z+13	; 0x0d
 566:	e0 2d       	mov	r30, r0
 568:	30 97       	sbiw	r30, 0x00	; 0
 56a:	09 f4       	brne	.+2      	; 0x56e <__LOCK_REGION_LENGTH__+0x16e>
 56c:	83 c0       	rjmp	.+262    	; 0x674 <__LOCK_REGION_LENGTH__+0x274>
					if (calibDirection)	eorSwitch->forceState(SwitchMotor::SIDE_1);
 56e:	80 91 1e 02 	lds	r24, 0x021E	; 0x80021e <__DATA_REGION_ORIGIN__+0x1e>
 572:	88 23       	and	r24, r24
 574:	21 f0       	breq	.+8      	; 0x57e <__LOCK_REGION_LENGTH__+0x17e>
		/* 
		 * ==== forceState(SwState s) ====
		 * Establece el estado del actuador. Debe ser usado tras la calibración.
		 *  - s: [SwState] Estado actual del actuador.
		 */
		currentState = s;
 576:	81 e0       	ldi	r24, 0x01	; 1
 578:	87 83       	std	Z+7, r24	; 0x07
		flagPressed = false;
 57a:	10 86       	std	Z+8, r1	; 0x08
 57c:	7b c0       	rjmp	.+246    	; 0x674 <__LOCK_REGION_LENGTH__+0x274>
		/* 
		 * ==== forceState(SwState s) ====
		 * Establece el estado del actuador. Debe ser usado tras la calibración.
		 *  - s: [SwState] Estado actual del actuador.
		 */
		currentState = s;
 57e:	82 e0       	ldi	r24, 0x02	; 2
 580:	87 83       	std	Z+7, r24	; 0x07
		flagPressed = false;
 582:	10 86       	std	Z+8, r1	; 0x08
 584:	77 c0       	rjmp	.+238    	; 0x674 <__LOCK_REGION_LENGTH__+0x274>
			}
			return;
		}
		
		// 2. Control del movimiento general
		if (eorSwitch != 0 && isMoving) {
 586:	e0 91 0c 02 	lds	r30, 0x020C	; 0x80020c <__DATA_REGION_ORIGIN__+0xc>
 58a:	f0 91 0d 02 	lds	r31, 0x020D	; 0x80020d <__DATA_REGION_ORIGIN__+0xd>
 58e:	30 97       	sbiw	r30, 0x00	; 0
 590:	09 f4       	brne	.+2      	; 0x594 <__LOCK_REGION_LENGTH__+0x194>
 592:	70 c0       	rjmp	.+224    	; 0x674 <__LOCK_REGION_LENGTH__+0x274>
 594:	80 91 0e 02 	lds	r24, 0x020E	; 0x80020e <__DATA_REGION_ORIGIN__+0xe>
 598:	88 23       	and	r24, r24
 59a:	09 f4       	brne	.+2      	; 0x59e <__LOCK_REGION_LENGTH__+0x19e>
 59c:	6b c0       	rjmp	.+214    	; 0x674 <__LOCK_REGION_LENGTH__+0x274>
			if (isEscaping) {
 59e:	80 91 0f 02 	lds	r24, 0x020F	; 0x80020f <__DATA_REGION_ORIGIN__+0xf>
 5a2:	88 23       	and	r24, r24
 5a4:	89 f1       	breq	.+98     	; 0x608 <__LOCK_REGION_LENGTH__+0x208>
		/* 
		 * ==== isPressed() ====
		 * Devuelve el estado acutal de la seńal del switch.
		 *  - return: [bool] true si el switch está presionado. flase en caso contrario.
		 */
		return !(*pinReg & mask);	// Lógica invertida (Pull-up)
 5a6:	a0 81       	ld	r26, Z
 5a8:	b1 81       	ldd	r27, Z+1	; 0x01
 5aa:	9c 91       	ld	r25, X
 5ac:	86 81       	ldd	r24, Z+6	; 0x06
 5ae:	89 23       	and	r24, r25
				// Ignora colisiones hasta salir de zona de switch
				if (!eorSwitch->isPressed()) {
 5b0:	11 f1       	breq	.+68     	; 0x5f6 <__LOCK_REGION_LENGTH__+0x1f6>
					if((currentTime - escapeStartTimestamp) > escapeDelay) {
 5b2:	a0 e0       	ldi	r26, 0x00	; 0
 5b4:	b2 e0       	ldi	r27, 0x02	; 2
 5b6:	50 96       	adiw	r26, 0x10	; 16
 5b8:	0d 91       	ld	r16, X+
 5ba:	1d 91       	ld	r17, X+
 5bc:	2d 91       	ld	r18, X+
 5be:	3c 91       	ld	r19, X
 5c0:	53 97       	sbiw	r26, 0x13	; 19
 5c2:	6a 01       	movw	r12, r20
 5c4:	7b 01       	movw	r14, r22
 5c6:	c0 1a       	sub	r12, r16
 5c8:	d1 0a       	sbc	r13, r17
 5ca:	e2 0a       	sbc	r14, r18
 5cc:	f3 0a       	sbc	r15, r19
 5ce:	54 96       	adiw	r26, 0x14	; 20
 5d0:	8d 91       	ld	r24, X+
 5d2:	9d 91       	ld	r25, X+
 5d4:	0d 90       	ld	r0, X+
 5d6:	bc 91       	ld	r27, X
 5d8:	a0 2d       	mov	r26, r0
 5da:	8c 15       	cp	r24, r12
 5dc:	9d 05       	cpc	r25, r13
 5de:	ae 05       	cpc	r26, r14
 5e0:	bf 05       	cpc	r27, r15
 5e2:	08 f0       	brcs	.+2      	; 0x5e6 <__LOCK_REGION_LENGTH__+0x1e6>
 5e4:	47 c0       	rjmp	.+142    	; 0x674 <__LOCK_REGION_LENGTH__+0x274>
						isEscaping = false;
 5e6:	10 92 0f 02 	sts	0x020F, r1	; 0x80020f <__DATA_REGION_ORIGIN__+0xf>
		/* 
		 * ==== consumePressedFlag() ====
		 * Comprueba si se pulsó el switch y limpia la bandera.
		 *  - return: [bool] true si hubo un click no procesado, false en caso contrario.
		 */
		if (flagPressed) {
 5ea:	80 85       	ldd	r24, Z+8	; 0x08
 5ec:	88 23       	and	r24, r24
 5ee:	09 f4       	brne	.+2      	; 0x5f2 <__LOCK_REGION_LENGTH__+0x1f2>
 5f0:	41 c0       	rjmp	.+130    	; 0x674 <__LOCK_REGION_LENGTH__+0x274>
			flagPressed = false;
 5f2:	10 86       	std	Z+8, r1	; 0x08
 5f4:	3f c0       	rjmp	.+126    	; 0x674 <__LOCK_REGION_LENGTH__+0x274>
						eorSwitch->consumePressedFlag(); 
					}
				} else {
					escapeStartTimestamp = currentTime;
 5f6:	40 93 10 02 	sts	0x0210, r20	; 0x800210 <__DATA_REGION_ORIGIN__+0x10>
 5fa:	50 93 11 02 	sts	0x0211, r21	; 0x800211 <__DATA_REGION_ORIGIN__+0x11>
 5fe:	60 93 12 02 	sts	0x0212, r22	; 0x800212 <__DATA_REGION_ORIGIN__+0x12>
 602:	70 93 13 02 	sts	0x0213, r23	; 0x800213 <__DATA_REGION_ORIGIN__+0x13>
 606:	36 c0       	rjmp	.+108    	; 0x674 <__LOCK_REGION_LENGTH__+0x274>
		/* 
		 * ==== consumePressedFlag() ====
		 * Comprueba si se pulsó el switch y limpia la bandera.
		 *  - return: [bool] true si hubo un click no procesado, false en caso contrario.
		 */
		if (flagPressed) {
 608:	80 85       	ldd	r24, Z+8	; 0x08
 60a:	81 11       	cpse	r24, r1
			flagPressed = false;
 60c:	10 86       	std	Z+8, r1	; 0x08
				}
			} else {
				// Si se pulsa el switch:
				if(eorSwitch->consumePressedFlag()) {
 60e:	88 23       	and	r24, r24
 610:	89 f0       	breq	.+34     	; 0x634 <__LOCK_REGION_LENGTH__+0x234>
		/* 
		 * ==== setSpeed(bool speed) ====
		 * Establece la velociad de rotación del motor.
		 *  - speed: [uint8_t] Velocidad (PWM) de rotación.
		 */
		*ocrPWM = speed;
 612:	e0 e0       	ldi	r30, 0x00	; 0
 614:	f2 e0       	ldi	r31, 0x02	; 2
 616:	a2 85       	ldd	r26, Z+10	; 0x0a
 618:	b3 85       	ldd	r27, Z+11	; 0x0b
 61a:	1c 92       	st	X, r1
		/* 
		 * ==== stop() ====
		 * Para el motor, y resetea las variables de estado.
		 */
		setSpeed(0);
		isMoving = false;
 61c:	16 86       	std	Z+14, r1	; 0x0e
			} else {
				// Si se pulsa el switch:
				if(eorSwitch->consumePressedFlag()) {
					stop();
				
					if (isCalibrating) {
 61e:	80 8d       	ldd	r24, Z+24	; 0x18
 620:	88 23       	and	r24, r24
 622:	41 f1       	breq	.+80     	; 0x674 <__LOCK_REGION_LENGTH__+0x274>
						isCalibrating = false;
 624:	10 8e       	std	Z+24, r1	; 0x18
						isWaitingAfterCalib = true;
 626:	81 e0       	ldi	r24, 0x01	; 1
 628:	81 8f       	std	Z+25, r24	; 0x19
						stateTimer = currentTime;
 62a:	42 8f       	std	Z+26, r20	; 0x1a
 62c:	53 8f       	std	Z+27, r21	; 0x1b
 62e:	64 8f       	std	Z+28, r22	; 0x1c
 630:	75 8f       	std	Z+29, r23	; 0x1d
 632:	20 c0       	rjmp	.+64     	; 0x674 <__LOCK_REGION_LENGTH__+0x274>
					}
				}
				// Timeout de seguridad para calibración.
				else if (isCalibrating && (currentTime - stateTimer) > 10000) {
 634:	80 91 18 02 	lds	r24, 0x0218	; 0x800218 <__DATA_REGION_ORIGIN__+0x18>
 638:	88 23       	and	r24, r24
 63a:	e1 f0       	breq	.+56     	; 0x674 <__LOCK_REGION_LENGTH__+0x274>
 63c:	80 91 1a 02 	lds	r24, 0x021A	; 0x80021a <__DATA_REGION_ORIGIN__+0x1a>
 640:	90 91 1b 02 	lds	r25, 0x021B	; 0x80021b <__DATA_REGION_ORIGIN__+0x1b>
 644:	a0 91 1c 02 	lds	r26, 0x021C	; 0x80021c <__DATA_REGION_ORIGIN__+0x1c>
 648:	b0 91 1d 02 	lds	r27, 0x021D	; 0x80021d <__DATA_REGION_ORIGIN__+0x1d>
 64c:	7a 01       	movw	r14, r20
 64e:	8b 01       	movw	r16, r22
 650:	e8 1a       	sub	r14, r24
 652:	f9 0a       	sbc	r15, r25
 654:	0a 0b       	sbc	r16, r26
 656:	1b 0b       	sbc	r17, r27
 658:	d8 01       	movw	r26, r16
 65a:	c7 01       	movw	r24, r14
 65c:	81 31       	cpi	r24, 0x11	; 17
 65e:	97 42       	sbci	r25, 0x27	; 39
 660:	a1 05       	cpc	r26, r1
 662:	b1 05       	cpc	r27, r1
 664:	38 f0       	brcs	.+14     	; 0x674 <__LOCK_REGION_LENGTH__+0x274>
		/* 
		 * ==== setSpeed(bool speed) ====
		 * Establece la velociad de rotación del motor.
		 *  - speed: [uint8_t] Velocidad (PWM) de rotación.
		 */
		*ocrPWM = speed;
 666:	e0 e0       	ldi	r30, 0x00	; 0
 668:	f2 e0       	ldi	r31, 0x02	; 2
 66a:	a2 85       	ldd	r26, Z+10	; 0x0a
 66c:	b3 85       	ldd	r27, Z+11	; 0x0b
 66e:	1c 92       	st	X, r1
		/* 
		 * ==== stop() ====
		 * Para el motor, y resetea las variables de estado.
		 */
		setSpeed(0);
		isMoving = false;
 670:	16 86       	std	Z+14, r1	; 0x0e
					}
				}
				// Timeout de seguridad para calibración.
				else if (isCalibrating && (currentTime - stateTimer) > 10000) {
					stop();
					isCalibrating = false;
 672:	10 8e       	std	Z+24, r1	; 0x18
	}
	
	bool consumeClick() {
		if (flagPressed) {
 674:	80 91 44 02 	lds	r24, 0x0244	; 0x800244 <sw6+0x11>
 678:	81 11       	cpse	r24, r1
			flagPressed = false;
 67a:	10 92 44 02 	sts	0x0244, r1	; 0x800244 <sw6+0x11>
        sw6.update(currentMillis);
        sw3.update(currentMillis);
        m3.update(currentMillis);

        // SW6 relanza la calibración manualmente si se quiere repetir
        if (sw6.consumeClick()) {
 67e:	88 23       	and	r24, r24
 680:	09 f4       	brne	.+2      	; 0x684 <__LOCK_REGION_LENGTH__+0x284>
 682:	d5 ce       	rjmp	.-598    	; 0x42e <__LOCK_REGION_LENGTH__+0x2e>
		 *  - direction: [bool] Dirección de giro.
		 *  - currentTime: [uint32_t] Tiempo actual en ms.
		 */
		bool startFromSide = false;
	
		if (eorSwitch != 0) {
 684:	e0 91 0c 02 	lds	r30, 0x020C	; 0x80020c <__DATA_REGION_ORIGIN__+0xc>
 688:	f0 91 0d 02 	lds	r31, 0x020D	; 0x80020d <__DATA_REGION_ORIGIN__+0xd>
 68c:	30 97       	sbiw	r30, 0x00	; 0
 68e:	c9 f0       	breq	.+50     	; 0x6c2 <__LOCK_REGION_LENGTH__+0x2c2>
		/* 
		 * ==== getState() ====
		 * Devuelve el estado acutal del actuador tras el filtrado.
		 *  - return: [SwState] Estado relativo en el que está el actuador.
		 */
		return currentState;
 690:	97 81       	ldd	r25, Z+7	; 0x07
			SwitchMotor::SwState state = eorSwitch->getState();
			
			// No moverse si ya está en posición de destino.
			if ((direction && state == SwitchMotor::SIDE_1) ||
 692:	91 30       	cpi	r25, 0x01	; 1
 694:	39 f4       	brne	.+14     	; 0x6a4 <__LOCK_REGION_LENGTH__+0x2a4>
		/* 
		 * ==== setSpeed(bool speed) ====
		 * Establece la velociad de rotación del motor.
		 *  - speed: [uint8_t] Velocidad (PWM) de rotación.
		 */
		*ocrPWM = speed;
 696:	e0 e0       	ldi	r30, 0x00	; 0
 698:	f2 e0       	ldi	r31, 0x02	; 2
 69a:	a2 85       	ldd	r26, Z+10	; 0x0a
 69c:	b3 85       	ldd	r27, Z+11	; 0x0b
 69e:	1c 92       	st	X, r1
		/* 
		 * ==== stop() ====
		 * Para el motor, y resetea las variables de estado.
		 */
		setSpeed(0);
		isMoving = false;
 6a0:	16 86       	std	Z+14, r1	; 0x0e
 6a2:	3c c0       	rjmp	.+120    	; 0x71c <__LOCK_REGION_LENGTH__+0x31c>
			if ((direction && state == SwitchMotor::SIDE_1) ||
				(!direction && state == SwitchMotor::SIDE_2)) {
				stop();
				return;
			}
			if (state != SwitchMotor::MOVING) {
 6a4:	91 11       	cpse	r25, r1
 6a6:	02 c0       	rjmp	.+4      	; 0x6ac <__LOCK_REGION_LENGTH__+0x2ac>
		 * ==== startMoving(bool direction, uint32_t currentTime) ====
		 * Ordena el arranque del motor en una dirección determinada.
		 *  - direction: [bool] Dirección de giro.
		 *  - currentTime: [uint32_t] Tiempo actual en ms.
		 */
		bool startFromSide = false;
 6a8:	20 e0       	ldi	r18, 0x00	; 0
 6aa:	01 c0       	rjmp	.+2      	; 0x6ae <__LOCK_REGION_LENGTH__+0x2ae>
				(!direction && state == SwitchMotor::SIDE_2)) {
				stop();
				return;
			}
			if (state != SwitchMotor::MOVING) {
				startFromSide = true;
 6ac:	21 e0       	ldi	r18, 0x01	; 1
		/* 
		 * ==== forceState(SwState s) ====
		 * Establece el estado del actuador. Debe ser usado tras la calibración.
		 *  - s: [SwState] Estado actual del actuador.
		 */
		currentState = s;
 6ae:	17 82       	std	Z+7, r1	; 0x07
		flagPressed = false;
 6b0:	10 86       	std	Z+8, r1	; 0x08
			}
			
			// Prepara el switch para escuchar la colisión.
			eorSwitch->forceState(SwitchMotor::MOVING);
			eorSwitch->setExpectedDirection(direction);
 6b2:	e0 91 0c 02 	lds	r30, 0x020C	; 0x80020c <__DATA_REGION_ORIGIN__+0xc>
 6b6:	f0 91 0d 02 	lds	r31, 0x020D	; 0x80020d <__DATA_REGION_ORIGIN__+0xd>
		/* 
		 * ==== setExpectedDirection(bool direction) ====
		 * Establece la dirección a la que se mueve el motor.
		 *  - direction: [bool] true si la dirección es hacia SIDE_1, false en caso contrario.
		 */
		expectedDirection = direction;
 6ba:	91 e0       	ldi	r25, 0x01	; 1
 6bc:	91 87       	std	Z+9, r25	; 0x09
		flagPressed = false;
 6be:	10 86       	std	Z+8, r1	; 0x08
 6c0:	01 c0       	rjmp	.+2      	; 0x6c4 <__LOCK_REGION_LENGTH__+0x2c4>
		 * ==== startMoving(bool direction, uint32_t currentTime) ====
		 * Ordena el arranque del motor en una dirección determinada.
		 *  - direction: [bool] Dirección de giro.
		 *  - currentTime: [uint32_t] Tiempo actual en ms.
		 */
		bool startFromSide = false;
 6c2:	20 e0       	ldi	r18, 0x00	; 0
		/* 
		 * ==== setDirection(bool forward) ====
		 * Establece la dirección de giro del motor.
		 *  - forward: [bool] Dirección de giro.
		 */
		if (forward)	*portDIR |= maskDIR;
 6c4:	e0 e0       	ldi	r30, 0x00	; 0
 6c6:	f2 e0       	ldi	r31, 0x02	; 2
 6c8:	a0 81       	ld	r26, Z
 6ca:	b1 81       	ldd	r27, Z+1	; 0x01
 6cc:	3c 91       	ld	r19, X
 6ce:	94 81       	ldd	r25, Z+4	; 0x04
 6d0:	93 2b       	or	r25, r19
 6d2:	9c 93       	st	X, r25
		/* 
		 * ==== setSpeed(bool speed) ====
		 * Establece la velociad de rotación del motor.
		 *  - speed: [uint8_t] Velocidad (PWM) de rotación.
		 */
		*ocrPWM = speed;
 6d4:	a2 85       	ldd	r26, Z+10	; 0x0a
 6d6:	b3 85       	ldd	r27, Z+11	; 0x0b
 6d8:	9c ec       	ldi	r25, 0xCC	; 204
 6da:	9c 93       	st	X, r25
			eorSwitch->setExpectedDirection(direction);
		}
		
		setDirection(direction);
		setSpeed(204); // 80% PWM
		isMoving = true;
 6dc:	91 e0       	ldi	r25, 0x01	; 1
 6de:	96 87       	std	Z+14, r25	; 0x0e
		
		// Si arranca en sensor, activar escape.
		if (startFromSide || (eorSwitch != 0 && eorSwitch->isPressed())) {	
 6e0:	21 11       	cpse	r18, r1
 6e2:	0f c0       	rjmp	.+30     	; 0x702 <__LOCK_REGION_LENGTH__+0x302>
 6e4:	e0 91 0c 02 	lds	r30, 0x020C	; 0x80020c <__DATA_REGION_ORIGIN__+0xc>
 6e8:	f0 91 0d 02 	lds	r31, 0x020D	; 0x80020d <__DATA_REGION_ORIGIN__+0xd>
 6ec:	30 97       	sbiw	r30, 0x00	; 0
 6ee:	41 f0       	breq	.+16     	; 0x700 <__LOCK_REGION_LENGTH__+0x300>
		/* 
		 * ==== isPressed() ====
		 * Devuelve el estado acutal de la seńal del switch.
		 *  - return: [bool] true si el switch está presionado. flase en caso contrario.
		 */
		return !(*pinReg & mask);	// Lógica invertida (Pull-up)
 6f0:	a0 81       	ld	r26, Z
 6f2:	b1 81       	ldd	r27, Z+1	; 0x01
 6f4:	2c 91       	ld	r18, X
 6f6:	96 81       	ldd	r25, Z+6	; 0x06
 6f8:	92 23       	and	r25, r18
 6fa:	19 f0       	breq	.+6      	; 0x702 <__LOCK_REGION_LENGTH__+0x302>
 6fc:	80 e0       	ldi	r24, 0x00	; 0
 6fe:	01 c0       	rjmp	.+2      	; 0x702 <__LOCK_REGION_LENGTH__+0x302>
 700:	80 e0       	ldi	r24, 0x00	; 0
 702:	88 23       	and	r24, r24
 704:	49 f0       	breq	.+18     	; 0x718 <__LOCK_REGION_LENGTH__+0x318>
			isEscaping = true;
 706:	e0 e0       	ldi	r30, 0x00	; 0
 708:	f2 e0       	ldi	r31, 0x02	; 2
 70a:	81 e0       	ldi	r24, 0x01	; 1
 70c:	87 87       	std	Z+15, r24	; 0x0f
			escapeStartTimestamp = currentTime;
 70e:	40 8b       	std	Z+16, r20	; 0x10
 710:	51 8b       	std	Z+17, r21	; 0x11
 712:	62 8b       	std	Z+18, r22	; 0x12
 714:	73 8b       	std	Z+19, r23	; 0x13
 716:	02 c0       	rjmp	.+4      	; 0x71c <__LOCK_REGION_LENGTH__+0x31c>
		} else {
			isEscaping = false;
 718:	10 92 0f 02 	sts	0x020F, r1	; 0x80020f <__DATA_REGION_ORIGIN__+0xf>
		 *  - currentTime: [uint32_t] Tiempo actual en ms.
		 */
		
		startMoving(direction, currentTime);
		
		if(isMoving) {
 71c:	80 91 0e 02 	lds	r24, 0x020E	; 0x80020e <__DATA_REGION_ORIGIN__+0xe>
 720:	88 23       	and	r24, r24
 722:	31 f0       	breq	.+12     	; 0x730 <__LOCK_REGION_LENGTH__+0x330>
		/* 
		 * ==== setSpeed(bool speed) ====
		 * Establece la velociad de rotación del motor.
		 *  - speed: [uint8_t] Velocidad (PWM) de rotación.
		 */
		*ocrPWM = speed;
 724:	e0 91 0a 02 	lds	r30, 0x020A	; 0x80020a <__DATA_REGION_ORIGIN__+0xa>
 728:	f0 91 0b 02 	lds	r31, 0x020B	; 0x80020b <__DATA_REGION_ORIGIN__+0xb>
 72c:	89 e9       	ldi	r24, 0x99	; 153
 72e:	80 83       	st	Z, r24
		
		if(isMoving) {
			setSpeed(153); // 60% PWM
		}
		
		isCalibrating = true;
 730:	e0 e0       	ldi	r30, 0x00	; 0
 732:	f2 e0       	ldi	r31, 0x02	; 2
 734:	81 e0       	ldi	r24, 0x01	; 1
 736:	80 8f       	std	Z+24, r24	; 0x18
		isWaitingAfterCalib = false;
 738:	11 8e       	std	Z+25, r1	; 0x19
		calibDirection = direction;
 73a:	86 8f       	std	Z+30, r24	; 0x1e
		stateTimer = currentTime;		
 73c:	42 8f       	std	Z+26, r20	; 0x1a
 73e:	53 8f       	std	Z+27, r21	; 0x1b
 740:	64 8f       	std	Z+28, r22	; 0x1c
 742:	75 8f       	std	Z+29, r23	; 0x1d
 744:	74 ce       	rjmp	.-792    	; 0x42e <__LOCK_REGION_LENGTH__+0x2e>

00000746 <_GLOBAL__sub_I_systemTimer>:
            m3.calibrate(true, currentMillis);
        }
    }

    return 0;
 746:	6f ef       	ldi	r22, 0xFF	; 255
 748:	7f ef       	ldi	r23, 0xFF	; 255
 74a:	81 e0       	ldi	r24, 0x01	; 1
 74c:	90 e0       	ldi	r25, 0x00	; 0
 74e:	0e 94 92 00 	call	0x124	; 0x124 <_Z41__static_initialization_and_destruction_0ii>
 752:	08 95       	ret

00000754 <__tablejump2__>:
 754:	ee 0f       	add	r30, r30
 756:	ff 1f       	adc	r31, r31
 758:	05 90       	lpm	r0, Z+
 75a:	f4 91       	lpm	r31, Z
 75c:	e0 2d       	mov	r30, r0
 75e:	09 94       	ijmp

00000760 <_exit>:
 760:	f8 94       	cli

00000762 <__stop_program>:
 762:	ff cf       	rjmp	.-2      	; 0x762 <__stop_program>
