
timer_class.elf:     file format elf32-avr

Sections:
Idx Name          Size      VMA       LMA       File off  Algn
  0 .data         0000002e  00800200  00000582  00000616  2**0
                  CONTENTS, ALLOC, LOAD, DATA
  1 .text         00000582  00000000  00000000  00000094  2**1
                  CONTENTS, ALLOC, LOAD, READONLY, CODE
  2 .bss          0000004f  0080022e  0080022e  00000644  2**0
                  ALLOC
  3 .comment      00000030  00000000  00000000  00000644  2**0
                  CONTENTS, READONLY
  4 .note.gnu.avr.deviceinfo 0000003c  00000000  00000000  00000674  2**2
                  CONTENTS, READONLY
  5 .debug_aranges 00000038  00000000  00000000  000006b0  2**0
                  CONTENTS, READONLY, DEBUGGING
  6 .debug_info   000016cc  00000000  00000000  000006e8  2**0
                  CONTENTS, READONLY, DEBUGGING
  7 .debug_abbrev 00000d65  00000000  00000000  00001db4  2**0
                  CONTENTS, READONLY, DEBUGGING
  8 .debug_line   000004d6  00000000  00000000  00002b19  2**0
                  CONTENTS, READONLY, DEBUGGING
  9 .debug_frame  0000007c  00000000  00000000  00002ff0  2**2
                  CONTENTS, READONLY, DEBUGGING
 10 .debug_str    000008ec  00000000  00000000  0000306c  2**0
                  CONTENTS, READONLY, DEBUGGING
 11 .debug_loc    000002e5  00000000  00000000  00003958  2**0
                  CONTENTS, READONLY, DEBUGGING
 12 .debug_ranges 00000028  00000000  00000000  00003c3d  2**0
                  CONTENTS, READONLY, DEBUGGING

Disassembly of section .text:

00000000 <__vectors>:
   0:	0c 94 73 00 	jmp	0xe6	; 0xe6 <__ctors_end>
   4:	0c 94 9b 00 	jmp	0x136	; 0x136 <__bad_interrupt>
   8:	0c 94 9b 00 	jmp	0x136	; 0x136 <__bad_interrupt>
   c:	0c 94 9b 00 	jmp	0x136	; 0x136 <__bad_interrupt>
  10:	0c 94 9b 00 	jmp	0x136	; 0x136 <__bad_interrupt>
  14:	0c 94 9b 00 	jmp	0x136	; 0x136 <__bad_interrupt>
  18:	0c 94 9b 00 	jmp	0x136	; 0x136 <__bad_interrupt>
  1c:	0c 94 9b 00 	jmp	0x136	; 0x136 <__bad_interrupt>
  20:	0c 94 9b 00 	jmp	0x136	; 0x136 <__bad_interrupt>
  24:	0c 94 9b 00 	jmp	0x136	; 0x136 <__bad_interrupt>
  28:	0c 94 9b 00 	jmp	0x136	; 0x136 <__bad_interrupt>
  2c:	0c 94 9b 00 	jmp	0x136	; 0x136 <__bad_interrupt>
  30:	0c 94 9b 00 	jmp	0x136	; 0x136 <__bad_interrupt>
  34:	0c 94 9b 00 	jmp	0x136	; 0x136 <__bad_interrupt>
  38:	0c 94 9b 00 	jmp	0x136	; 0x136 <__bad_interrupt>
  3c:	0c 94 9b 00 	jmp	0x136	; 0x136 <__bad_interrupt>
  40:	0c 94 9b 00 	jmp	0x136	; 0x136 <__bad_interrupt>
  44:	0c 94 9b 00 	jmp	0x136	; 0x136 <__bad_interrupt>
  48:	0c 94 9b 00 	jmp	0x136	; 0x136 <__bad_interrupt>
  4c:	0c 94 9b 00 	jmp	0x136	; 0x136 <__bad_interrupt>
  50:	0c 94 9b 00 	jmp	0x136	; 0x136 <__bad_interrupt>
  54:	0c 94 9b 00 	jmp	0x136	; 0x136 <__bad_interrupt>
  58:	0c 94 9b 00 	jmp	0x136	; 0x136 <__bad_interrupt>
  5c:	0c 94 9b 00 	jmp	0x136	; 0x136 <__bad_interrupt>
  60:	0c 94 9b 00 	jmp	0x136	; 0x136 <__bad_interrupt>
  64:	0c 94 9b 00 	jmp	0x136	; 0x136 <__bad_interrupt>
  68:	0c 94 9b 00 	jmp	0x136	; 0x136 <__bad_interrupt>
  6c:	0c 94 9b 00 	jmp	0x136	; 0x136 <__bad_interrupt>
  70:	0c 94 9b 00 	jmp	0x136	; 0x136 <__bad_interrupt>
  74:	0c 94 9b 00 	jmp	0x136	; 0x136 <__bad_interrupt>
  78:	0c 94 9b 00 	jmp	0x136	; 0x136 <__bad_interrupt>
  7c:	0c 94 9b 00 	jmp	0x136	; 0x136 <__bad_interrupt>
  80:	0c 94 9b 00 	jmp	0x136	; 0x136 <__bad_interrupt>
  84:	0c 94 9b 00 	jmp	0x136	; 0x136 <__bad_interrupt>
  88:	0c 94 9b 00 	jmp	0x136	; 0x136 <__bad_interrupt>
  8c:	0c 94 9b 00 	jmp	0x136	; 0x136 <__bad_interrupt>
  90:	0c 94 9b 00 	jmp	0x136	; 0x136 <__bad_interrupt>
  94:	0c 94 9b 00 	jmp	0x136	; 0x136 <__bad_interrupt>
  98:	0c 94 9b 00 	jmp	0x136	; 0x136 <__bad_interrupt>
  9c:	0c 94 9b 00 	jmp	0x136	; 0x136 <__bad_interrupt>
  a0:	0c 94 9b 00 	jmp	0x136	; 0x136 <__bad_interrupt>
  a4:	0c 94 9b 00 	jmp	0x136	; 0x136 <__bad_interrupt>
  a8:	0c 94 10 01 	jmp	0x220	; 0x220 <__vector_42>
  ac:	0c 94 9b 00 	jmp	0x136	; 0x136 <__bad_interrupt>
  b0:	0c 94 9b 00 	jmp	0x136	; 0x136 <__bad_interrupt>
  b4:	0c 94 9b 00 	jmp	0x136	; 0x136 <__bad_interrupt>
  b8:	0c 94 9b 00 	jmp	0x136	; 0x136 <__bad_interrupt>
  bc:	0c 94 9b 00 	jmp	0x136	; 0x136 <__bad_interrupt>
  c0:	0c 94 9b 00 	jmp	0x136	; 0x136 <__bad_interrupt>
  c4:	0c 94 9b 00 	jmp	0x136	; 0x136 <__bad_interrupt>
  c8:	0c 94 9b 00 	jmp	0x136	; 0x136 <__bad_interrupt>
  cc:	0c 94 9b 00 	jmp	0x136	; 0x136 <__bad_interrupt>
  d0:	0c 94 9b 00 	jmp	0x136	; 0x136 <__bad_interrupt>
  d4:	0c 94 9b 00 	jmp	0x136	; 0x136 <__bad_interrupt>
  d8:	0c 94 9b 00 	jmp	0x136	; 0x136 <__bad_interrupt>
  dc:	0c 94 9b 00 	jmp	0x136	; 0x136 <__bad_interrupt>
  e0:	0c 94 9b 00 	jmp	0x136	; 0x136 <__bad_interrupt>

000000e4 <__ctors_start>:
  e4:	b2 02       	muls	r27, r18

000000e6 <__ctors_end>:
  e6:	11 24       	eor	r1, r1
  e8:	1f be       	out	0x3f, r1	; 63
  ea:	cf ef       	ldi	r28, 0xFF	; 255
  ec:	d1 e2       	ldi	r29, 0x21	; 33
  ee:	de bf       	out	0x3e, r29	; 62
  f0:	cd bf       	out	0x3d, r28	; 61

000000f2 <__do_copy_data>:
  f2:	12 e0       	ldi	r17, 0x02	; 2
  f4:	a0 e0       	ldi	r26, 0x00	; 0
  f6:	b2 e0       	ldi	r27, 0x02	; 2
  f8:	e2 e8       	ldi	r30, 0x82	; 130
  fa:	f5 e0       	ldi	r31, 0x05	; 5
  fc:	02 c0       	rjmp	.+4      	; 0x102 <__do_copy_data+0x10>
  fe:	05 90       	lpm	r0, Z+
 100:	0d 92       	st	X+, r0
 102:	ae 32       	cpi	r26, 0x2E	; 46
 104:	b1 07       	cpc	r27, r17
 106:	d9 f7       	brne	.-10     	; 0xfe <__do_copy_data+0xc>

00000108 <__do_clear_bss>:
 108:	22 e0       	ldi	r18, 0x02	; 2
 10a:	ae e2       	ldi	r26, 0x2E	; 46
 10c:	b2 e0       	ldi	r27, 0x02	; 2
 10e:	01 c0       	rjmp	.+2      	; 0x112 <.do_clear_bss_start>

00000110 <.do_clear_bss_loop>:
 110:	1d 92       	st	X+, r1

00000112 <.do_clear_bss_start>:
 112:	ad 37       	cpi	r26, 0x7D	; 125
 114:	b2 07       	cpc	r27, r18
 116:	e1 f7       	brne	.-8      	; 0x110 <.do_clear_bss_loop>

00000118 <__do_global_ctors>:
 118:	10 e0       	ldi	r17, 0x00	; 0
 11a:	c3 e7       	ldi	r28, 0x73	; 115
 11c:	d0 e0       	ldi	r29, 0x00	; 0
 11e:	04 c0       	rjmp	.+8      	; 0x128 <__do_global_ctors+0x10>
 120:	21 97       	sbiw	r28, 0x01	; 1
 122:	fe 01       	movw	r30, r28
 124:	0e 94 b9 02 	call	0x572	; 0x572 <__tablejump2__>
 128:	c2 37       	cpi	r28, 0x72	; 114
 12a:	d1 07       	cpc	r29, r17
 12c:	c9 f7       	brne	.-14     	; 0x120 <__do_global_ctors+0x8>
 12e:	0e 94 37 01 	call	0x26e	; 0x26e <main>
 132:	0c 94 bf 02 	jmp	0x57e	; 0x57e <_exit>

00000136 <__bad_interrupt>:
 136:	0c 94 00 00 	jmp	0	; 0x0 <__vectors>

0000013a <_Z41__static_initialization_and_destruction_0ii>:
		display.update(currentTime, endGame);
		led.update(currentTime, endGame);
	
	}
	
 13a:	01 97       	sbiw	r24, 0x01	; 1
 13c:	09 f0       	breq	.+2      	; 0x140 <_Z41__static_initialization_and_destruction_0ii+0x6>
 13e:	6f c0       	rjmp	.+222    	; 0x21e <_Z41__static_initialization_and_destruction_0ii+0xe4>
 140:	6f 3f       	cpi	r22, 0xFF	; 255
 142:	7f 4f       	sbci	r23, 0xFF	; 255
 144:	09 f0       	breq	.+2      	; 0x148 <_Z41__static_initialization_and_destruction_0ii+0xe>
 146:	6b c0       	rjmp	.+214    	; 0x21e <_Z41__static_initialization_and_destruction_0ii+0xe4>
		uint8_t mData[7],
		volatile uint8_t* pDS,
		volatile uint8_t* dDS,
		uint8_t mDS
		
	) {
 148:	8a e0       	ldi	r24, 0x0A	; 10
 14a:	e3 e2       	ldi	r30, 0x23	; 35
 14c:	f2 e0       	ldi	r31, 0x02	; 2
 14e:	ab e6       	ldi	r26, 0x6B	; 107
 150:	b2 e0       	ldi	r27, 0x02	; 2
 152:	01 90       	ld	r0, Z+
 154:	0d 92       	st	X+, r0
 156:	8a 95       	dec	r24
 158:	e1 f7       	brne	.-8      	; 0x152 <_Z41__static_initialization_and_destruction_0ii+0x18>
 15a:	85 e0       	ldi	r24, 0x05	; 5
 15c:	90 e0       	ldi	r25, 0x00	; 0
 15e:	a0 e0       	ldi	r26, 0x00	; 0
 160:	b0 e0       	ldi	r27, 0x00	; 0
 162:	80 93 79 02 	sts	0x0279, r24	; 0x800279 <display+0x38>
 166:	90 93 7a 02 	sts	0x027A, r25	; 0x80027a <display+0x39>
 16a:	a0 93 7b 02 	sts	0x027B, r26	; 0x80027b <display+0x3a>
 16e:	b0 93 7c 02 	sts	0x027C, r27	; 0x80027c <display+0x3b>
		for (uint8_t i = 0; i<7; i++) {
 172:	40 e0       	ldi	r20, 0x00	; 0
 174:	47 30       	cpi	r20, 0x07	; 7
 176:	30 f5       	brcc	.+76     	; 0x1c4 <_Z41__static_initialization_and_destruction_0ii+0x8a>
			portData[i] = pData[i];
 178:	84 2f       	mov	r24, r20
 17a:	90 e0       	ldi	r25, 0x00	; 0
 17c:	9c 01       	movw	r18, r24
 17e:	22 0f       	add	r18, r18
 180:	33 1f       	adc	r19, r19
 182:	f9 01       	movw	r30, r18
 184:	eb 5e       	subi	r30, 0xEB	; 235
 186:	fd 4f       	sbci	r31, 0xFD	; 253
 188:	60 81       	ld	r22, Z
 18a:	71 81       	ldd	r23, Z+1	; 0x01
 18c:	f9 01       	movw	r30, r18
 18e:	ef 5b       	subi	r30, 0xBF	; 191
 190:	fd 4f       	sbci	r31, 0xFD	; 253
 192:	71 83       	std	Z+1, r23	; 0x01
 194:	60 83       	st	Z, r22
			ddrData[i] = dData[i];
 196:	f9 01       	movw	r30, r18
 198:	e9 5f       	subi	r30, 0xF9	; 249
 19a:	fd 4f       	sbci	r31, 0xFD	; 253
 19c:	20 81       	ld	r18, Z
 19e:	31 81       	ldd	r19, Z+1	; 0x01
 1a0:	fc 01       	movw	r30, r24
 1a2:	37 96       	adiw	r30, 0x07	; 7
 1a4:	ee 0f       	add	r30, r30
 1a6:	ff 1f       	adc	r31, r31
 1a8:	ef 5b       	subi	r30, 0xBF	; 191
 1aa:	fd 4f       	sbci	r31, 0xFD	; 253
 1ac:	31 83       	std	Z+1, r19	; 0x01
 1ae:	20 83       	st	Z, r18
			maskData[i] = mData[i];
 1b0:	fc 01       	movw	r30, r24
 1b2:	e0 50       	subi	r30, 0x00	; 0
 1b4:	fe 4f       	sbci	r31, 0xFE	; 254
 1b6:	20 81       	ld	r18, Z
 1b8:	fc 01       	movw	r30, r24
 1ba:	ef 5b       	subi	r30, 0xBF	; 191
 1bc:	fd 4f       	sbci	r31, 0xFD	; 253
 1be:	24 8f       	std	Z+28, r18	; 0x1c
		volatile uint8_t* pDS,
		volatile uint8_t* dDS,
		uint8_t mDS
		
	) {
		for (uint8_t i = 0; i<7; i++) {
 1c0:	4f 5f       	subi	r20, 0xFF	; 255
 1c2:	d8 cf       	rjmp	.-80     	; 0x174 <_Z41__static_initialization_and_destruction_0ii+0x3a>
			portData[i] = pData[i];
			ddrData[i] = dData[i];
			maskData[i] = mData[i];
		}
		
		portDS = pDS;
 1c4:	e1 e4       	ldi	r30, 0x41	; 65
 1c6:	f2 e0       	ldi	r31, 0x02	; 2
 1c8:	8b e0       	ldi	r24, 0x0B	; 11
 1ca:	91 e0       	ldi	r25, 0x01	; 1
 1cc:	94 a3       	std	Z+36, r25	; 0x24
 1ce:	83 a3       	std	Z+35, r24	; 0x23
		ddrDS = dDS;
 1d0:	8a e0       	ldi	r24, 0x0A	; 10
 1d2:	91 e0       	ldi	r25, 0x01	; 1
 1d4:	96 a3       	std	Z+38, r25	; 0x26
 1d6:	85 a3       	std	Z+37, r24	; 0x25
		maskDS = mDS;
 1d8:	80 e8       	ldi	r24, 0x80	; 128
 1da:	87 a3       	std	Z+39, r24	; 0x27
		
		currentScore = 0;
 1dc:	10 a6       	std	Z+40, r1	; 0x28
		showTens = false;
 1de:	11 a6       	std	Z+41, r1	; 0x29
	uint32_t lastTime;
	uint32_t blinkInterval;
	
	public:
	Led(volatile uint8_t* portR, volatile uint8_t* ddrR, uint8_t m) {
		portReg	= portR;
 1e0:	e4 e3       	ldi	r30, 0x34	; 52
 1e2:	f2 e0       	ldi	r31, 0x02	; 2
 1e4:	2b e2       	ldi	r18, 0x2B	; 43
 1e6:	30 e0       	ldi	r19, 0x00	; 0
 1e8:	31 83       	std	Z+1, r19	; 0x01
 1ea:	20 83       	st	Z, r18
		ddrReg	= ddrR;
 1ec:	2a e2       	ldi	r18, 0x2A	; 42
 1ee:	30 e0       	ldi	r19, 0x00	; 0
 1f0:	33 83       	std	Z+3, r19	; 0x03
 1f2:	22 83       	std	Z+2, r18	; 0x02
		mask	= m;
 1f4:	84 83       	std	Z+4, r24	; 0x04
		
		lastTime = 0;
 1f6:	15 82       	std	Z+5, r1	; 0x05
 1f8:	16 82       	std	Z+6, r1	; 0x06
 1fa:	17 82       	std	Z+7, r1	; 0x07
 1fc:	10 86       	std	Z+8, r1	; 0x08
		blinkInterval = 100; // 100ms
 1fe:	84 e6       	ldi	r24, 0x64	; 100
 200:	90 e0       	ldi	r25, 0x00	; 0
 202:	a0 e0       	ldi	r26, 0x00	; 0
 204:	b0 e0       	ldi	r27, 0x00	; 0
 206:	81 87       	std	Z+9, r24	; 0x09
 208:	92 87       	std	Z+10, r25	; 0x0a
 20a:	a3 87       	std	Z+11, r26	; 0x0b
 20c:	b4 87       	std	Z+12, r27	; 0x0c
	private:
	volatile uint32_t system_millis;
	
	public:
	Timer() {
		system_millis = 0;
 20e:	10 92 30 02 	sts	0x0230, r1	; 0x800230 <systemTimer>
 212:	10 92 31 02 	sts	0x0231, r1	; 0x800231 <systemTimer+0x1>
 216:	10 92 32 02 	sts	0x0232, r1	; 0x800232 <systemTimer+0x2>
 21a:	10 92 33 02 	sts	0x0233, r1	; 0x800233 <systemTimer+0x3>
 21e:	08 95       	ret

00000220 <__vector_42>:
// Timer
Timer systemTimer;
Timer* timerPtr = 0;

// Timer 4
ISR(TIMER4_COMPA_vect) {
 220:	1f 92       	push	r1
 222:	0f 92       	push	r0
 224:	0f b6       	in	r0, 0x3f	; 63
 226:	0f 92       	push	r0
 228:	11 24       	eor	r1, r1
 22a:	8f 93       	push	r24
 22c:	9f 93       	push	r25
 22e:	af 93       	push	r26
 230:	bf 93       	push	r27
 232:	ef 93       	push	r30
 234:	ff 93       	push	r31
	if (timerPtr) {
 236:	e0 91 2e 02 	lds	r30, 0x022E	; 0x80022e <__data_end>
 23a:	f0 91 2f 02 	lds	r31, 0x022F	; 0x80022f <__data_end+0x1>
 23e:	30 97       	sbiw	r30, 0x00	; 0
 240:	59 f0       	breq	.+22     	; 0x258 <__vector_42+0x38>
		OCR4A = 124;
		TIMSK4 |= (1 << OCIE4A);
	}
	
	void addTick() {
		system_millis++;
 242:	80 81       	ld	r24, Z
 244:	91 81       	ldd	r25, Z+1	; 0x01
 246:	a2 81       	ldd	r26, Z+2	; 0x02
 248:	b3 81       	ldd	r27, Z+3	; 0x03
 24a:	01 96       	adiw	r24, 0x01	; 1
 24c:	a1 1d       	adc	r26, r1
 24e:	b1 1d       	adc	r27, r1
 250:	80 83       	st	Z, r24
 252:	91 83       	std	Z+1, r25	; 0x01
 254:	a2 83       	std	Z+2, r26	; 0x02
 256:	b3 83       	std	Z+3, r27	; 0x03
		timerPtr->addTick();
	}
}
 258:	ff 91       	pop	r31
 25a:	ef 91       	pop	r30
 25c:	bf 91       	pop	r27
 25e:	af 91       	pop	r26
 260:	9f 91       	pop	r25
 262:	8f 91       	pop	r24
 264:	0f 90       	pop	r0
 266:	0f be       	out	0x3f, r0	; 63
 268:	0f 90       	pop	r0
 26a:	1f 90       	pop	r1
 26c:	18 95       	reti

0000026e <main>:

int main() {
	timerPtr = &systemTimer;
 26e:	80 e3       	ldi	r24, 0x30	; 48
 270:	92 e0       	ldi	r25, 0x02	; 2
 272:	90 93 2f 02 	sts	0x022F, r25	; 0x80022f <__data_end+0x1>
 276:	80 93 2e 02 	sts	0x022E, r24	; 0x80022e <__data_end>

	cli();
 27a:	f8 94       	cli
	}
	
	void init() {
		for (uint8_t i = 0; i<7; i++) {
 27c:	20 e0       	ldi	r18, 0x00	; 0
 27e:	27 30       	cpi	r18, 0x07	; 7
 280:	20 f5       	brcc	.+72     	; 0x2ca <main+0x5c>
			*ddrData[i] |= maskData[i];
 282:	82 2f       	mov	r24, r18
 284:	90 e0       	ldi	r25, 0x00	; 0
 286:	fc 01       	movw	r30, r24
 288:	37 96       	adiw	r30, 0x07	; 7
 28a:	ee 0f       	add	r30, r30
 28c:	ff 1f       	adc	r31, r31
 28e:	ef 5b       	subi	r30, 0xBF	; 191
 290:	fd 4f       	sbci	r31, 0xFD	; 253
 292:	01 90       	ld	r0, Z+
 294:	f0 81       	ld	r31, Z
 296:	e0 2d       	mov	r30, r0
 298:	40 81       	ld	r20, Z
 29a:	dc 01       	movw	r26, r24
 29c:	af 5b       	subi	r26, 0xBF	; 191
 29e:	bd 4f       	sbci	r27, 0xFD	; 253
 2a0:	5c 96       	adiw	r26, 0x1c	; 28
 2a2:	3c 91       	ld	r19, X
 2a4:	5c 97       	sbiw	r26, 0x1c	; 28
 2a6:	34 2b       	or	r19, r20
 2a8:	30 83       	st	Z, r19
			*portData[i] &= ~maskData[i];
 2aa:	88 0f       	add	r24, r24
 2ac:	99 1f       	adc	r25, r25
 2ae:	fc 01       	movw	r30, r24
 2b0:	ef 5b       	subi	r30, 0xBF	; 191
 2b2:	fd 4f       	sbci	r31, 0xFD	; 253
 2b4:	01 90       	ld	r0, Z+
 2b6:	f0 81       	ld	r31, Z
 2b8:	e0 2d       	mov	r30, r0
 2ba:	80 81       	ld	r24, Z
 2bc:	5c 96       	adiw	r26, 0x1c	; 28
 2be:	9c 91       	ld	r25, X
 2c0:	90 95       	com	r25
 2c2:	89 23       	and	r24, r25
 2c4:	80 83       	st	Z, r24
		currentScore = 0;
		showTens = false;
	}
	
	void init() {
		for (uint8_t i = 0; i<7; i++) {
 2c6:	2f 5f       	subi	r18, 0xFF	; 255
 2c8:	da cf       	rjmp	.-76     	; 0x27e <main+0x10>
			*ddrData[i] |= maskData[i];
			*portData[i] &= ~maskData[i];
		}
		
		*ddrDS |= maskDS;
 2ca:	a1 e4       	ldi	r26, 0x41	; 65
 2cc:	b2 e0       	ldi	r27, 0x02	; 2
 2ce:	95 96       	adiw	r26, 0x25	; 37
 2d0:	ed 91       	ld	r30, X+
 2d2:	fc 91       	ld	r31, X
 2d4:	96 97       	sbiw	r26, 0x26	; 38
 2d6:	90 81       	ld	r25, Z
 2d8:	97 96       	adiw	r26, 0x27	; 39
 2da:	8c 91       	ld	r24, X
 2dc:	97 97       	sbiw	r26, 0x27	; 39
 2de:	89 2b       	or	r24, r25
 2e0:	80 83       	st	Z, r24
		*portDS &= ~maskDS;	
 2e2:	93 96       	adiw	r26, 0x23	; 35
 2e4:	ed 91       	ld	r30, X+
 2e6:	fc 91       	ld	r31, X
 2e8:	94 97       	sbiw	r26, 0x24	; 36
 2ea:	80 81       	ld	r24, Z
 2ec:	97 96       	adiw	r26, 0x27	; 39
 2ee:	9c 91       	ld	r25, X
 2f0:	97 97       	sbiw	r26, 0x27	; 39
 2f2:	90 95       	com	r25
 2f4:	89 23       	and	r24, r25
 2f6:	80 83       	st	Z, r24
	}
	
	void init() {
		*ddrReg |= mask;	// Output
 2f8:	e4 e3       	ldi	r30, 0x34	; 52
 2fa:	f2 e0       	ldi	r31, 0x02	; 2
 2fc:	c2 81       	ldd	r28, Z+2	; 0x02
 2fe:	d3 81       	ldd	r29, Z+3	; 0x03
 300:	98 81       	ld	r25, Y
 302:	84 81       	ldd	r24, Z+4	; 0x04
 304:	89 2b       	or	r24, r25
 306:	88 83       	st	Y, r24
		*portReg &= ~mask;	// 0
 308:	c0 81       	ld	r28, Z
 30a:	d1 81       	ldd	r29, Z+1	; 0x01
 30c:	88 81       	ld	r24, Y
 30e:	94 81       	ldd	r25, Z+4	; 0x04
 310:	90 95       	com	r25
 312:	89 23       	and	r24, r25
 314:	88 83       	st	Y, r24
		system_millis = 0;
	}
	
	void init() {
		// CTC
		TCCR4B &= ~((1 << WGM43) | (1 << WGM41) | (1 << WGM40));
 316:	e1 ea       	ldi	r30, 0xA1	; 161
 318:	f0 e0       	ldi	r31, 0x00	; 0
 31a:	80 81       	ld	r24, Z
 31c:	8c 7e       	andi	r24, 0xEC	; 236
 31e:	80 83       	st	Z, r24
		TCCR4B |= (1 << WGM42);
 320:	80 81       	ld	r24, Z
 322:	88 60       	ori	r24, 0x08	; 8
 324:	80 83       	st	Z, r24

		// 64 prescaler
		TCCR4B |= (1 << CS41) | (1 << CS40);
 326:	80 81       	ld	r24, Z
 328:	83 60       	ori	r24, 0x03	; 3
 32a:	80 83       	st	Z, r24
		TCCR4B &= ~(1 << CS42);
 32c:	80 81       	ld	r24, Z
 32e:	8b 7f       	andi	r24, 0xFB	; 251
 330:	80 83       	st	Z, r24

		// 1ms interrupt
		OCR4A = 124;
 332:	8c e7       	ldi	r24, 0x7C	; 124
 334:	90 e0       	ldi	r25, 0x00	; 0
 336:	90 93 a9 00 	sts	0x00A9, r25	; 0x8000a9 <__TEXT_REGION_LENGTH__+0x7f00a9>
 33a:	80 93 a8 00 	sts	0x00A8, r24	; 0x8000a8 <__TEXT_REGION_LENGTH__+0x7f00a8>
		TIMSK4 |= (1 << OCIE4A);
 33e:	e2 e7       	ldi	r30, 0x72	; 114
 340:	f0 e0       	ldi	r31, 0x00	; 0
 342:	80 81       	ld	r24, Z
 344:	82 60       	ori	r24, 0x02	; 2
 346:	80 83       	st	Z, r24
	
	display.init();
	led.init();
	systemTimer.init();
	
	sei();
 348:	78 94       	sei
		}
	}
	
	void setScore(uint8_t score) {
		if (score > 99) score = 99;
		currentScore = score; 
 34a:	83 e4       	ldi	r24, 0x43	; 67
 34c:	98 96       	adiw	r26, 0x28	; 40
 34e:	8c 93       	st	X, r24
		system_millis++;
	}
	
	uint32_t millis() {
		uint32_t time;
		uint8_t oldSREG = SREG;
 350:	8f b7       	in	r24, 0x3f	; 63
		cli();
 352:	f8 94       	cli
		time = system_millis;
 354:	40 91 30 02 	lds	r20, 0x0230	; 0x800230 <systemTimer>
 358:	50 91 31 02 	lds	r21, 0x0231	; 0x800231 <systemTimer+0x1>
 35c:	60 91 32 02 	lds	r22, 0x0232	; 0x800232 <systemTimer+0x2>
 360:	70 91 33 02 	lds	r23, 0x0233	; 0x800233 <systemTimer+0x3>
		SREG = oldSREG;
 364:	8f bf       	out	0x3f, r24	; 63
		sei();
 366:	78 94       	sei
	
	void update(uint32_t currentTime, bool endGame) {
		if (endGame && ((currentTime%100) >= 900)) {
			clear(); 
		} else {
			if (currentTime - lastTime >= refreshInterval) {
 368:	e1 e4       	ldi	r30, 0x41	; 65
 36a:	f2 e0       	ldi	r31, 0x02	; 2
 36c:	84 a9       	ldd	r24, Z+52	; 0x34
 36e:	95 a9       	ldd	r25, Z+53	; 0x35
 370:	a6 a9       	ldd	r26, Z+54	; 0x36
 372:	b7 a9       	ldd	r27, Z+55	; 0x37
 374:	8a 01       	movw	r16, r20
 376:	9b 01       	movw	r18, r22
 378:	08 1b       	sub	r16, r24
 37a:	19 0b       	sbc	r17, r25
 37c:	2a 0b       	sbc	r18, r26
 37e:	3b 0b       	sbc	r19, r27
 380:	80 ad       	ldd	r24, Z+56	; 0x38
 382:	91 ad       	ldd	r25, Z+57	; 0x39
 384:	a2 ad       	ldd	r26, Z+58	; 0x3a
 386:	b3 ad       	ldd	r27, Z+59	; 0x3b
 388:	08 17       	cp	r16, r24
 38a:	19 07       	cpc	r17, r25
 38c:	2a 07       	cpc	r18, r26
 38e:	3b 07       	cpc	r19, r27
 390:	08 f4       	brcc	.+2      	; 0x394 <main+0x126>
 392:	c7 c0       	rjmp	.+398    	; 0x522 <__LOCK_REGION_LENGTH__+0x122>
		*ddrDS |= maskDS;
		*portDS &= ~maskDS;	
	}
	
	void clear() {
		for (uint8_t i = 0; i<7; i++) {
 394:	20 e0       	ldi	r18, 0x00	; 0
 396:	27 30       	cpi	r18, 0x07	; 7
 398:	a8 f4       	brcc	.+42     	; 0x3c4 <main+0x156>
			*portData[i] &= ~maskData[i];
 39a:	82 2f       	mov	r24, r18
 39c:	90 e0       	ldi	r25, 0x00	; 0
 39e:	fc 01       	movw	r30, r24
 3a0:	ee 0f       	add	r30, r30
 3a2:	ff 1f       	adc	r31, r31
 3a4:	ef 5b       	subi	r30, 0xBF	; 191
 3a6:	fd 4f       	sbci	r31, 0xFD	; 253
 3a8:	01 90       	ld	r0, Z+
 3aa:	f0 81       	ld	r31, Z
 3ac:	e0 2d       	mov	r30, r0
 3ae:	30 81       	ld	r19, Z
 3b0:	dc 01       	movw	r26, r24
 3b2:	af 5b       	subi	r26, 0xBF	; 191
 3b4:	bd 4f       	sbci	r27, 0xFD	; 253
 3b6:	5c 96       	adiw	r26, 0x1c	; 28
 3b8:	8c 91       	ld	r24, X
 3ba:	80 95       	com	r24
 3bc:	83 23       	and	r24, r19
 3be:	80 83       	st	Z, r24
		*ddrDS |= maskDS;
		*portDS &= ~maskDS;	
	}
	
	void clear() {
		for (uint8_t i = 0; i<7; i++) {
 3c0:	2f 5f       	subi	r18, 0xFF	; 255
 3c2:	e9 cf       	rjmp	.-46     	; 0x396 <main+0x128>
	}
	
	void refresh() {
		clear();
		
		if (showTens) {
 3c4:	80 91 6a 02 	lds	r24, 0x026A	; 0x80026a <display+0x29>
 3c8:	88 23       	and	r24, r24
 3ca:	09 f4       	brne	.+2      	; 0x3ce <main+0x160>
 3cc:	4d c0       	rjmp	.+154    	; 0x468 <__LOCK_REGION_LENGTH__+0x68>
			uint8_t tens = currentScore/10;
 3ce:	a1 e4       	ldi	r26, 0x41	; 65
 3d0:	b2 e0       	ldi	r27, 0x02	; 2
 3d2:	98 96       	adiw	r26, 0x28	; 40
 3d4:	8c 91       	ld	r24, X
 3d6:	98 97       	sbiw	r26, 0x28	; 40
 3d8:	ed ec       	ldi	r30, 0xCD	; 205
 3da:	8e 9f       	mul	r24, r30
 3dc:	e1 2d       	mov	r30, r1
 3de:	11 24       	eor	r1, r1
 3e0:	e6 95       	lsr	r30
 3e2:	e6 95       	lsr	r30
 3e4:	e6 95       	lsr	r30
			*portDS |= maskDS;
 3e6:	93 96       	adiw	r26, 0x23	; 35
 3e8:	cd 91       	ld	r28, X+
 3ea:	dc 91       	ld	r29, X
 3ec:	94 97       	sbiw	r26, 0x24	; 36
 3ee:	98 81       	ld	r25, Y
 3f0:	97 96       	adiw	r26, 0x27	; 39
 3f2:	8c 91       	ld	r24, X
 3f4:	89 2b       	or	r24, r25
 3f6:	88 83       	st	Y, r24
			*portData[i] &= ~maskData[i];
		}
	}
	
	void printDigit(uint8_t digit) {
		if (digit>9) return;
 3f8:	ea 30       	cpi	r30, 0x0A	; 10
 3fa:	08 f0       	brcs	.+2      	; 0x3fe <main+0x190>
 3fc:	88 c0       	rjmp	.+272    	; 0x50e <__LOCK_REGION_LENGTH__+0x10e>
		uint8_t pattern = digits[digit];
 3fe:	f0 e0       	ldi	r31, 0x00	; 0
 400:	ef 5b       	subi	r30, 0xBF	; 191
 402:	fd 4f       	sbci	r31, 0xFD	; 253
 404:	12 a5       	ldd	r17, Z+42	; 0x2a
		
		for (uint8_t i=0; i<7; i++) {
 406:	80 e0       	ldi	r24, 0x00	; 0
 408:	87 30       	cpi	r24, 0x07	; 7
 40a:	08 f0       	brcs	.+2      	; 0x40e <__LOCK_REGION_LENGTH__+0xe>
 40c:	80 c0       	rjmp	.+256    	; 0x50e <__LOCK_REGION_LENGTH__+0x10e>
			if (pattern & (1<<i)) {
 40e:	28 2f       	mov	r18, r24
 410:	30 e0       	ldi	r19, 0x00	; 0
 412:	e1 2f       	mov	r30, r17
 414:	f0 e0       	ldi	r31, 0x00	; 0
 416:	08 2e       	mov	r0, r24
 418:	02 c0       	rjmp	.+4      	; 0x41e <__LOCK_REGION_LENGTH__+0x1e>
 41a:	f5 95       	asr	r31
 41c:	e7 95       	ror	r30
 41e:	0a 94       	dec	r0
 420:	e2 f7       	brpl	.-8      	; 0x41a <__LOCK_REGION_LENGTH__+0x1a>
 422:	e0 ff       	sbrs	r30, 0
 424:	10 c0       	rjmp	.+32     	; 0x446 <__LOCK_REGION_LENGTH__+0x46>
				*portData[i] |= maskData[i];
 426:	f9 01       	movw	r30, r18
 428:	ee 0f       	add	r30, r30
 42a:	ff 1f       	adc	r31, r31
 42c:	ef 5b       	subi	r30, 0xBF	; 191
 42e:	fd 4f       	sbci	r31, 0xFD	; 253
 430:	01 90       	ld	r0, Z+
 432:	f0 81       	ld	r31, Z
 434:	e0 2d       	mov	r30, r0
 436:	a0 81       	ld	r26, Z
 438:	e9 01       	movw	r28, r18
 43a:	cf 5b       	subi	r28, 0xBF	; 191
 43c:	dd 4f       	sbci	r29, 0xFD	; 253
 43e:	9c 8d       	ldd	r25, Y+28	; 0x1c
 440:	9a 2b       	or	r25, r26
 442:	90 83       	st	Z, r25
 444:	0f c0       	rjmp	.+30     	; 0x464 <__LOCK_REGION_LENGTH__+0x64>
			} else {
				*portData[i] &= ~maskData[i];
 446:	f9 01       	movw	r30, r18
 448:	ee 0f       	add	r30, r30
 44a:	ff 1f       	adc	r31, r31
 44c:	ef 5b       	subi	r30, 0xBF	; 191
 44e:	fd 4f       	sbci	r31, 0xFD	; 253
 450:	a0 81       	ld	r26, Z
 452:	b1 81       	ldd	r27, Z+1	; 0x01
 454:	ec 91       	ld	r30, X
 456:	e9 01       	movw	r28, r18
 458:	cf 5b       	subi	r28, 0xBF	; 191
 45a:	dd 4f       	sbci	r29, 0xFD	; 253
 45c:	9c 8d       	ldd	r25, Y+28	; 0x1c
 45e:	90 95       	com	r25
 460:	9e 23       	and	r25, r30
 462:	9c 93       	st	X, r25
	
	void printDigit(uint8_t digit) {
		if (digit>9) return;
		uint8_t pattern = digits[digit];
		
		for (uint8_t i=0; i<7; i++) {
 464:	8f 5f       	subi	r24, 0xFF	; 255
 466:	d0 cf       	rjmp	.-96     	; 0x408 <__LOCK_REGION_LENGTH__+0x8>
		if (showTens) {
			uint8_t tens = currentScore/10;
			*portDS |= maskDS;
			printDigit(tens);
		} else {
			uint8_t units = currentScore%10;
 468:	a1 e4       	ldi	r26, 0x41	; 65
 46a:	b2 e0       	ldi	r27, 0x02	; 2
 46c:	98 96       	adiw	r26, 0x28	; 40
 46e:	9c 91       	ld	r25, X
 470:	98 97       	sbiw	r26, 0x28	; 40
 472:	ed ec       	ldi	r30, 0xCD	; 205
 474:	9e 9f       	mul	r25, r30
 476:	e1 2d       	mov	r30, r1
 478:	11 24       	eor	r1, r1
 47a:	e6 95       	lsr	r30
 47c:	e6 95       	lsr	r30
 47e:	e6 95       	lsr	r30
 480:	ee 0f       	add	r30, r30
 482:	8e 2f       	mov	r24, r30
 484:	88 0f       	add	r24, r24
 486:	88 0f       	add	r24, r24
 488:	e8 0f       	add	r30, r24
 48a:	9e 1b       	sub	r25, r30
 48c:	e9 2f       	mov	r30, r25
			*portDS &= ~maskDS;
 48e:	93 96       	adiw	r26, 0x23	; 35
 490:	cd 91       	ld	r28, X+
 492:	dc 91       	ld	r29, X
 494:	94 97       	sbiw	r26, 0x24	; 36
 496:	98 81       	ld	r25, Y
 498:	97 96       	adiw	r26, 0x27	; 39
 49a:	8c 91       	ld	r24, X
 49c:	80 95       	com	r24
 49e:	89 23       	and	r24, r25
 4a0:	88 83       	st	Y, r24
			*portData[i] &= ~maskData[i];
		}
	}
	
	void printDigit(uint8_t digit) {
		if (digit>9) return;
 4a2:	ea 30       	cpi	r30, 0x0A	; 10
 4a4:	a0 f5       	brcc	.+104    	; 0x50e <__LOCK_REGION_LENGTH__+0x10e>
		uint8_t pattern = digits[digit];
 4a6:	f0 e0       	ldi	r31, 0x00	; 0
 4a8:	ef 5b       	subi	r30, 0xBF	; 191
 4aa:	fd 4f       	sbci	r31, 0xFD	; 253
 4ac:	12 a5       	ldd	r17, Z+42	; 0x2a
		
		for (uint8_t i=0; i<7; i++) {
 4ae:	80 e0       	ldi	r24, 0x00	; 0
 4b0:	87 30       	cpi	r24, 0x07	; 7
 4b2:	68 f5       	brcc	.+90     	; 0x50e <__LOCK_REGION_LENGTH__+0x10e>
			if (pattern & (1<<i)) {
 4b4:	28 2f       	mov	r18, r24
 4b6:	30 e0       	ldi	r19, 0x00	; 0
 4b8:	e1 2f       	mov	r30, r17
 4ba:	f0 e0       	ldi	r31, 0x00	; 0
 4bc:	08 2e       	mov	r0, r24
 4be:	02 c0       	rjmp	.+4      	; 0x4c4 <__LOCK_REGION_LENGTH__+0xc4>
 4c0:	f5 95       	asr	r31
 4c2:	e7 95       	ror	r30
 4c4:	0a 94       	dec	r0
 4c6:	e2 f7       	brpl	.-8      	; 0x4c0 <__LOCK_REGION_LENGTH__+0xc0>
 4c8:	e0 ff       	sbrs	r30, 0
 4ca:	10 c0       	rjmp	.+32     	; 0x4ec <__LOCK_REGION_LENGTH__+0xec>
				*portData[i] |= maskData[i];
 4cc:	f9 01       	movw	r30, r18
 4ce:	ee 0f       	add	r30, r30
 4d0:	ff 1f       	adc	r31, r31
 4d2:	ef 5b       	subi	r30, 0xBF	; 191
 4d4:	fd 4f       	sbci	r31, 0xFD	; 253
 4d6:	01 90       	ld	r0, Z+
 4d8:	f0 81       	ld	r31, Z
 4da:	e0 2d       	mov	r30, r0
 4dc:	a0 81       	ld	r26, Z
 4de:	e9 01       	movw	r28, r18
 4e0:	cf 5b       	subi	r28, 0xBF	; 191
 4e2:	dd 4f       	sbci	r29, 0xFD	; 253
 4e4:	9c 8d       	ldd	r25, Y+28	; 0x1c
 4e6:	9a 2b       	or	r25, r26
 4e8:	90 83       	st	Z, r25
 4ea:	0f c0       	rjmp	.+30     	; 0x50a <__LOCK_REGION_LENGTH__+0x10a>
			} else {
				*portData[i] &= ~maskData[i];
 4ec:	f9 01       	movw	r30, r18
 4ee:	ee 0f       	add	r30, r30
 4f0:	ff 1f       	adc	r31, r31
 4f2:	ef 5b       	subi	r30, 0xBF	; 191
 4f4:	fd 4f       	sbci	r31, 0xFD	; 253
 4f6:	a0 81       	ld	r26, Z
 4f8:	b1 81       	ldd	r27, Z+1	; 0x01
 4fa:	ec 91       	ld	r30, X
 4fc:	e9 01       	movw	r28, r18
 4fe:	cf 5b       	subi	r28, 0xBF	; 191
 500:	dd 4f       	sbci	r29, 0xFD	; 253
 502:	9c 8d       	ldd	r25, Y+28	; 0x1c
 504:	90 95       	com	r25
 506:	9e 23       	and	r25, r30
 508:	9c 93       	st	X, r25
	
	void printDigit(uint8_t digit) {
		if (digit>9) return;
		uint8_t pattern = digits[digit];
		
		for (uint8_t i=0; i<7; i++) {
 50a:	8f 5f       	subi	r24, 0xFF	; 255
 50c:	d1 cf       	rjmp	.-94     	; 0x4b0 <__LOCK_REGION_LENGTH__+0xb0>
			uint8_t units = currentScore%10;
			*portDS &= ~maskDS;
			printDigit(units);
		}
		
		showTens = !showTens;
 50e:	e1 e4       	ldi	r30, 0x41	; 65
 510:	f2 e0       	ldi	r31, 0x02	; 2
 512:	91 a5       	ldd	r25, Z+41	; 0x29
 514:	81 e0       	ldi	r24, 0x01	; 1
 516:	89 27       	eor	r24, r25
 518:	81 a7       	std	Z+41, r24	; 0x29
		if (endGame && ((currentTime%100) >= 900)) {
			clear(); 
		} else {
			if (currentTime - lastTime >= refreshInterval) {
				refresh();
				lastTime = currentTime;
 51a:	44 ab       	std	Z+52, r20	; 0x34
 51c:	55 ab       	std	Z+53, r21	; 0x35
 51e:	66 ab       	std	Z+54, r22	; 0x36
 520:	77 ab       	std	Z+55, r23	; 0x37
		*portReg ^= mask;
	}
	
	void update(uint32_t currentTime, bool endGame) {
		if (endGame) {
			if (currentTime - lastTime >= blinkInterval) {
 522:	e4 e3       	ldi	r30, 0x34	; 52
 524:	f2 e0       	ldi	r31, 0x02	; 2
 526:	85 81       	ldd	r24, Z+5	; 0x05
 528:	96 81       	ldd	r25, Z+6	; 0x06
 52a:	a7 81       	ldd	r26, Z+7	; 0x07
 52c:	b0 85       	ldd	r27, Z+8	; 0x08
 52e:	8a 01       	movw	r16, r20
 530:	9b 01       	movw	r18, r22
 532:	08 1b       	sub	r16, r24
 534:	19 0b       	sbc	r17, r25
 536:	2a 0b       	sbc	r18, r26
 538:	3b 0b       	sbc	r19, r27
 53a:	81 85       	ldd	r24, Z+9	; 0x09
 53c:	92 85       	ldd	r25, Z+10	; 0x0a
 53e:	a3 85       	ldd	r26, Z+11	; 0x0b
 540:	b4 85       	ldd	r27, Z+12	; 0x0c
 542:	08 17       	cp	r16, r24
 544:	19 07       	cpc	r17, r25
 546:	2a 07       	cpc	r18, r26
 548:	3b 07       	cpc	r19, r27
 54a:	08 f4       	brcc	.+2      	; 0x54e <__LOCK_REGION_LENGTH__+0x14e>
 54c:	01 cf       	rjmp	.-510    	; 0x350 <main+0xe2>
	void off() {
		*portReg &= ~mask;
	}
	
	void toggle() {
		*portReg ^= mask;
 54e:	a0 81       	ld	r26, Z
 550:	b1 81       	ldd	r27, Z+1	; 0x01
 552:	9c 91       	ld	r25, X
 554:	84 81       	ldd	r24, Z+4	; 0x04
 556:	89 27       	eor	r24, r25
 558:	8c 93       	st	X, r24
	
	void update(uint32_t currentTime, bool endGame) {
		if (endGame) {
			if (currentTime - lastTime >= blinkInterval) {
				toggle();
				lastTime = currentTime;
 55a:	45 83       	std	Z+5, r20	; 0x05
 55c:	56 83       	std	Z+6, r21	; 0x06
 55e:	67 83       	std	Z+7, r22	; 0x07
 560:	70 87       	std	Z+8, r23	; 0x08
 562:	f6 ce       	rjmp	.-532    	; 0x350 <main+0xe2>

00000564 <_GLOBAL__sub_I_segPorts>:
		display.update(currentTime, endGame);
		led.update(currentTime, endGame);
	
	}
	
 564:	6f ef       	ldi	r22, 0xFF	; 255
 566:	7f ef       	ldi	r23, 0xFF	; 255
 568:	81 e0       	ldi	r24, 0x01	; 1
 56a:	90 e0       	ldi	r25, 0x00	; 0
 56c:	0e 94 9d 00 	call	0x13a	; 0x13a <_Z41__static_initialization_and_destruction_0ii>
 570:	08 95       	ret

00000572 <__tablejump2__>:
 572:	ee 0f       	add	r30, r30
 574:	ff 1f       	adc	r31, r31
 576:	05 90       	lpm	r0, Z+
 578:	f4 91       	lpm	r31, Z
 57a:	e0 2d       	mov	r30, r0
 57c:	09 94       	ijmp

0000057e <_exit>:
 57e:	f8 94       	cli

00000580 <__stop_program>:
 580:	ff cf       	rjmp	.-2      	; 0x580 <__stop_program>
