
user_swich_class.elf:     file format elf32-avr

Sections:
Idx Name          Size      VMA       LMA       File off  Algn
  0 .data         00000000  00800200  00800200  0000028c  2**0
                  CONTENTS, ALLOC, LOAD, DATA
  1 .text         00000218  00000000  00000000  00000074  2**1
                  CONTENTS, ALLOC, LOAD, READONLY, CODE
  2 .bss          0000001f  00800200  00800200  0000028c  2**0
                  ALLOC
  3 .comment      00000030  00000000  00000000  0000028c  2**0
                  CONTENTS, READONLY
  4 .note.gnu.avr.deviceinfo 0000003c  00000000  00000000  000002bc  2**2
                  CONTENTS, READONLY
  5 .debug_aranges 00000030  00000000  00000000  000002f8  2**0
                  CONTENTS, READONLY, DEBUGGING
  6 .debug_info   000010e5  00000000  00000000  00000328  2**0
                  CONTENTS, READONLY, DEBUGGING
  7 .debug_abbrev 00000ccf  00000000  00000000  0000140d  2**0
                  CONTENTS, READONLY, DEBUGGING
  8 .debug_line   0000037c  00000000  00000000  000020dc  2**0
                  CONTENTS, READONLY, DEBUGGING
  9 .debug_frame  00000044  00000000  00000000  00002458  2**2
                  CONTENTS, READONLY, DEBUGGING
 10 .debug_str    0000076c  00000000  00000000  0000249c  2**0
                  CONTENTS, READONLY, DEBUGGING
 11 .debug_loc    000000b8  00000000  00000000  00002c08  2**0
                  CONTENTS, READONLY, DEBUGGING
 12 .debug_ranges 00000020  00000000  00000000  00002cc0  2**0
                  CONTENTS, READONLY, DEBUGGING

Disassembly of section .text:

00000000 <__vectors>:
   0:	0c 94 73 00 	jmp	0xe6	; 0xe6 <__ctors_end>
   4:	0c 94 90 00 	jmp	0x120	; 0x120 <__bad_interrupt>
   8:	0c 94 90 00 	jmp	0x120	; 0x120 <__bad_interrupt>
   c:	0c 94 90 00 	jmp	0x120	; 0x120 <__bad_interrupt>
  10:	0c 94 90 00 	jmp	0x120	; 0x120 <__bad_interrupt>
  14:	0c 94 90 00 	jmp	0x120	; 0x120 <__bad_interrupt>
  18:	0c 94 90 00 	jmp	0x120	; 0x120 <__bad_interrupt>
  1c:	0c 94 90 00 	jmp	0x120	; 0x120 <__bad_interrupt>
  20:	0c 94 90 00 	jmp	0x120	; 0x120 <__bad_interrupt>
  24:	0c 94 90 00 	jmp	0x120	; 0x120 <__bad_interrupt>
  28:	0c 94 90 00 	jmp	0x120	; 0x120 <__bad_interrupt>
  2c:	0c 94 90 00 	jmp	0x120	; 0x120 <__bad_interrupt>
  30:	0c 94 90 00 	jmp	0x120	; 0x120 <__bad_interrupt>
  34:	0c 94 90 00 	jmp	0x120	; 0x120 <__bad_interrupt>
  38:	0c 94 90 00 	jmp	0x120	; 0x120 <__bad_interrupt>
  3c:	0c 94 90 00 	jmp	0x120	; 0x120 <__bad_interrupt>
  40:	0c 94 90 00 	jmp	0x120	; 0x120 <__bad_interrupt>
  44:	0c 94 90 00 	jmp	0x120	; 0x120 <__bad_interrupt>
  48:	0c 94 90 00 	jmp	0x120	; 0x120 <__bad_interrupt>
  4c:	0c 94 90 00 	jmp	0x120	; 0x120 <__bad_interrupt>
  50:	0c 94 90 00 	jmp	0x120	; 0x120 <__bad_interrupt>
  54:	0c 94 90 00 	jmp	0x120	; 0x120 <__bad_interrupt>
  58:	0c 94 90 00 	jmp	0x120	; 0x120 <__bad_interrupt>
  5c:	0c 94 90 00 	jmp	0x120	; 0x120 <__bad_interrupt>
  60:	0c 94 90 00 	jmp	0x120	; 0x120 <__bad_interrupt>
  64:	0c 94 90 00 	jmp	0x120	; 0x120 <__bad_interrupt>
  68:	0c 94 90 00 	jmp	0x120	; 0x120 <__bad_interrupt>
  6c:	0c 94 90 00 	jmp	0x120	; 0x120 <__bad_interrupt>
  70:	0c 94 90 00 	jmp	0x120	; 0x120 <__bad_interrupt>
  74:	0c 94 90 00 	jmp	0x120	; 0x120 <__bad_interrupt>
  78:	0c 94 90 00 	jmp	0x120	; 0x120 <__bad_interrupt>
  7c:	0c 94 90 00 	jmp	0x120	; 0x120 <__bad_interrupt>
  80:	0c 94 90 00 	jmp	0x120	; 0x120 <__bad_interrupt>
  84:	0c 94 90 00 	jmp	0x120	; 0x120 <__bad_interrupt>
  88:	0c 94 90 00 	jmp	0x120	; 0x120 <__bad_interrupt>
  8c:	0c 94 90 00 	jmp	0x120	; 0x120 <__bad_interrupt>
  90:	0c 94 90 00 	jmp	0x120	; 0x120 <__bad_interrupt>
  94:	0c 94 90 00 	jmp	0x120	; 0x120 <__bad_interrupt>
  98:	0c 94 90 00 	jmp	0x120	; 0x120 <__bad_interrupt>
  9c:	0c 94 90 00 	jmp	0x120	; 0x120 <__bad_interrupt>
  a0:	0c 94 90 00 	jmp	0x120	; 0x120 <__bad_interrupt>
  a4:	0c 94 90 00 	jmp	0x120	; 0x120 <__bad_interrupt>
  a8:	0c 94 90 00 	jmp	0x120	; 0x120 <__bad_interrupt>
  ac:	0c 94 90 00 	jmp	0x120	; 0x120 <__bad_interrupt>
  b0:	0c 94 90 00 	jmp	0x120	; 0x120 <__bad_interrupt>
  b4:	0c 94 90 00 	jmp	0x120	; 0x120 <__bad_interrupt>
  b8:	0c 94 90 00 	jmp	0x120	; 0x120 <__bad_interrupt>
  bc:	0c 94 90 00 	jmp	0x120	; 0x120 <__bad_interrupt>
  c0:	0c 94 90 00 	jmp	0x120	; 0x120 <__bad_interrupt>
  c4:	0c 94 90 00 	jmp	0x120	; 0x120 <__bad_interrupt>
  c8:	0c 94 90 00 	jmp	0x120	; 0x120 <__bad_interrupt>
  cc:	0c 94 90 00 	jmp	0x120	; 0x120 <__bad_interrupt>
  d0:	0c 94 90 00 	jmp	0x120	; 0x120 <__bad_interrupt>
  d4:	0c 94 90 00 	jmp	0x120	; 0x120 <__bad_interrupt>
  d8:	0c 94 90 00 	jmp	0x120	; 0x120 <__bad_interrupt>
  dc:	0c 94 90 00 	jmp	0x120	; 0x120 <__bad_interrupt>
  e0:	0c 94 90 00 	jmp	0x120	; 0x120 <__bad_interrupt>

000000e4 <__ctors_start>:
  e4:	fd 00       	.word	0x00fd	; ????

000000e6 <__ctors_end>:
  e6:	11 24       	eor	r1, r1
  e8:	1f be       	out	0x3f, r1	; 63
  ea:	cf ef       	ldi	r28, 0xFF	; 255
  ec:	d1 e2       	ldi	r29, 0x21	; 33
  ee:	de bf       	out	0x3e, r29	; 62
  f0:	cd bf       	out	0x3d, r28	; 61

000000f2 <__do_clear_bss>:
  f2:	22 e0       	ldi	r18, 0x02	; 2
  f4:	a0 e0       	ldi	r26, 0x00	; 0
  f6:	b2 e0       	ldi	r27, 0x02	; 2
  f8:	01 c0       	rjmp	.+2      	; 0xfc <.do_clear_bss_start>

000000fa <.do_clear_bss_loop>:
  fa:	1d 92       	st	X+, r1

000000fc <.do_clear_bss_start>:
  fc:	af 31       	cpi	r26, 0x1F	; 31
  fe:	b2 07       	cpc	r27, r18
 100:	e1 f7       	brne	.-8      	; 0xfa <.do_clear_bss_loop>

00000102 <__do_global_ctors>:
 102:	10 e0       	ldi	r17, 0x00	; 0
 104:	c3 e7       	ldi	r28, 0x73	; 115
 106:	d0 e0       	ldi	r29, 0x00	; 0
 108:	04 c0       	rjmp	.+8      	; 0x112 <__do_global_ctors+0x10>
 10a:	21 97       	sbiw	r28, 0x01	; 1
 10c:	fe 01       	movw	r30, r28
 10e:	0e 94 04 01 	call	0x208	; 0x208 <__tablejump2__>
 112:	c2 37       	cpi	r28, 0x72	; 114
 114:	d1 07       	cpc	r29, r17
 116:	c9 f7       	brne	.-14     	; 0x10a <__do_global_ctors+0x8>
 118:	0e 94 cb 00 	call	0x196	; 0x196 <main>
 11c:	0c 94 0a 01 	jmp	0x214	; 0x214 <_exit>

00000120 <__bad_interrupt>:
 120:	0c 94 00 00 	jmp	0	; 0x0 <__vectors>

00000124 <_Z41__static_initialization_and_destruction_0ii>:
	while(1) {
		if(sw6.consumeClick()) {
			led.toggle();
		}
	}
 124:	01 97       	sbiw	r24, 0x01	; 1
 126:	b1 f5       	brne	.+108    	; 0x194 <_Z41__static_initialization_and_destruction_0ii+0x70>
 128:	6f 3f       	cpi	r22, 0xFF	; 255
 12a:	7f 4f       	sbci	r23, 0xFF	; 255
 12c:	99 f5       	brne	.+102    	; 0x194 <_Z41__static_initialization_and_destruction_0ii+0x70>
	uint32_t lastTime;
	uint32_t blinkInterval;
	
	public:
	Led(volatile uint8_t* portR, volatile uint8_t* ddrR, uint8_t m) {
		portReg	= portR;
 12e:	e2 e1       	ldi	r30, 0x12	; 18
 130:	f2 e0       	ldi	r31, 0x02	; 2
 132:	2b e2       	ldi	r18, 0x2B	; 43
 134:	30 e0       	ldi	r19, 0x00	; 0
 136:	31 83       	std	Z+1, r19	; 0x01
 138:	20 83       	st	Z, r18
		ddrReg	= ddrR;
 13a:	8a e2       	ldi	r24, 0x2A	; 42
 13c:	90 e0       	ldi	r25, 0x00	; 0
 13e:	93 83       	std	Z+3, r25	; 0x03
 140:	82 83       	std	Z+2, r24	; 0x02
		mask	= m;
 142:	40 e8       	ldi	r20, 0x80	; 128
 144:	44 83       	std	Z+4, r20	; 0x04
		
		lastTime = 0;
 146:	15 82       	std	Z+5, r1	; 0x05
 148:	16 82       	std	Z+6, r1	; 0x06
 14a:	17 82       	std	Z+7, r1	; 0x07
 14c:	10 86       	std	Z+8, r1	; 0x08
		blinkInterval = 100; // 100ms
 14e:	44 e6       	ldi	r20, 0x64	; 100
 150:	50 e0       	ldi	r21, 0x00	; 0
 152:	60 e0       	ldi	r22, 0x00	; 0
 154:	70 e0       	ldi	r23, 0x00	; 0
 156:	41 87       	std	Z+9, r20	; 0x09
 158:	52 87       	std	Z+10, r21	; 0x0a
 15a:	63 87       	std	Z+11, r22	; 0x0b
 15c:	74 87       	std	Z+12, r23	; 0x0c
	bool lastState;
	bool stableState;
	bool flagPressed;
	
	public:
	SwitchUser(volatile uint8_t* pinR, volatile uint8_t* portR, volatile uint8_t* ddrR, uint8_t m) {
 15e:	e0 e0       	ldi	r30, 0x00	; 0
 160:	f2 e0       	ldi	r31, 0x02	; 2
 162:	42 e3       	ldi	r20, 0x32	; 50
 164:	50 e0       	ldi	r21, 0x00	; 0
 166:	60 e0       	ldi	r22, 0x00	; 0
 168:	70 e0       	ldi	r23, 0x00	; 0
 16a:	43 87       	std	Z+11, r20	; 0x0b
 16c:	54 87       	std	Z+12, r21	; 0x0c
 16e:	65 87       	std	Z+13, r22	; 0x0d
 170:	76 87       	std	Z+14, r23	; 0x0e
		pinReg = pinR;
 172:	49 e2       	ldi	r20, 0x29	; 41
 174:	50 e0       	ldi	r21, 0x00	; 0
 176:	51 83       	std	Z+1, r21	; 0x01
 178:	40 83       	st	Z, r20
		portReg = portR;
 17a:	33 83       	std	Z+3, r19	; 0x03
 17c:	22 83       	std	Z+2, r18	; 0x02
		ddrReg = ddrR;
 17e:	95 83       	std	Z+5, r25	; 0x05
 180:	84 83       	std	Z+4, r24	; 0x04
		mask = m;
 182:	88 e0       	ldi	r24, 0x08	; 8
 184:	86 83       	std	Z+6, r24	; 0x06
		
		lastChangeTimestamp = 0;
 186:	17 82       	std	Z+7, r1	; 0x07
 188:	10 86       	std	Z+8, r1	; 0x08
 18a:	11 86       	std	Z+9, r1	; 0x09
 18c:	12 86       	std	Z+10, r1	; 0x0a
		lastState = false;
 18e:	17 86       	std	Z+15, r1	; 0x0f
		stableState = false;
 190:	10 8a       	std	Z+16, r1	; 0x10
		flagPressed = false;
 192:	11 8a       	std	Z+17, r1	; 0x11
 194:	08 95       	ret

00000196 <main>:

Led led(&PORTD, &DDRD, (1<<PD7));
SwitchUser sw6(&PIND, &PORTD, &DDRD, (1<<PD3));

int main() {
	cli();
 196:	f8 94       	cli
	}
	
	void init() {
		*ddrReg |= mask;	// Output
 198:	e2 e1       	ldi	r30, 0x12	; 18
 19a:	f2 e0       	ldi	r31, 0x02	; 2
 19c:	a2 81       	ldd	r26, Z+2	; 0x02
 19e:	b3 81       	ldd	r27, Z+3	; 0x03
 1a0:	9c 91       	ld	r25, X
 1a2:	84 81       	ldd	r24, Z+4	; 0x04
 1a4:	89 2b       	or	r24, r25
 1a6:	8c 93       	st	X, r24
		*portReg &= ~mask;	// 0
 1a8:	a0 81       	ld	r26, Z
 1aa:	b1 81       	ldd	r27, Z+1	; 0x01
 1ac:	8c 91       	ld	r24, X
 1ae:	94 81       	ldd	r25, Z+4	; 0x04
 1b0:	90 95       	com	r25
 1b2:	89 23       	and	r24, r25
 1b4:	8c 93       	st	X, r24
	}
	
	void init() {
		*ddrReg &= ~mask;	// Input
 1b6:	e0 e0       	ldi	r30, 0x00	; 0
 1b8:	f2 e0       	ldi	r31, 0x02	; 2
 1ba:	a4 81       	ldd	r26, Z+4	; 0x04
 1bc:	b5 81       	ldd	r27, Z+5	; 0x05
 1be:	8c 91       	ld	r24, X
 1c0:	96 81       	ldd	r25, Z+6	; 0x06
 1c2:	90 95       	com	r25
 1c4:	89 23       	and	r24, r25
 1c6:	8c 93       	st	X, r24
		*portReg |= mask;	// Pull-up
 1c8:	a2 81       	ldd	r26, Z+2	; 0x02
 1ca:	b3 81       	ldd	r27, Z+3	; 0x03
 1cc:	9c 91       	ld	r25, X
 1ce:	86 81       	ldd	r24, Z+6	; 0x06
 1d0:	89 2b       	or	r24, r25
 1d2:	8c 93       	st	X, r24
	led.init();
	sw6.init();
	sei();
 1d4:	78 94       	sei
		}
		lastState = reading;
	}
	
	bool consumeClick() {
		if (flagPressed) {
 1d6:	80 91 11 02 	lds	r24, 0x0211	; 0x800211 <__DATA_REGION_ORIGIN__+0x11>
 1da:	81 11       	cpse	r24, r1
			flagPressed = false;
 1dc:	10 92 11 02 	sts	0x0211, r1	; 0x800211 <__DATA_REGION_ORIGIN__+0x11>
	
	while(1) {
		if(sw6.consumeClick()) {
 1e0:	88 23       	and	r24, r24
 1e2:	c9 f3       	breq	.-14     	; 0x1d6 <main+0x40>
	void off() {
		*portReg &= ~mask;
	}
	
	void toggle() {
		*portReg ^= mask;
 1e4:	a2 e1       	ldi	r26, 0x12	; 18
 1e6:	b2 e0       	ldi	r27, 0x02	; 2
 1e8:	ed 91       	ld	r30, X+
 1ea:	fc 91       	ld	r31, X
 1ec:	11 97       	sbiw	r26, 0x01	; 1
 1ee:	90 81       	ld	r25, Z
 1f0:	14 96       	adiw	r26, 0x04	; 4
 1f2:	8c 91       	ld	r24, X
 1f4:	89 27       	eor	r24, r25
 1f6:	80 83       	st	Z, r24
 1f8:	ee cf       	rjmp	.-36     	; 0x1d6 <main+0x40>

000001fa <_GLOBAL__sub_I_led>:
			led.toggle();
		}
	}
 1fa:	6f ef       	ldi	r22, 0xFF	; 255
 1fc:	7f ef       	ldi	r23, 0xFF	; 255
 1fe:	81 e0       	ldi	r24, 0x01	; 1
 200:	90 e0       	ldi	r25, 0x00	; 0
 202:	0e 94 92 00 	call	0x124	; 0x124 <_Z41__static_initialization_and_destruction_0ii>
 206:	08 95       	ret

00000208 <__tablejump2__>:
 208:	ee 0f       	add	r30, r30
 20a:	ff 1f       	adc	r31, r31
 20c:	05 90       	lpm	r0, Z+
 20e:	f4 91       	lpm	r31, Z
 210:	e0 2d       	mov	r30, r0
 212:	09 94       	ijmp

00000214 <_exit>:
 214:	f8 94       	cli

00000216 <__stop_program>:
 216:	ff cf       	rjmp	.-2      	; 0x216 <__stop_program>
