
bolera_code.elf:     file format elf32-avr

Sections:
Idx Name          Size      VMA       LMA       File off  Algn
  0 .data         00000082  00800200  00003612  000036a6  2**0
                  CONTENTS, ALLOC, LOAD, DATA
  1 .text         00003612  00000000  00000000  00000094  2**1
                  CONTENTS, ALLOC, LOAD, READONLY, CODE
  2 .bss          00000004  00800282  00800282  00003728  2**0
                  ALLOC
  3 .comment      00000030  00000000  00000000  00003728  2**0
                  CONTENTS, READONLY
  4 .note.gnu.avr.deviceinfo 0000003c  00000000  00000000  00003758  2**2
                  CONTENTS, READONLY
  5 .debug_aranges 00000108  00000000  00000000  00003794  2**0
                  CONTENTS, READONLY, DEBUGGING
  6 .debug_info   00006eef  00000000  00000000  0000389c  2**0
                  CONTENTS, READONLY, DEBUGGING
  7 .debug_abbrev 00001013  00000000  00000000  0000a78b  2**0
                  CONTENTS, READONLY, DEBUGGING
  8 .debug_line   00002cf1  00000000  00000000  0000b79e  2**0
                  CONTENTS, READONLY, DEBUGGING
  9 .debug_frame  00000374  00000000  00000000  0000e490  2**2
                  CONTENTS, READONLY, DEBUGGING
 10 .debug_str    00001939  00000000  00000000  0000e804  2**0
                  CONTENTS, READONLY, DEBUGGING
 11 .debug_loc    00004b6b  00000000  00000000  0001013d  2**0
                  CONTENTS, READONLY, DEBUGGING
 12 .debug_ranges 00000368  00000000  00000000  00014ca8  2**0
                  CONTENTS, READONLY, DEBUGGING

Disassembly of section .text:

00000000 <__vectors>:
       0:	0c 94 72 00 	jmp	0xe4	; 0xe4 <__ctors_end>
       4:	0c 94 8f 00 	jmp	0x11e	; 0x11e <__bad_interrupt>
       8:	0c 94 8f 00 	jmp	0x11e	; 0x11e <__bad_interrupt>
       c:	0c 94 8f 00 	jmp	0x11e	; 0x11e <__bad_interrupt>
      10:	0c 94 8f 00 	jmp	0x11e	; 0x11e <__bad_interrupt>
      14:	0c 94 8f 00 	jmp	0x11e	; 0x11e <__bad_interrupt>
      18:	0c 94 8f 00 	jmp	0x11e	; 0x11e <__bad_interrupt>
      1c:	0c 94 8f 00 	jmp	0x11e	; 0x11e <__bad_interrupt>
      20:	0c 94 8f 00 	jmp	0x11e	; 0x11e <__bad_interrupt>
      24:	0c 94 8f 00 	jmp	0x11e	; 0x11e <__bad_interrupt>
      28:	0c 94 8f 00 	jmp	0x11e	; 0x11e <__bad_interrupt>
      2c:	0c 94 64 16 	jmp	0x2cc8	; 0x2cc8 <__vector_11>
      30:	0c 94 8f 00 	jmp	0x11e	; 0x11e <__bad_interrupt>
      34:	0c 94 8f 00 	jmp	0x11e	; 0x11e <__bad_interrupt>
      38:	0c 94 8f 00 	jmp	0x11e	; 0x11e <__bad_interrupt>
      3c:	0c 94 8f 00 	jmp	0x11e	; 0x11e <__bad_interrupt>
      40:	0c 94 8f 00 	jmp	0x11e	; 0x11e <__bad_interrupt>
      44:	0c 94 8f 00 	jmp	0x11e	; 0x11e <__bad_interrupt>
      48:	0c 94 8f 00 	jmp	0x11e	; 0x11e <__bad_interrupt>
      4c:	0c 94 8f 00 	jmp	0x11e	; 0x11e <__bad_interrupt>
      50:	0c 94 8f 00 	jmp	0x11e	; 0x11e <__bad_interrupt>
      54:	0c 94 8f 00 	jmp	0x11e	; 0x11e <__bad_interrupt>
      58:	0c 94 8f 00 	jmp	0x11e	; 0x11e <__bad_interrupt>
      5c:	0c 94 8f 00 	jmp	0x11e	; 0x11e <__bad_interrupt>
      60:	0c 94 8f 00 	jmp	0x11e	; 0x11e <__bad_interrupt>
      64:	0c 94 8f 00 	jmp	0x11e	; 0x11e <__bad_interrupt>
      68:	0c 94 8f 00 	jmp	0x11e	; 0x11e <__bad_interrupt>
      6c:	0c 94 8f 00 	jmp	0x11e	; 0x11e <__bad_interrupt>
      70:	0c 94 8f 00 	jmp	0x11e	; 0x11e <__bad_interrupt>
      74:	0c 94 8f 00 	jmp	0x11e	; 0x11e <__bad_interrupt>
      78:	0c 94 8f 00 	jmp	0x11e	; 0x11e <__bad_interrupt>
      7c:	0c 94 8f 00 	jmp	0x11e	; 0x11e <__bad_interrupt>
      80:	0c 94 8f 00 	jmp	0x11e	; 0x11e <__bad_interrupt>
      84:	0c 94 8f 00 	jmp	0x11e	; 0x11e <__bad_interrupt>
      88:	0c 94 8f 00 	jmp	0x11e	; 0x11e <__bad_interrupt>
      8c:	0c 94 8f 00 	jmp	0x11e	; 0x11e <__bad_interrupt>
      90:	0c 94 8f 00 	jmp	0x11e	; 0x11e <__bad_interrupt>
      94:	0c 94 8f 00 	jmp	0x11e	; 0x11e <__bad_interrupt>
      98:	0c 94 8f 00 	jmp	0x11e	; 0x11e <__bad_interrupt>
      9c:	0c 94 8f 00 	jmp	0x11e	; 0x11e <__bad_interrupt>
      a0:	0c 94 8f 00 	jmp	0x11e	; 0x11e <__bad_interrupt>
      a4:	0c 94 8f 00 	jmp	0x11e	; 0x11e <__bad_interrupt>
      a8:	0c 94 b1 16 	jmp	0x2d62	; 0x2d62 <__vector_42>
      ac:	0c 94 8f 00 	jmp	0x11e	; 0x11e <__bad_interrupt>
      b0:	0c 94 8f 00 	jmp	0x11e	; 0x11e <__bad_interrupt>
      b4:	0c 94 8f 00 	jmp	0x11e	; 0x11e <__bad_interrupt>
      b8:	0c 94 8f 00 	jmp	0x11e	; 0x11e <__bad_interrupt>
      bc:	0c 94 8f 00 	jmp	0x11e	; 0x11e <__bad_interrupt>
      c0:	0c 94 8f 00 	jmp	0x11e	; 0x11e <__bad_interrupt>
      c4:	0c 94 8f 00 	jmp	0x11e	; 0x11e <__bad_interrupt>
      c8:	0c 94 8f 00 	jmp	0x11e	; 0x11e <__bad_interrupt>
      cc:	0c 94 8f 00 	jmp	0x11e	; 0x11e <__bad_interrupt>
      d0:	0c 94 8f 00 	jmp	0x11e	; 0x11e <__bad_interrupt>
      d4:	0c 94 8f 00 	jmp	0x11e	; 0x11e <__bad_interrupt>
      d8:	0c 94 8f 00 	jmp	0x11e	; 0x11e <__bad_interrupt>
      dc:	0c 94 8f 00 	jmp	0x11e	; 0x11e <__bad_interrupt>
      e0:	0c 94 8f 00 	jmp	0x11e	; 0x11e <__bad_interrupt>

000000e4 <__ctors_end>:
      e4:	11 24       	eor	r1, r1
      e6:	1f be       	out	0x3f, r1	; 63
      e8:	cf ef       	ldi	r28, 0xFF	; 255
      ea:	d1 e2       	ldi	r29, 0x21	; 33
      ec:	de bf       	out	0x3e, r29	; 62
      ee:	cd bf       	out	0x3d, r28	; 61

000000f0 <__do_copy_data>:
      f0:	12 e0       	ldi	r17, 0x02	; 2
      f2:	a0 e0       	ldi	r26, 0x00	; 0
      f4:	b2 e0       	ldi	r27, 0x02	; 2
      f6:	e2 e1       	ldi	r30, 0x12	; 18
      f8:	f6 e3       	ldi	r31, 0x36	; 54
      fa:	02 c0       	rjmp	.+4      	; 0x100 <__do_copy_data+0x10>
      fc:	05 90       	lpm	r0, Z+
      fe:	0d 92       	st	X+, r0
     100:	a2 38       	cpi	r26, 0x82	; 130
     102:	b1 07       	cpc	r27, r17
     104:	d9 f7       	brne	.-10     	; 0xfc <__do_copy_data+0xc>

00000106 <__do_clear_bss>:
     106:	22 e0       	ldi	r18, 0x02	; 2
     108:	a2 e8       	ldi	r26, 0x82	; 130
     10a:	b2 e0       	ldi	r27, 0x02	; 2
     10c:	01 c0       	rjmp	.+2      	; 0x110 <.do_clear_bss_start>

0000010e <.do_clear_bss_loop>:
     10e:	1d 92       	st	X+, r1

00000110 <.do_clear_bss_start>:
     110:	a6 38       	cpi	r26, 0x86	; 134
     112:	b2 07       	cpc	r27, r18
     114:	e1 f7       	brne	.-8      	; 0x10e <.do_clear_bss_loop>
     116:	0e 94 d8 16 	call	0x2db0	; 0x2db0 <main>
     11a:	0c 94 07 1b 	jmp	0x360e	; 0x360e <_exit>

0000011e <__bad_interrupt>:
     11e:	0c 94 00 00 	jmp	0	; 0x0 <__vectors>

00000122 <_ZN15StateActionBase3runEv>:
		~StateActionBase() = default;
		
		virtual States check_transitions() { return States::NO_CHANGE; };
		
		virtual void entry() {};
		virtual void run() {};
     122:	08 95       	ret

00000124 <_ZN15StateActionBase4exitEv>:
		virtual void exit() {};
     124:	08 95       	ret

00000126 <_ZN9InitState17check_transitionsEv>:
	}
	
	States check_transitions() override {
		// Init pasa inmediatamente a calibración
		return States::Calibration;
	}
     126:	81 e0       	ldi	r24, 0x01	; 1
     128:	08 95       	ret

0000012a <_ZN16CalibrationState17check_transitionsEv>:
			}
			
		}
		
		States check_transitions() override {
			bool m1_rdy = status->sw1->getState() == M1_IS_UP;
     12a:	dc 01       	movw	r26, r24
     12c:	12 96       	adiw	r26, 0x02	; 2
     12e:	ed 91       	ld	r30, X+
     130:	fc 91       	ld	r31, X
     132:	13 97       	sbiw	r26, 0x03	; 3
     134:	a2 85       	ldd	r26, Z+10	; 0x0a
     136:	b3 85       	ldd	r27, Z+11	; 0x0b
		/* 
		 * ==== getState() ====
		 * Devuelve el estado acutal del actuador tras el filtrado.
		 *  - return: [SwState] Estado relativo en el que está el actuador.
		 */
		return currentState;
     138:	17 96       	adiw	r26, 0x07	; 7
     13a:	8c 91       	ld	r24, X
			bool m2_rdy = status->sw2->getState() == M2_IS_RIGHT;
     13c:	a4 85       	ldd	r26, Z+12	; 0x0c
     13e:	b5 85       	ldd	r27, Z+13	; 0x0d
		/* 
		 * ==== getState() ====
		 * Devuelve el estado acutal del actuador tras el filtrado.
		 *  - return: [SwState] Estado relativo en el que está el actuador.
		 */
		return currentState;
     140:	17 96       	adiw	r26, 0x07	; 7
     142:	9c 91       	ld	r25, X
			bool m3_rdy = status->sw3->getState() == M3_IS_FORWARD;
     144:	a6 85       	ldd	r26, Z+14	; 0x0e
     146:	b7 85       	ldd	r27, Z+15	; 0x0f
     148:	17 96       	adiw	r26, 0x07	; 7
     14a:	2c 91       	ld	r18, X
			bool m4_rdy = status->sw4->getState() == M4_IS_OPEN;
     14c:	a0 89       	ldd	r26, Z+16	; 0x10
     14e:	b1 89       	ldd	r27, Z+17	; 0x11
     150:	17 96       	adiw	r26, 0x07	; 7
     152:	3c 91       	ld	r19, X
			bool m5_rdy = status->sw5->getState() == M5_IS_DOWN;
     154:	02 88       	ldd	r0, Z+18	; 0x12
     156:	f3 89       	ldd	r31, Z+19	; 0x13
     158:	e0 2d       	mov	r30, r0
     15a:	47 81       	ldd	r20, Z+7	; 0x07
			
			if (m1_rdy && m2_rdy && m3_rdy && m4_rdy && m5_rdy) {
     15c:	81 30       	cpi	r24, 0x01	; 1
     15e:	51 f4       	brne	.+20     	; 0x174 <_ZN16CalibrationState17check_transitionsEv+0x4a>
     160:	92 30       	cpi	r25, 0x02	; 2
     162:	51 f4       	brne	.+20     	; 0x178 <_ZN16CalibrationState17check_transitionsEv+0x4e>
     164:	21 30       	cpi	r18, 0x01	; 1
     166:	51 f4       	brne	.+20     	; 0x17c <_ZN16CalibrationState17check_transitionsEv+0x52>
     168:	31 30       	cpi	r19, 0x01	; 1
     16a:	51 f4       	brne	.+20     	; 0x180 <_ZN16CalibrationState17check_transitionsEv+0x56>
     16c:	42 30       	cpi	r20, 0x02	; 2
     16e:	51 f0       	breq	.+20     	; 0x184 <_ZN16CalibrationState17check_transitionsEv+0x5a>
				return States::Idle;
			}
			return States::NO_CHANGE;
     170:	8f ef       	ldi	r24, 0xFF	; 255
     172:	08 95       	ret
     174:	8f ef       	ldi	r24, 0xFF	; 255
     176:	08 95       	ret
     178:	8f ef       	ldi	r24, 0xFF	; 255
     17a:	08 95       	ret
     17c:	8f ef       	ldi	r24, 0xFF	; 255
     17e:	08 95       	ret
     180:	8f ef       	ldi	r24, 0xFF	; 255
     182:	08 95       	ret
			bool m3_rdy = status->sw3->getState() == M3_IS_FORWARD;
			bool m4_rdy = status->sw4->getState() == M4_IS_OPEN;
			bool m5_rdy = status->sw5->getState() == M5_IS_DOWN;
			
			if (m1_rdy && m2_rdy && m3_rdy && m4_rdy && m5_rdy) {
				return States::Idle;
     184:	82 e0       	ldi	r24, 0x02	; 2
			}
			return States::NO_CHANGE;
		}
     186:	08 95       	ret

00000188 <_ZN9IdleState5entryEv>:

class IdleState : public StateActionBase {
	public:
		explicit IdleState(Status* s) : StateActionBase(s) {}
			
		void entry() override {
     188:	cf 93       	push	r28
     18a:	df 93       	push	r29
     18c:	dc 01       	movw	r26, r24
			status->led->on();
     18e:	12 96       	adiw	r26, 0x02	; 2
     190:	ed 91       	ld	r30, X+
     192:	fc 91       	ld	r31, X
     194:	13 97       	sbiw	r26, 0x03	; 3
     196:	06 88       	ldd	r0, Z+22	; 0x16
     198:	f7 89       	ldd	r31, Z+23	; 0x17
     19a:	e0 2d       	mov	r30, r0
		*ddrReg |= mask;	// Output
		*portReg &= ~mask;	// 0
	}
	
	void on() {
		isActive = true;
     19c:	81 e0       	ldi	r24, 0x01	; 1
     19e:	85 87       	std	Z+13, r24	; 0x0d
		*portReg |= mask;
     1a0:	c0 81       	ld	r28, Z
     1a2:	d1 81       	ldd	r29, Z+1	; 0x01
     1a4:	88 81       	ld	r24, Y
     1a6:	94 81       	ldd	r25, Z+4	; 0x04
     1a8:	98 2b       	or	r25, r24
     1aa:	98 83       	st	Y, r25
			status->game_running = false;
     1ac:	12 96       	adiw	r26, 0x02	; 2
     1ae:	ed 91       	ld	r30, X+
     1b0:	fc 91       	ld	r31, X
     1b2:	13 97       	sbiw	r26, 0x03	; 3
     1b4:	10 a2       	std	Z+32, r1	; 0x20
		}
     1b6:	df 91       	pop	r29
     1b8:	cf 91       	pop	r28
     1ba:	08 95       	ret

000001bc <_ZN9IdleState17check_transitionsEv>:
		
		States check_transitions() override {
			if (status->sw6->consumeClick()) {
     1bc:	dc 01       	movw	r26, r24
     1be:	12 96       	adiw	r26, 0x02	; 2
     1c0:	ed 91       	ld	r30, X+
     1c2:	fc 91       	ld	r31, X
     1c4:	13 97       	sbiw	r26, 0x03	; 3
     1c6:	04 88       	ldd	r0, Z+20	; 0x14
     1c8:	f5 89       	ldd	r31, Z+21	; 0x15
     1ca:	e0 2d       	mov	r30, r0
		/* 
		 * ==== consumeClick() ====
		 * Comprueba si se pulsó el switch y limpia la bandera.
		 *  - return: [bool] true si hubo un click no procesado, false en caso contrario.
		 */
		if (flagPressed) {
     1cc:	81 89       	ldd	r24, Z+17	; 0x11
     1ce:	81 11       	cpse	r24, r1
			flagPressed = false;
     1d0:	11 8a       	std	Z+17, r1	; 0x11
     1d2:	88 23       	and	r24, r24
     1d4:	11 f0       	breq	.+4      	; 0x1da <_ZN9IdleState17check_transitionsEv+0x1e>
				return States::Carga;
     1d6:	83 e0       	ldi	r24, 0x03	; 3
     1d8:	08 95       	ret
			}
			return States::NO_CHANGE;
     1da:	8f ef       	ldi	r24, 0xFF	; 255
		}
     1dc:	08 95       	ret

000001de <_ZN9IdleState4exitEv>:
		
		void exit() override {
     1de:	fc 01       	movw	r30, r24
			status->score = 0;
     1e0:	a2 81       	ldd	r26, Z+2	; 0x02
     1e2:	b3 81       	ldd	r27, Z+3	; 0x03
     1e4:	5e 96       	adiw	r26, 0x1e	; 30
     1e6:	1c 92       	st	X, r1
			status->game_start_time = status->current_time;
     1e8:	a2 81       	ldd	r26, Z+2	; 0x02
     1ea:	b3 81       	ldd	r27, Z+3	; 0x03
     1ec:	95 96       	adiw	r26, 0x25	; 37
     1ee:	4d 91       	ld	r20, X+
     1f0:	5d 91       	ld	r21, X+
     1f2:	6d 91       	ld	r22, X+
     1f4:	7c 91       	ld	r23, X
     1f6:	98 97       	sbiw	r26, 0x28	; 40
     1f8:	91 96       	adiw	r26, 0x21	; 33
     1fa:	4d 93       	st	X+, r20
     1fc:	5d 93       	st	X+, r21
     1fe:	6d 93       	st	X+, r22
     200:	7c 93       	st	X, r23
     202:	94 97       	sbiw	r26, 0x24	; 36
			status->is_last_turn = false;
     204:	a2 81       	ldd	r26, Z+2	; 0x02
     206:	b3 81       	ldd	r27, Z+3	; 0x03
     208:	5f 96       	adiw	r26, 0x1f	; 31
     20a:	1c 92       	st	X, r1
			status->game_running = true;
     20c:	a2 81       	ldd	r26, Z+2	; 0x02
     20e:	b3 81       	ldd	r27, Z+3	; 0x03
     210:	81 e0       	ldi	r24, 0x01	; 1
     212:	90 96       	adiw	r26, 0x20	; 32
     214:	8c 93       	st	X, r24
			status->pinsManager->reset();
     216:	a2 81       	ldd	r26, Z+2	; 0x02
     218:	b3 81       	ldd	r27, Z+3	; 0x03
     21a:	5a 96       	adiw	r26, 0x1a	; 26
     21c:	0d 90       	ld	r0, X+
     21e:	bc 91       	ld	r27, X
     220:	a0 2d       	mov	r26, r0
	}
	
	uint8_t getScore() {return score;}
		
	void reset() {
		pinsMask = 0b00111111;
     222:	8f e3       	ldi	r24, 0x3F	; 63
     224:	8c 93       	st	X, r24
		score = 0;
     226:	11 96       	adiw	r26, 0x01	; 1
     228:	1c 92       	st	X, r1
			status->led->off();
     22a:	02 80       	ldd	r0, Z+2	; 0x02
     22c:	f3 81       	ldd	r31, Z+3	; 0x03
     22e:	e0 2d       	mov	r30, r0
     230:	06 88       	ldd	r0, Z+22	; 0x16
     232:	f7 89       	ldd	r31, Z+23	; 0x17
     234:	e0 2d       	mov	r30, r0
	}
	
	void off() {
		isActive = false;
     236:	15 86       	std	Z+13, r1	; 0x0d
		*portReg &= ~mask;
     238:	a0 81       	ld	r26, Z
     23a:	b1 81       	ldd	r27, Z+1	; 0x01
     23c:	9c 91       	ld	r25, X
     23e:	84 81       	ldd	r24, Z+4	; 0x04
     240:	80 95       	com	r24
     242:	89 23       	and	r24, r25
     244:	8c 93       	st	X, r24
     246:	08 95       	ret

00000248 <_ZN10CargaState17check_transitionsEv>:
				step_m34 = 4;
			}
		}
		
		States check_transitions() override {
			if (step_m12==4 && step_m34 ==4) {
     248:	fc 01       	movw	r30, r24
     24a:	24 81       	ldd	r18, Z+4	; 0x04
     24c:	24 30       	cpi	r18, 0x04	; 4
     24e:	29 f4       	brne	.+10     	; 0x25a <_ZN10CargaState17check_transitionsEv+0x12>
     250:	85 81       	ldd	r24, Z+5	; 0x05
     252:	84 30       	cpi	r24, 0x04	; 4
     254:	21 f0       	breq	.+8      	; 0x25e <_ZN10CargaState17check_transitionsEv+0x16>
				return States::Armado;
			}
			return States::NO_CHANGE;
     256:	8f ef       	ldi	r24, 0xFF	; 255
     258:	08 95       	ret
     25a:	8f ef       	ldi	r24, 0xFF	; 255
     25c:	08 95       	ret
			}
		}
		
		States check_transitions() override {
			if (step_m12==4 && step_m34 ==4) {
				return States::Armado;
     25e:	84 e0       	ldi	r24, 0x04	; 4
			}
			return States::NO_CHANGE;
		}
     260:	08 95       	ret

00000262 <_ZN11ArmadoState17check_transitionsEv>:
				}
			}
		}
		
		States check_transitions() override {
			if (status->sw6->consumeClick()) {
     262:	dc 01       	movw	r26, r24
     264:	12 96       	adiw	r26, 0x02	; 2
     266:	ed 91       	ld	r30, X+
     268:	fc 91       	ld	r31, X
     26a:	13 97       	sbiw	r26, 0x03	; 3
     26c:	04 88       	ldd	r0, Z+20	; 0x14
     26e:	f5 89       	ldd	r31, Z+21	; 0x15
     270:	e0 2d       	mov	r30, r0
		/* 
		 * ==== consumeClick() ====
		 * Comprueba si se pulsó el switch y limpia la bandera.
		 *  - return: [bool] true si hubo un click no procesado, false en caso contrario.
		 */
		if (flagPressed) {
     272:	81 89       	ldd	r24, Z+17	; 0x11
     274:	81 11       	cpse	r24, r1
			flagPressed = false;
     276:	11 8a       	std	Z+17, r1	; 0x11
     278:	88 23       	and	r24, r24
     27a:	11 f0       	breq	.+4      	; 0x280 <_ZN11ArmadoState17check_transitionsEv+0x1e>
				return States::Disparo;
     27c:	85 e0       	ldi	r24, 0x05	; 5
     27e:	08 95       	ret
			}
			return States::NO_CHANGE;
     280:	8f ef       	ldi	r24, 0xFF	; 255
		}
     282:	08 95       	ret

00000284 <_ZN11ArmadoState4exitEv>:
		
		void exit() override {
     284:	cf 93       	push	r28
     286:	df 93       	push	r29
     288:	dc 01       	movw	r26, r24
			status->led->off();
     28a:	12 96       	adiw	r26, 0x02	; 2
     28c:	ed 91       	ld	r30, X+
     28e:	fc 91       	ld	r31, X
     290:	13 97       	sbiw	r26, 0x03	; 3
     292:	06 88       	ldd	r0, Z+22	; 0x16
     294:	f7 89       	ldd	r31, Z+23	; 0x17
     296:	e0 2d       	mov	r30, r0
		isActive = true;
		*portReg |= mask;
	}
	
	void off() {
		isActive = false;
     298:	15 86       	std	Z+13, r1	; 0x0d
		*portReg &= ~mask;
     29a:	c0 81       	ld	r28, Z
     29c:	d1 81       	ldd	r29, Z+1	; 0x01
     29e:	28 81       	ld	r18, Y
     2a0:	94 81       	ldd	r25, Z+4	; 0x04
     2a2:	90 95       	com	r25
     2a4:	92 23       	and	r25, r18
     2a6:	98 83       	st	Y, r25
			status->m2->stop();
     2a8:	12 96       	adiw	r26, 0x02	; 2
     2aa:	ed 91       	ld	r30, X+
     2ac:	fc 91       	ld	r31, X
     2ae:	13 97       	sbiw	r26, 0x03	; 3
     2b0:	02 80       	ldd	r0, Z+2	; 0x02
     2b2:	f3 81       	ldd	r31, Z+3	; 0x03
     2b4:	e0 2d       	mov	r30, r0
		/* 
		 * ==== setSpeed(bool speed) ====
		 * Establece la velociad de rotación del motor.
		 *  - speed: [uint8_t] Velocidad (PWM) de rotación.
		 */
		*ocrPWM = speed;
     2b6:	a2 85       	ldd	r26, Z+10	; 0x0a
     2b8:	b3 85       	ldd	r27, Z+11	; 0x0b
     2ba:	1c 92       	st	X, r1
		/* 
		 * ==== stop() ====
		 * Para el motor, y resetea las variables de estado.
		 */
		setSpeed(0);
		*portEN &= ~maskEN;
     2bc:	a5 81       	ldd	r26, Z+5	; 0x05
     2be:	b6 81       	ldd	r27, Z+6	; 0x06
     2c0:	9c 91       	ld	r25, X
     2c2:	81 85       	ldd	r24, Z+9	; 0x09
     2c4:	80 95       	com	r24
     2c6:	89 23       	and	r24, r25
     2c8:	8c 93       	st	X, r24
		isMoving = false;
     2ca:	16 86       	std	Z+14, r1	; 0x0e
		}
     2cc:	df 91       	pop	r29
     2ce:	cf 91       	pop	r28
     2d0:	08 95       	ret

000002d2 <_ZN12DisparoState17check_transitionsEv>:
		else if (step_m34 == 3 && status->sw3->getState() == M3_IS_BACKWARD) {
			step_m34 = 4;
		}
	}

	States check_transitions() override {
     2d2:	fc 01       	movw	r30, r24
		if ((status->current_time - start_time >= 5000) && m2_finished && (step_m34 == 4)) {
     2d4:	a2 81       	ldd	r26, Z+2	; 0x02
     2d6:	b3 81       	ldd	r27, Z+3	; 0x03
     2d8:	95 96       	adiw	r26, 0x25	; 37
     2da:	4d 91       	ld	r20, X+
     2dc:	5d 91       	ld	r21, X+
     2de:	6d 91       	ld	r22, X+
     2e0:	7c 91       	ld	r23, X
     2e2:	98 97       	sbiw	r26, 0x28	; 40
     2e4:	84 81       	ldd	r24, Z+4	; 0x04
     2e6:	95 81       	ldd	r25, Z+5	; 0x05
     2e8:	a6 81       	ldd	r26, Z+6	; 0x06
     2ea:	b7 81       	ldd	r27, Z+7	; 0x07
     2ec:	48 1b       	sub	r20, r24
     2ee:	59 0b       	sbc	r21, r25
     2f0:	6a 0b       	sbc	r22, r26
     2f2:	7b 0b       	sbc	r23, r27
     2f4:	48 38       	cpi	r20, 0x88	; 136
     2f6:	53 41       	sbci	r21, 0x13	; 19
     2f8:	61 05       	cpc	r22, r1
     2fa:	71 05       	cpc	r23, r1
     2fc:	40 f0       	brcs	.+16     	; 0x30e <_ZN12DisparoState17check_transitionsEv+0x3c>
     2fe:	81 85       	ldd	r24, Z+9	; 0x09
     300:	88 23       	and	r24, r24
     302:	39 f0       	breq	.+14     	; 0x312 <_ZN12DisparoState17check_transitionsEv+0x40>
     304:	80 85       	ldd	r24, Z+8	; 0x08
     306:	84 30       	cpi	r24, 0x04	; 4
     308:	31 f0       	breq	.+12     	; 0x316 <_ZN12DisparoState17check_transitionsEv+0x44>
			return States::Retorno;
		}
		return States::NO_CHANGE;
     30a:	8f ef       	ldi	r24, 0xFF	; 255
     30c:	08 95       	ret
     30e:	8f ef       	ldi	r24, 0xFF	; 255
     310:	08 95       	ret
     312:	8f ef       	ldi	r24, 0xFF	; 255
     314:	08 95       	ret
		}
	}

	States check_transitions() override {
		if ((status->current_time - start_time >= 5000) && m2_finished && (step_m34 == 4)) {
			return States::Retorno;
     316:	86 e0       	ldi	r24, 0x06	; 6
		}
		return States::NO_CHANGE;
	}
     318:	08 95       	ret

0000031a <_ZN12DisparoState4exitEv>:
	
	void exit() override {
     31a:	cf 93       	push	r28
     31c:	df 93       	push	r29
     31e:	fc 01       	movw	r30, r24
		status->score += status->pinsManager->getScore();
     320:	a2 81       	ldd	r26, Z+2	; 0x02
     322:	b3 81       	ldd	r27, Z+3	; 0x03
     324:	5a 96       	adiw	r26, 0x1a	; 26
     326:	cd 91       	ld	r28, X+
     328:	dc 91       	ld	r29, X
     32a:	5b 97       	sbiw	r26, 0x1b	; 27
				pinsMask &= ~(1<<i);	// Marcamos bolo como caido
			}
		}
	}
	
	uint8_t getScore() {return score;}
     32c:	89 81       	ldd	r24, Y+1	; 0x01
     32e:	5e 96       	adiw	r26, 0x1e	; 30
     330:	9c 91       	ld	r25, X
     332:	5e 97       	sbiw	r26, 0x1e	; 30
     334:	89 0f       	add	r24, r25
     336:	5e 96       	adiw	r26, 0x1e	; 30
     338:	8c 93       	st	X, r24
		status->display->setScore(status->score);
     33a:	a2 81       	ldd	r26, Z+2	; 0x02
     33c:	b3 81       	ldd	r27, Z+3	; 0x03
     33e:	5e 96       	adiw	r26, 0x1e	; 30
     340:	8c 91       	ld	r24, X
     342:	5e 97       	sbiw	r26, 0x1e	; 30
     344:	58 96       	adiw	r26, 0x18	; 24
     346:	0d 90       	ld	r0, X+
     348:	bc 91       	ld	r27, X
     34a:	a0 2d       	mov	r26, r0
			}
		}
	}
	
	void setScore(uint8_t score) {
		if (score > 99) score = 99;
     34c:	84 36       	cpi	r24, 0x64	; 100
     34e:	08 f0       	brcs	.+2      	; 0x352 <_ZN12DisparoState4exitEv+0x38>
     350:	83 e6       	ldi	r24, 0x63	; 99
		currentScore = score; 
     352:	98 96       	adiw	r26, 0x28	; 40
     354:	8c 93       	st	X, r24
		
		status->pinsManager->reset();
     356:	02 80       	ldd	r0, Z+2	; 0x02
     358:	f3 81       	ldd	r31, Z+3	; 0x03
     35a:	e0 2d       	mov	r30, r0
     35c:	02 8c       	ldd	r0, Z+26	; 0x1a
     35e:	f3 8d       	ldd	r31, Z+27	; 0x1b
     360:	e0 2d       	mov	r30, r0
		
	void reset() {
		pinsMask = 0b00111111;
     362:	8f e3       	ldi	r24, 0x3F	; 63
     364:	80 83       	st	Z, r24
		score = 0;
     366:	11 82       	std	Z+1, r1	; 0x01
	}
     368:	df 91       	pop	r29
     36a:	cf 91       	pop	r28
     36c:	08 95       	ret

0000036e <_ZN12RetornoState17check_transitionsEv>:
			step = 4;
		}
	}

	States check_transitions() override {
		if (step == 4) {
     36e:	dc 01       	movw	r26, r24
     370:	14 96       	adiw	r26, 0x04	; 4
     372:	2c 91       	ld	r18, X
     374:	14 97       	sbiw	r26, 0x04	; 4
     376:	24 30       	cpi	r18, 0x04	; 4
     378:	49 f4       	brne	.+18     	; 0x38c <_ZN12RetornoState17check_transitionsEv+0x1e>
			if (status->is_last_turn) return States::Idle;
     37a:	12 96       	adiw	r26, 0x02	; 2
     37c:	ed 91       	ld	r30, X+
     37e:	fc 91       	ld	r31, X
     380:	13 97       	sbiw	r26, 0x03	; 3
     382:	87 8d       	ldd	r24, Z+31	; 0x1f
     384:	88 23       	and	r24, r24
     386:	21 f0       	breq	.+8      	; 0x390 <_ZN12RetornoState17check_transitionsEv+0x22>
     388:	82 e0       	ldi	r24, 0x02	; 2
     38a:	08 95       	ret
			return States::Carga;
		}
		return States::NO_CHANGE;
     38c:	8f ef       	ldi	r24, 0xFF	; 255
     38e:	08 95       	ret
	}

	States check_transitions() override {
		if (step == 4) {
			if (status->is_last_turn) return States::Idle;
			return States::Carga;
     390:	83 e0       	ldi	r24, 0x03	; 3
		}
		return States::NO_CHANGE;
	}
     392:	08 95       	ret

00000394 <_ZN9InitState5entryEv>:

class InitState : public StateActionBase {
	public:
	explicit InitState(Status* s) : StateActionBase(s) {}
		
	void entry() override {
     394:	cf 93       	push	r28
     396:	df 93       	push	r29
     398:	fc 01       	movw	r30, r24
		// Inicialización de Clases
		status->sw1->init(); status->sw2->init(); status->sw3->init(); status->sw4->init(); status->sw5->init(); status->sw6->init();
     39a:	a2 81       	ldd	r26, Z+2	; 0x02
     39c:	b3 81       	ldd	r27, Z+3	; 0x03
     39e:	1a 96       	adiw	r26, 0x0a	; 10
     3a0:	0d 90       	ld	r0, X+
     3a2:	bc 91       	ld	r27, X
     3a4:	a0 2d       	mov	r26, r0
	void init() {
		/* 
		 * ==== init() ====
		 * Configura el pin como entrada y activa resistencia pull-up interna.
		 */
		*ddrReg &= ~mask;	// Input
     3a6:	14 96       	adiw	r26, 0x04	; 4
     3a8:	cd 91       	ld	r28, X+
     3aa:	dc 91       	ld	r29, X
     3ac:	15 97       	sbiw	r26, 0x05	; 5
     3ae:	98 81       	ld	r25, Y
     3b0:	16 96       	adiw	r26, 0x06	; 6
     3b2:	8c 91       	ld	r24, X
     3b4:	16 97       	sbiw	r26, 0x06	; 6
     3b6:	80 95       	com	r24
     3b8:	89 23       	and	r24, r25
     3ba:	88 83       	st	Y, r24
		*portReg |= mask;	// Pull-up
     3bc:	12 96       	adiw	r26, 0x02	; 2
     3be:	cd 91       	ld	r28, X+
     3c0:	dc 91       	ld	r29, X
     3c2:	13 97       	sbiw	r26, 0x03	; 3
     3c4:	98 81       	ld	r25, Y
     3c6:	16 96       	adiw	r26, 0x06	; 6
     3c8:	8c 91       	ld	r24, X
     3ca:	89 2b       	or	r24, r25
     3cc:	88 83       	st	Y, r24
     3ce:	a2 81       	ldd	r26, Z+2	; 0x02
     3d0:	b3 81       	ldd	r27, Z+3	; 0x03
     3d2:	1c 96       	adiw	r26, 0x0c	; 12
     3d4:	0d 90       	ld	r0, X+
     3d6:	bc 91       	ld	r27, X
     3d8:	a0 2d       	mov	r26, r0
	void init() {
		/* 
		 * ==== init() ====
		 * Configura el pin como entrada y activa resistencia pull-up interna.
		 */
		*ddrReg &= ~mask;	// Input
     3da:	14 96       	adiw	r26, 0x04	; 4
     3dc:	cd 91       	ld	r28, X+
     3de:	dc 91       	ld	r29, X
     3e0:	15 97       	sbiw	r26, 0x05	; 5
     3e2:	98 81       	ld	r25, Y
     3e4:	16 96       	adiw	r26, 0x06	; 6
     3e6:	8c 91       	ld	r24, X
     3e8:	16 97       	sbiw	r26, 0x06	; 6
     3ea:	80 95       	com	r24
     3ec:	89 23       	and	r24, r25
     3ee:	88 83       	st	Y, r24
		*portReg |= mask;	// Pull-up
     3f0:	12 96       	adiw	r26, 0x02	; 2
     3f2:	cd 91       	ld	r28, X+
     3f4:	dc 91       	ld	r29, X
     3f6:	13 97       	sbiw	r26, 0x03	; 3
     3f8:	98 81       	ld	r25, Y
     3fa:	16 96       	adiw	r26, 0x06	; 6
     3fc:	8c 91       	ld	r24, X
     3fe:	89 2b       	or	r24, r25
     400:	88 83       	st	Y, r24
     402:	a2 81       	ldd	r26, Z+2	; 0x02
     404:	b3 81       	ldd	r27, Z+3	; 0x03
     406:	1e 96       	adiw	r26, 0x0e	; 14
     408:	0d 90       	ld	r0, X+
     40a:	bc 91       	ld	r27, X
     40c:	a0 2d       	mov	r26, r0
	void init() {
		/* 
		 * ==== init() ====
		 * Configura el pin como entrada y activa resistencia pull-up interna.
		 */
		*ddrReg &= ~mask;	// Input
     40e:	14 96       	adiw	r26, 0x04	; 4
     410:	cd 91       	ld	r28, X+
     412:	dc 91       	ld	r29, X
     414:	15 97       	sbiw	r26, 0x05	; 5
     416:	98 81       	ld	r25, Y
     418:	16 96       	adiw	r26, 0x06	; 6
     41a:	8c 91       	ld	r24, X
     41c:	16 97       	sbiw	r26, 0x06	; 6
     41e:	80 95       	com	r24
     420:	89 23       	and	r24, r25
     422:	88 83       	st	Y, r24
		*portReg |= mask;	// Pull-up
     424:	12 96       	adiw	r26, 0x02	; 2
     426:	cd 91       	ld	r28, X+
     428:	dc 91       	ld	r29, X
     42a:	13 97       	sbiw	r26, 0x03	; 3
     42c:	98 81       	ld	r25, Y
     42e:	16 96       	adiw	r26, 0x06	; 6
     430:	8c 91       	ld	r24, X
     432:	89 2b       	or	r24, r25
     434:	88 83       	st	Y, r24
     436:	a2 81       	ldd	r26, Z+2	; 0x02
     438:	b3 81       	ldd	r27, Z+3	; 0x03
     43a:	50 96       	adiw	r26, 0x10	; 16
     43c:	0d 90       	ld	r0, X+
     43e:	bc 91       	ld	r27, X
     440:	a0 2d       	mov	r26, r0
	void init() {
		/* 
		 * ==== init() ====
		 * Configura el pin como entrada y activa resistencia pull-up interna.
		 */
		*ddrReg &= ~mask;	// Input
     442:	14 96       	adiw	r26, 0x04	; 4
     444:	cd 91       	ld	r28, X+
     446:	dc 91       	ld	r29, X
     448:	15 97       	sbiw	r26, 0x05	; 5
     44a:	98 81       	ld	r25, Y
     44c:	16 96       	adiw	r26, 0x06	; 6
     44e:	8c 91       	ld	r24, X
     450:	16 97       	sbiw	r26, 0x06	; 6
     452:	80 95       	com	r24
     454:	89 23       	and	r24, r25
     456:	88 83       	st	Y, r24
		*portReg |= mask;	// Pull-up
     458:	12 96       	adiw	r26, 0x02	; 2
     45a:	cd 91       	ld	r28, X+
     45c:	dc 91       	ld	r29, X
     45e:	13 97       	sbiw	r26, 0x03	; 3
     460:	98 81       	ld	r25, Y
     462:	16 96       	adiw	r26, 0x06	; 6
     464:	8c 91       	ld	r24, X
     466:	89 2b       	or	r24, r25
     468:	88 83       	st	Y, r24
     46a:	a2 81       	ldd	r26, Z+2	; 0x02
     46c:	b3 81       	ldd	r27, Z+3	; 0x03
     46e:	52 96       	adiw	r26, 0x12	; 18
     470:	0d 90       	ld	r0, X+
     472:	bc 91       	ld	r27, X
     474:	a0 2d       	mov	r26, r0
	void init() {
		/* 
		 * ==== init() ====
		 * Configura el pin como entrada y activa resistencia pull-up interna.
		 */
		*ddrReg &= ~mask;	// Input
     476:	14 96       	adiw	r26, 0x04	; 4
     478:	cd 91       	ld	r28, X+
     47a:	dc 91       	ld	r29, X
     47c:	15 97       	sbiw	r26, 0x05	; 5
     47e:	98 81       	ld	r25, Y
     480:	16 96       	adiw	r26, 0x06	; 6
     482:	8c 91       	ld	r24, X
     484:	16 97       	sbiw	r26, 0x06	; 6
     486:	80 95       	com	r24
     488:	89 23       	and	r24, r25
     48a:	88 83       	st	Y, r24
		*portReg |= mask;	// Pull-up
     48c:	12 96       	adiw	r26, 0x02	; 2
     48e:	cd 91       	ld	r28, X+
     490:	dc 91       	ld	r29, X
     492:	13 97       	sbiw	r26, 0x03	; 3
     494:	98 81       	ld	r25, Y
     496:	16 96       	adiw	r26, 0x06	; 6
     498:	8c 91       	ld	r24, X
     49a:	89 2b       	or	r24, r25
     49c:	88 83       	st	Y, r24
     49e:	a2 81       	ldd	r26, Z+2	; 0x02
     4a0:	b3 81       	ldd	r27, Z+3	; 0x03
     4a2:	54 96       	adiw	r26, 0x14	; 20
     4a4:	0d 90       	ld	r0, X+
     4a6:	bc 91       	ld	r27, X
     4a8:	a0 2d       	mov	r26, r0
	void init() {
		/* 
		 * ==== init() ====
		 * Configura el pin como entrada y activa resistencia pull-up interna.
		 */
		*ddrReg &= ~mask;	// Input
     4aa:	14 96       	adiw	r26, 0x04	; 4
     4ac:	cd 91       	ld	r28, X+
     4ae:	dc 91       	ld	r29, X
     4b0:	15 97       	sbiw	r26, 0x05	; 5
     4b2:	98 81       	ld	r25, Y
     4b4:	16 96       	adiw	r26, 0x06	; 6
     4b6:	8c 91       	ld	r24, X
     4b8:	16 97       	sbiw	r26, 0x06	; 6
     4ba:	80 95       	com	r24
     4bc:	89 23       	and	r24, r25
     4be:	88 83       	st	Y, r24
		*portReg |= mask;	// Pull-up
     4c0:	12 96       	adiw	r26, 0x02	; 2
     4c2:	cd 91       	ld	r28, X+
     4c4:	dc 91       	ld	r29, X
     4c6:	13 97       	sbiw	r26, 0x03	; 3
     4c8:	98 81       	ld	r25, Y
     4ca:	16 96       	adiw	r26, 0x06	; 6
     4cc:	8c 91       	ld	r24, X
     4ce:	89 2b       	or	r24, r25
     4d0:	88 83       	st	Y, r24
		status->m1->init(); status->m2->init(); status->m3->init(); status->m4->init(); status->m5->init();
     4d2:	a2 81       	ldd	r26, Z+2	; 0x02
     4d4:	b3 81       	ldd	r27, Z+3	; 0x03
     4d6:	0d 90       	ld	r0, X+
     4d8:	bc 91       	ld	r27, X
     4da:	a0 2d       	mov	r26, r0
	void init() {
		/* 
		 * ==== init() ====
		 * Configura ambos pines como salida e inicializa velocidad 0.
		 */
		*ddrDIR |= maskDIR;	// Output
     4dc:	12 96       	adiw	r26, 0x02	; 2
     4de:	cd 91       	ld	r28, X+
     4e0:	dc 91       	ld	r29, X
     4e2:	13 97       	sbiw	r26, 0x03	; 3
     4e4:	98 81       	ld	r25, Y
     4e6:	14 96       	adiw	r26, 0x04	; 4
     4e8:	8c 91       	ld	r24, X
     4ea:	14 97       	sbiw	r26, 0x04	; 4
     4ec:	89 2b       	or	r24, r25
     4ee:	88 83       	st	Y, r24
		*ddrEN |= maskEN;	// Output
     4f0:	17 96       	adiw	r26, 0x07	; 7
     4f2:	cd 91       	ld	r28, X+
     4f4:	dc 91       	ld	r29, X
     4f6:	18 97       	sbiw	r26, 0x08	; 8
     4f8:	98 81       	ld	r25, Y
     4fa:	19 96       	adiw	r26, 0x09	; 9
     4fc:	8c 91       	ld	r24, X
     4fe:	19 97       	sbiw	r26, 0x09	; 9
     500:	89 2b       	or	r24, r25
     502:	88 83       	st	Y, r24
		*portDIR &= ~maskDIR;
     504:	cd 91       	ld	r28, X+
     506:	dc 91       	ld	r29, X
     508:	11 97       	sbiw	r26, 0x01	; 1
     50a:	98 81       	ld	r25, Y
     50c:	14 96       	adiw	r26, 0x04	; 4
     50e:	8c 91       	ld	r24, X
     510:	14 97       	sbiw	r26, 0x04	; 4
     512:	80 95       	com	r24
     514:	89 23       	and	r24, r25
     516:	88 83       	st	Y, r24
		*portEN &= ~maskEN;
     518:	15 96       	adiw	r26, 0x05	; 5
     51a:	cd 91       	ld	r28, X+
     51c:	dc 91       	ld	r29, X
     51e:	16 97       	sbiw	r26, 0x06	; 6
     520:	98 81       	ld	r25, Y
     522:	19 96       	adiw	r26, 0x09	; 9
     524:	8c 91       	ld	r24, X
     526:	19 97       	sbiw	r26, 0x09	; 9
     528:	80 95       	com	r24
     52a:	89 23       	and	r24, r25
     52c:	88 83       	st	Y, r24
		
		*ocrPWM = 0;
     52e:	1a 96       	adiw	r26, 0x0a	; 10
     530:	0d 90       	ld	r0, X+
     532:	bc 91       	ld	r27, X
     534:	a0 2d       	mov	r26, r0
     536:	1c 92       	st	X, r1
     538:	a2 81       	ldd	r26, Z+2	; 0x02
     53a:	b3 81       	ldd	r27, Z+3	; 0x03
     53c:	12 96       	adiw	r26, 0x02	; 2
     53e:	0d 90       	ld	r0, X+
     540:	bc 91       	ld	r27, X
     542:	a0 2d       	mov	r26, r0
	void init() {
		/* 
		 * ==== init() ====
		 * Configura ambos pines como salida e inicializa velocidad 0.
		 */
		*ddrDIR |= maskDIR;	// Output
     544:	12 96       	adiw	r26, 0x02	; 2
     546:	cd 91       	ld	r28, X+
     548:	dc 91       	ld	r29, X
     54a:	13 97       	sbiw	r26, 0x03	; 3
     54c:	98 81       	ld	r25, Y
     54e:	14 96       	adiw	r26, 0x04	; 4
     550:	8c 91       	ld	r24, X
     552:	14 97       	sbiw	r26, 0x04	; 4
     554:	89 2b       	or	r24, r25
     556:	88 83       	st	Y, r24
		*ddrEN |= maskEN;	// Output
     558:	17 96       	adiw	r26, 0x07	; 7
     55a:	cd 91       	ld	r28, X+
     55c:	dc 91       	ld	r29, X
     55e:	18 97       	sbiw	r26, 0x08	; 8
     560:	98 81       	ld	r25, Y
     562:	19 96       	adiw	r26, 0x09	; 9
     564:	8c 91       	ld	r24, X
     566:	19 97       	sbiw	r26, 0x09	; 9
     568:	89 2b       	or	r24, r25
     56a:	88 83       	st	Y, r24
		*portDIR &= ~maskDIR;
     56c:	cd 91       	ld	r28, X+
     56e:	dc 91       	ld	r29, X
     570:	11 97       	sbiw	r26, 0x01	; 1
     572:	98 81       	ld	r25, Y
     574:	14 96       	adiw	r26, 0x04	; 4
     576:	8c 91       	ld	r24, X
     578:	14 97       	sbiw	r26, 0x04	; 4
     57a:	80 95       	com	r24
     57c:	89 23       	and	r24, r25
     57e:	88 83       	st	Y, r24
		*portEN &= ~maskEN;
     580:	15 96       	adiw	r26, 0x05	; 5
     582:	cd 91       	ld	r28, X+
     584:	dc 91       	ld	r29, X
     586:	16 97       	sbiw	r26, 0x06	; 6
     588:	98 81       	ld	r25, Y
     58a:	19 96       	adiw	r26, 0x09	; 9
     58c:	8c 91       	ld	r24, X
     58e:	19 97       	sbiw	r26, 0x09	; 9
     590:	80 95       	com	r24
     592:	89 23       	and	r24, r25
     594:	88 83       	st	Y, r24
		
		*ocrPWM = 0;
     596:	1a 96       	adiw	r26, 0x0a	; 10
     598:	0d 90       	ld	r0, X+
     59a:	bc 91       	ld	r27, X
     59c:	a0 2d       	mov	r26, r0
     59e:	1c 92       	st	X, r1
     5a0:	a2 81       	ldd	r26, Z+2	; 0x02
     5a2:	b3 81       	ldd	r27, Z+3	; 0x03
     5a4:	14 96       	adiw	r26, 0x04	; 4
     5a6:	0d 90       	ld	r0, X+
     5a8:	bc 91       	ld	r27, X
     5aa:	a0 2d       	mov	r26, r0
	void init() {
		/* 
		 * ==== init() ====
		 * Configura ambos pines como salida e inicializa velocidad 0.
		 */
		*ddrDIR |= maskDIR;	// Output
     5ac:	12 96       	adiw	r26, 0x02	; 2
     5ae:	cd 91       	ld	r28, X+
     5b0:	dc 91       	ld	r29, X
     5b2:	13 97       	sbiw	r26, 0x03	; 3
     5b4:	98 81       	ld	r25, Y
     5b6:	14 96       	adiw	r26, 0x04	; 4
     5b8:	8c 91       	ld	r24, X
     5ba:	14 97       	sbiw	r26, 0x04	; 4
     5bc:	89 2b       	or	r24, r25
     5be:	88 83       	st	Y, r24
		*ddrEN |= maskEN;	// Output
     5c0:	17 96       	adiw	r26, 0x07	; 7
     5c2:	cd 91       	ld	r28, X+
     5c4:	dc 91       	ld	r29, X
     5c6:	18 97       	sbiw	r26, 0x08	; 8
     5c8:	98 81       	ld	r25, Y
     5ca:	19 96       	adiw	r26, 0x09	; 9
     5cc:	8c 91       	ld	r24, X
     5ce:	19 97       	sbiw	r26, 0x09	; 9
     5d0:	89 2b       	or	r24, r25
     5d2:	88 83       	st	Y, r24
		*portDIR &= ~maskDIR;
     5d4:	cd 91       	ld	r28, X+
     5d6:	dc 91       	ld	r29, X
     5d8:	11 97       	sbiw	r26, 0x01	; 1
     5da:	98 81       	ld	r25, Y
     5dc:	14 96       	adiw	r26, 0x04	; 4
     5de:	8c 91       	ld	r24, X
     5e0:	14 97       	sbiw	r26, 0x04	; 4
     5e2:	80 95       	com	r24
     5e4:	89 23       	and	r24, r25
     5e6:	88 83       	st	Y, r24
		*portEN &= ~maskEN;
     5e8:	15 96       	adiw	r26, 0x05	; 5
     5ea:	cd 91       	ld	r28, X+
     5ec:	dc 91       	ld	r29, X
     5ee:	16 97       	sbiw	r26, 0x06	; 6
     5f0:	98 81       	ld	r25, Y
     5f2:	19 96       	adiw	r26, 0x09	; 9
     5f4:	8c 91       	ld	r24, X
     5f6:	19 97       	sbiw	r26, 0x09	; 9
     5f8:	80 95       	com	r24
     5fa:	89 23       	and	r24, r25
     5fc:	88 83       	st	Y, r24
		
		*ocrPWM = 0;
     5fe:	1a 96       	adiw	r26, 0x0a	; 10
     600:	0d 90       	ld	r0, X+
     602:	bc 91       	ld	r27, X
     604:	a0 2d       	mov	r26, r0
     606:	1c 92       	st	X, r1
     608:	a2 81       	ldd	r26, Z+2	; 0x02
     60a:	b3 81       	ldd	r27, Z+3	; 0x03
     60c:	16 96       	adiw	r26, 0x06	; 6
     60e:	0d 90       	ld	r0, X+
     610:	bc 91       	ld	r27, X
     612:	a0 2d       	mov	r26, r0
	void init() {
		/* 
		 * ==== init() ====
		 * Configura ambos pines como salida e inicializa velocidad 0.
		 */
		*ddrDIR |= maskDIR;	// Output
     614:	12 96       	adiw	r26, 0x02	; 2
     616:	cd 91       	ld	r28, X+
     618:	dc 91       	ld	r29, X
     61a:	13 97       	sbiw	r26, 0x03	; 3
     61c:	98 81       	ld	r25, Y
     61e:	14 96       	adiw	r26, 0x04	; 4
     620:	8c 91       	ld	r24, X
     622:	14 97       	sbiw	r26, 0x04	; 4
     624:	89 2b       	or	r24, r25
     626:	88 83       	st	Y, r24
		*ddrEN |= maskEN;	// Output
     628:	17 96       	adiw	r26, 0x07	; 7
     62a:	cd 91       	ld	r28, X+
     62c:	dc 91       	ld	r29, X
     62e:	18 97       	sbiw	r26, 0x08	; 8
     630:	98 81       	ld	r25, Y
     632:	19 96       	adiw	r26, 0x09	; 9
     634:	8c 91       	ld	r24, X
     636:	19 97       	sbiw	r26, 0x09	; 9
     638:	89 2b       	or	r24, r25
     63a:	88 83       	st	Y, r24
		*portDIR &= ~maskDIR;
     63c:	cd 91       	ld	r28, X+
     63e:	dc 91       	ld	r29, X
     640:	11 97       	sbiw	r26, 0x01	; 1
     642:	98 81       	ld	r25, Y
     644:	14 96       	adiw	r26, 0x04	; 4
     646:	8c 91       	ld	r24, X
     648:	14 97       	sbiw	r26, 0x04	; 4
     64a:	80 95       	com	r24
     64c:	89 23       	and	r24, r25
     64e:	88 83       	st	Y, r24
		*portEN &= ~maskEN;
     650:	15 96       	adiw	r26, 0x05	; 5
     652:	cd 91       	ld	r28, X+
     654:	dc 91       	ld	r29, X
     656:	16 97       	sbiw	r26, 0x06	; 6
     658:	98 81       	ld	r25, Y
     65a:	19 96       	adiw	r26, 0x09	; 9
     65c:	8c 91       	ld	r24, X
     65e:	19 97       	sbiw	r26, 0x09	; 9
     660:	80 95       	com	r24
     662:	89 23       	and	r24, r25
     664:	88 83       	st	Y, r24
		
		*ocrPWM = 0;
     666:	1a 96       	adiw	r26, 0x0a	; 10
     668:	0d 90       	ld	r0, X+
     66a:	bc 91       	ld	r27, X
     66c:	a0 2d       	mov	r26, r0
     66e:	1c 92       	st	X, r1
     670:	a2 81       	ldd	r26, Z+2	; 0x02
     672:	b3 81       	ldd	r27, Z+3	; 0x03
     674:	18 96       	adiw	r26, 0x08	; 8
     676:	0d 90       	ld	r0, X+
     678:	bc 91       	ld	r27, X
     67a:	a0 2d       	mov	r26, r0
	void init() {
		/* 
		 * ==== init() ====
		 * Configura ambos pines como salida e inicializa velocidad 0.
		 */
		*ddrDIR |= maskDIR;	// Output
     67c:	12 96       	adiw	r26, 0x02	; 2
     67e:	cd 91       	ld	r28, X+
     680:	dc 91       	ld	r29, X
     682:	13 97       	sbiw	r26, 0x03	; 3
     684:	98 81       	ld	r25, Y
     686:	14 96       	adiw	r26, 0x04	; 4
     688:	8c 91       	ld	r24, X
     68a:	14 97       	sbiw	r26, 0x04	; 4
     68c:	89 2b       	or	r24, r25
     68e:	88 83       	st	Y, r24
		*ddrEN |= maskEN;	// Output
     690:	17 96       	adiw	r26, 0x07	; 7
     692:	cd 91       	ld	r28, X+
     694:	dc 91       	ld	r29, X
     696:	18 97       	sbiw	r26, 0x08	; 8
     698:	98 81       	ld	r25, Y
     69a:	19 96       	adiw	r26, 0x09	; 9
     69c:	8c 91       	ld	r24, X
     69e:	19 97       	sbiw	r26, 0x09	; 9
     6a0:	89 2b       	or	r24, r25
     6a2:	88 83       	st	Y, r24
		*portDIR &= ~maskDIR;
     6a4:	cd 91       	ld	r28, X+
     6a6:	dc 91       	ld	r29, X
     6a8:	11 97       	sbiw	r26, 0x01	; 1
     6aa:	98 81       	ld	r25, Y
     6ac:	14 96       	adiw	r26, 0x04	; 4
     6ae:	8c 91       	ld	r24, X
     6b0:	14 97       	sbiw	r26, 0x04	; 4
     6b2:	80 95       	com	r24
     6b4:	89 23       	and	r24, r25
     6b6:	88 83       	st	Y, r24
		*portEN &= ~maskEN;
     6b8:	15 96       	adiw	r26, 0x05	; 5
     6ba:	cd 91       	ld	r28, X+
     6bc:	dc 91       	ld	r29, X
     6be:	16 97       	sbiw	r26, 0x06	; 6
     6c0:	98 81       	ld	r25, Y
     6c2:	19 96       	adiw	r26, 0x09	; 9
     6c4:	8c 91       	ld	r24, X
     6c6:	19 97       	sbiw	r26, 0x09	; 9
     6c8:	80 95       	com	r24
     6ca:	89 23       	and	r24, r25
     6cc:	88 83       	st	Y, r24
		
		*ocrPWM = 0;
     6ce:	1a 96       	adiw	r26, 0x0a	; 10
     6d0:	0d 90       	ld	r0, X+
     6d2:	bc 91       	ld	r27, X
     6d4:	a0 2d       	mov	r26, r0
     6d6:	1c 92       	st	X, r1
		status->led->init();
     6d8:	a2 81       	ldd	r26, Z+2	; 0x02
     6da:	b3 81       	ldd	r27, Z+3	; 0x03
     6dc:	56 96       	adiw	r26, 0x16	; 22
     6de:	0d 90       	ld	r0, X+
     6e0:	bc 91       	ld	r27, X
     6e2:	a0 2d       	mov	r26, r0
		blinkInterval =	100; // 100ms
		isActive = false;
	}
	
	void init() {
		*ddrReg |= mask;	// Output
     6e4:	12 96       	adiw	r26, 0x02	; 2
     6e6:	cd 91       	ld	r28, X+
     6e8:	dc 91       	ld	r29, X
     6ea:	13 97       	sbiw	r26, 0x03	; 3
     6ec:	98 81       	ld	r25, Y
     6ee:	14 96       	adiw	r26, 0x04	; 4
     6f0:	8c 91       	ld	r24, X
     6f2:	14 97       	sbiw	r26, 0x04	; 4
     6f4:	89 2b       	or	r24, r25
     6f6:	88 83       	st	Y, r24
		*portReg &= ~mask;	// 0
     6f8:	cd 91       	ld	r28, X+
     6fa:	dc 91       	ld	r29, X
     6fc:	11 97       	sbiw	r26, 0x01	; 1
     6fe:	98 81       	ld	r25, Y
     700:	14 96       	adiw	r26, 0x04	; 4
     702:	8c 91       	ld	r24, X
     704:	80 95       	com	r24
     706:	89 23       	and	r24, r25
     708:	88 83       	st	Y, r24
		status->display->init();
     70a:	02 80       	ldd	r0, Z+2	; 0x02
     70c:	f3 81       	ldd	r31, Z+3	; 0x03
     70e:	e0 2d       	mov	r30, r0
     710:	a0 8d       	ldd	r26, Z+24	; 0x18
     712:	b1 8d       	ldd	r27, Z+25	; 0x19
		currentScore = 0;
		showTens = false;
	}
	
	void init() {
		for (uint8_t i = 0; i<7; i++) {
     714:	20 e0       	ldi	r18, 0x00	; 0
     716:	27 30       	cpi	r18, 0x07	; 7
     718:	08 f5       	brcc	.+66     	; 0x75c <__LOCK_REGION_LENGTH__+0x35c>
			*ddrData[i] |= maskData[i];
     71a:	82 2f       	mov	r24, r18
     71c:	90 e0       	ldi	r25, 0x00	; 0
     71e:	fc 01       	movw	r30, r24
     720:	37 96       	adiw	r30, 0x07	; 7
     722:	ee 0f       	add	r30, r30
     724:	ff 1f       	adc	r31, r31
     726:	ea 0f       	add	r30, r26
     728:	fb 1f       	adc	r31, r27
     72a:	01 90       	ld	r0, Z+
     72c:	f0 81       	ld	r31, Z
     72e:	e0 2d       	mov	r30, r0
     730:	40 81       	ld	r20, Z
     732:	ed 01       	movw	r28, r26
     734:	c8 0f       	add	r28, r24
     736:	d9 1f       	adc	r29, r25
     738:	3c 8d       	ldd	r19, Y+28	; 0x1c
     73a:	34 2b       	or	r19, r20
     73c:	30 83       	st	Z, r19
			*portData[i] &= ~maskData[i];
     73e:	88 0f       	add	r24, r24
     740:	99 1f       	adc	r25, r25
     742:	fd 01       	movw	r30, r26
     744:	e8 0f       	add	r30, r24
     746:	f9 1f       	adc	r31, r25
     748:	01 90       	ld	r0, Z+
     74a:	f0 81       	ld	r31, Z
     74c:	e0 2d       	mov	r30, r0
     74e:	90 81       	ld	r25, Z
     750:	8c 8d       	ldd	r24, Y+28	; 0x1c
     752:	80 95       	com	r24
     754:	89 23       	and	r24, r25
     756:	80 83       	st	Z, r24
		currentScore = 0;
		showTens = false;
	}
	
	void init() {
		for (uint8_t i = 0; i<7; i++) {
     758:	2f 5f       	subi	r18, 0xFF	; 255
     75a:	dd cf       	rjmp	.-70     	; 0x716 <__LOCK_REGION_LENGTH__+0x316>
			*ddrData[i] |= maskData[i];
			*portData[i] &= ~maskData[i];
		}
		
		*ddrDS |= maskDS;
     75c:	95 96       	adiw	r26, 0x25	; 37
     75e:	ed 91       	ld	r30, X+
     760:	fc 91       	ld	r31, X
     762:	96 97       	sbiw	r26, 0x26	; 38
     764:	90 81       	ld	r25, Z
     766:	97 96       	adiw	r26, 0x27	; 39
     768:	8c 91       	ld	r24, X
     76a:	97 97       	sbiw	r26, 0x27	; 39
     76c:	89 2b       	or	r24, r25
     76e:	80 83       	st	Z, r24
		*portDS &= ~maskDS;	
     770:	93 96       	adiw	r26, 0x23	; 35
     772:	ed 91       	ld	r30, X+
     774:	fc 91       	ld	r31, X
     776:	94 97       	sbiw	r26, 0x24	; 36
     778:	90 81       	ld	r25, Z
     77a:	97 96       	adiw	r26, 0x27	; 39
     77c:	8c 91       	ld	r24, X
     77e:	80 95       	com	r24
     780:	89 23       	and	r24, r25
     782:	80 83       	st	Z, r24
	void init() {
		/*
		 * ==== init() ====
		 * Habilita los sensores y las interrupciones
		 */
		DDRK &= ~0x3F;	// 0b11000000 (entradas)
     784:	e7 e0       	ldi	r30, 0x07	; 7
     786:	f1 e0       	ldi	r31, 0x01	; 1
     788:	80 81       	ld	r24, Z
     78a:	80 7c       	andi	r24, 0xC0	; 192
     78c:	80 83       	st	Z, r24
		PORTK |= 0x3F;	// Pull-ups
     78e:	e8 e0       	ldi	r30, 0x08	; 8
     790:	f1 e0       	ldi	r31, 0x01	; 1
     792:	80 81       	ld	r24, Z
     794:	8f 63       	ori	r24, 0x3F	; 63
     796:	80 83       	st	Z, r24
		
		PCICR |= (1 << PCIE2);	// Habilitar interrupciones PCINT2
     798:	e8 e6       	ldi	r30, 0x68	; 104
     79a:	f0 e0       	ldi	r31, 0x00	; 0
     79c:	80 81       	ld	r24, Z
     79e:	84 60       	ori	r24, 0x04	; 4
     7a0:	80 83       	st	Z, r24
		PCMSK2 |= 0x3F;			// Aplicar máscara a 6 primeros pines
     7a2:	ed e6       	ldi	r30, 0x6D	; 109
     7a4:	f0 e0       	ldi	r31, 0x00	; 0
     7a6:	80 81       	ld	r24, Z
     7a8:	8f 63       	ori	r24, 0x3F	; 63
     7aa:	80 83       	st	Z, r24
		 * Inicializa el Timer 4 en modo CTC para interrumpir cada 1ms.
		 * Asume frecuencia de reloj (F_CPU) de 8MHz.
		 */
		
		// Modo CTC (Clear Timer on Compare Match)
		TCCR4A &= ~((1 << WGM41) | (1 << WGM40));
     7ac:	e0 ea       	ldi	r30, 0xA0	; 160
     7ae:	f0 e0       	ldi	r31, 0x00	; 0
     7b0:	80 81       	ld	r24, Z
     7b2:	8c 7f       	andi	r24, 0xFC	; 252
     7b4:	80 83       	st	Z, r24
		TCCR4B &= ~(1 << WGM43);
     7b6:	e1 ea       	ldi	r30, 0xA1	; 161
     7b8:	f0 e0       	ldi	r31, 0x00	; 0
     7ba:	80 81       	ld	r24, Z
     7bc:	8f 7e       	andi	r24, 0xEF	; 239
     7be:	80 83       	st	Z, r24
		TCCR4B |= (1 << WGM42);
     7c0:	80 81       	ld	r24, Z
     7c2:	88 60       	ori	r24, 0x08	; 8
     7c4:	80 83       	st	Z, r24

		// Preescalador a 64 (8MHz / 64 = 125kHz)
		TCCR4B |= (1 << CS41) | (1 << CS40);
     7c6:	80 81       	ld	r24, Z
     7c8:	83 60       	ori	r24, 0x03	; 3
     7ca:	80 83       	st	Z, r24
		TCCR4B &= ~(1 << CS42);
     7cc:	80 81       	ld	r24, Z
     7ce:	8b 7f       	andi	r24, 0xFB	; 251
     7d0:	80 83       	st	Z, r24

		// Interrupción en 1ms (125000 / 1000 -1 = 124 ticks)
		OCR4A = 124;
     7d2:	8c e7       	ldi	r24, 0x7C	; 124
     7d4:	90 e0       	ldi	r25, 0x00	; 0
     7d6:	90 93 a9 00 	sts	0x00A9, r25	; 0x8000a9 <__TEXT_REGION_LENGTH__+0x7f00a9>
     7da:	80 93 a8 00 	sts	0x00A8, r24	; 0x8000a8 <__TEXT_REGION_LENGTH__+0x7f00a8>
		
		// Habilitar interrupción por comparación A.
		TIMSK4 |= (1 << OCIE4A);
     7de:	e2 e7       	ldi	r30, 0x72	; 114
     7e0:	f0 e0       	ldi	r31, 0x00	; 0
     7e2:	80 81       	ld	r24, Z
     7e4:	82 60       	ori	r24, 0x02	; 2
     7e6:	80 83       	st	Z, r24
		status->pinsManager->init();
		status->timer->init();
		
		// Timer 0 (M4 - OCR0A)
		TCCR0A |= (1 << COM0A1) | (1 << WGM01) | (1 << WGM00);	// Fast PWM
     7e8:	84 b5       	in	r24, 0x24	; 36
     7ea:	83 68       	ori	r24, 0x83	; 131
     7ec:	84 bd       	out	0x24, r24	; 36
		TCCR0B |= (1 << CS01) | (1 << CS00);					// Prescaler 64
     7ee:	85 b5       	in	r24, 0x25	; 37
     7f0:	83 60       	ori	r24, 0x03	; 3
     7f2:	85 bd       	out	0x25, r24	; 37
		
		// Timer 1 (M2 - OCR1A, M3 - OCR1B)
		TCCR1A |= (1 << COM1A1) | (1 << COM1B1) | (1 << WGM10); // Fast PWM (8 bit)
     7f4:	e0 e8       	ldi	r30, 0x80	; 128
     7f6:	f0 e0       	ldi	r31, 0x00	; 0
     7f8:	80 81       	ld	r24, Z
     7fa:	81 6a       	ori	r24, 0xA1	; 161
     7fc:	80 83       	st	Z, r24
		TCCR1B |= (1 << WGM12) | (1 << CS11) | (1 << CS10);		// Prescaler 64
     7fe:	e1 e8       	ldi	r30, 0x81	; 129
     800:	f0 e0       	ldi	r31, 0x00	; 0
     802:	80 81       	ld	r24, Z
     804:	8b 60       	ori	r24, 0x0B	; 11
     806:	80 83       	st	Z, r24
		
		// Timer 2 (M1 - OCR2A)
		TCCR2A |= (1 << COM2A1) | (1 << WGM21) | (1 << WGM20);	// Fast PWM
     808:	e0 eb       	ldi	r30, 0xB0	; 176
     80a:	f0 e0       	ldi	r31, 0x00	; 0
     80c:	80 81       	ld	r24, Z
     80e:	83 68       	ori	r24, 0x83	; 131
     810:	80 83       	st	Z, r24
		TCCR2B |= (1 << CS22);									// Prescaler 64
     812:	e1 eb       	ldi	r30, 0xB1	; 177
     814:	f0 e0       	ldi	r31, 0x00	; 0
     816:	80 81       	ld	r24, Z
     818:	84 60       	ori	r24, 0x04	; 4
     81a:	80 83       	st	Z, r24
		
		// Timer 5 (M5 - OCR5AL)
		TCCR5A |= (1 << COM5A1) | (1 << WGM50);					// Fast PWM (8 bit)
     81c:	e0 e2       	ldi	r30, 0x20	; 32
     81e:	f1 e0       	ldi	r31, 0x01	; 1
     820:	80 81       	ld	r24, Z
     822:	81 68       	ori	r24, 0x81	; 129
     824:	80 83       	st	Z, r24
		TCCR5B |= (1 << WGM52) | (1 << CS51) | (1 << CS50);		// Prescaler 64
     826:	e1 e2       	ldi	r30, 0x21	; 33
     828:	f1 e0       	ldi	r31, 0x01	; 1
     82a:	80 81       	ld	r24, Z
     82c:	8b 60       	ori	r24, 0x0B	; 11
     82e:	80 83       	st	Z, r24
	}
     830:	df 91       	pop	r29
     832:	cf 91       	pop	r28
     834:	08 95       	ret

00000836 <_ZN12RetornoState5entryEv>:
	uint32_t delay_timer = 0;
	
	public:
	explicit RetornoState(Status* s) : StateActionBase(s) {}

	void entry() override {
     836:	cf 93       	push	r28
     838:	df 93       	push	r29
     83a:	fc 01       	movw	r30, r24
		step = 0;
     83c:	14 82       	std	Z+4, r1	; 0x04
		delay_timer = 0;
     83e:	15 82       	std	Z+5, r1	; 0x05
     840:	16 82       	std	Z+6, r1	; 0x06
     842:	17 82       	std	Z+7, r1	; 0x07
     844:	10 86       	std	Z+8, r1	; 0x08
		
		status->m5->startMoving(M5_GO_UP, status->current_time);
     846:	02 80       	ldd	r0, Z+2	; 0x02
     848:	f3 81       	ldd	r31, Z+3	; 0x03
     84a:	e0 2d       	mov	r30, r0
     84c:	45 a1       	ldd	r20, Z+37	; 0x25
     84e:	56 a1       	ldd	r21, Z+38	; 0x26
     850:	67 a1       	ldd	r22, Z+39	; 0x27
     852:	70 a5       	ldd	r23, Z+40	; 0x28
     854:	00 84       	ldd	r0, Z+8	; 0x08
     856:	f1 85       	ldd	r31, Z+9	; 0x09
     858:	e0 2d       	mov	r30, r0
		 *  - direction: [bool] Dirección de giro.
		 *  - currentTime: [uint32_t] Tiempo actual en ms.
		 */
		bool startFromSide = false;
	
		if (eorSwitch != 0) {
     85a:	a4 85       	ldd	r26, Z+12	; 0x0c
     85c:	b5 85       	ldd	r27, Z+13	; 0x0d
     85e:	10 97       	sbiw	r26, 0x00	; 0
     860:	c9 f0       	breq	.+50     	; 0x894 <_ZN12RetornoState5entryEv+0x5e>
		/* 
		 * ==== getState() ====
		 * Devuelve el estado acutal del actuador tras el filtrado.
		 *  - return: [SwState] Estado relativo en el que está el actuador.
		 */
		return currentState;
     862:	17 96       	adiw	r26, 0x07	; 7
     864:	8c 91       	ld	r24, X
     866:	17 97       	sbiw	r26, 0x07	; 7
			SwitchMotor::SwState state = eorSwitch->getState();
			
			// No moverse si ya está en posición de destino.
			if ((direction && state == SwitchMotor::SIDE_1) ||
     868:	81 30       	cpi	r24, 0x01	; 1
     86a:	09 f4       	brne	.+2      	; 0x86e <_ZN12RetornoState5entryEv+0x38>
     86c:	3f c0       	rjmp	.+126    	; 0x8ec <_ZN12RetornoState5entryEv+0xb6>
				(!direction && state == SwitchMotor::SIDE_2)) {
				return;
			}
			if (state != SwitchMotor::MOVING) {
     86e:	81 11       	cpse	r24, r1
     870:	02 c0       	rjmp	.+4      	; 0x876 <_ZN12RetornoState5entryEv+0x40>
		 * ==== startMoving(bool direction, uint32_t currentTime) ====
		 * Ordena el arranque del motor en una dirección determinada.
		 *  - direction: [bool] Dirección de giro.
		 *  - currentTime: [uint32_t] Tiempo actual en ms.
		 */
		bool startFromSide = false;
     872:	90 e0       	ldi	r25, 0x00	; 0
     874:	01 c0       	rjmp	.+2      	; 0x878 <_ZN12RetornoState5entryEv+0x42>
			if ((direction && state == SwitchMotor::SIDE_1) ||
				(!direction && state == SwitchMotor::SIDE_2)) {
				return;
			}
			if (state != SwitchMotor::MOVING) {
				startFromSide = true;
     876:	91 e0       	ldi	r25, 0x01	; 1
		/* 
		 * ==== forceState(SwState s) ====
		 * Establece el estado del actuador. Debe ser usado tras la calibración.
		 *  - s: [SwState] Estado actual del actuador.
		 */
		currentState = s;
     878:	17 96       	adiw	r26, 0x07	; 7
     87a:	1c 92       	st	X, r1
     87c:	17 97       	sbiw	r26, 0x07	; 7
		flagPressed = false;
     87e:	18 96       	adiw	r26, 0x08	; 8
     880:	1c 92       	st	X, r1
			}
			
			// Prepara el switch para escuchar la colisión.
			eorSwitch->forceState(SwitchMotor::MOVING);
			eorSwitch->setExpectedDirection(direction);
     882:	a4 85       	ldd	r26, Z+12	; 0x0c
     884:	b5 85       	ldd	r27, Z+13	; 0x0d
		/* 
		 * ==== setExpectedDirection(bool direction) ====
		 * Establece la dirección a la que se mueve el motor.
		 *  - direction: [bool] true si la dirección es hacia SIDE_1, false en caso contrario.
		 */
		expectedDirection = direction;
     886:	81 e0       	ldi	r24, 0x01	; 1
     888:	19 96       	adiw	r26, 0x09	; 9
     88a:	8c 93       	st	X, r24
     88c:	19 97       	sbiw	r26, 0x09	; 9
		flagPressed = false;
     88e:	18 96       	adiw	r26, 0x08	; 8
     890:	1c 92       	st	X, r1
     892:	01 c0       	rjmp	.+2      	; 0x896 <_ZN12RetornoState5entryEv+0x60>
		 * ==== startMoving(bool direction, uint32_t currentTime) ====
		 * Ordena el arranque del motor en una dirección determinada.
		 *  - direction: [bool] Dirección de giro.
		 *  - currentTime: [uint32_t] Tiempo actual en ms.
		 */
		bool startFromSide = false;
     894:	90 e0       	ldi	r25, 0x00	; 0
		/* 
		 * ==== setDirection(bool forward) ====
		 * Establece la dirección de giro del motor.
		 *  - forward: [bool] Dirección de giro.
		 */
		if (forward)	*portDIR |= maskDIR;
     896:	a0 81       	ld	r26, Z
     898:	b1 81       	ldd	r27, Z+1	; 0x01
     89a:	2c 91       	ld	r18, X
     89c:	84 81       	ldd	r24, Z+4	; 0x04
     89e:	82 2b       	or	r24, r18
     8a0:	8c 93       	st	X, r24
		/* 
		 * ==== setSpeed(bool speed) ====
		 * Establece la velociad de rotación del motor.
		 *  - speed: [uint8_t] Velocidad (PWM) de rotación.
		 */
		*ocrPWM = speed;
     8a2:	a2 85       	ldd	r26, Z+10	; 0x0a
     8a4:	b3 85       	ldd	r27, Z+11	; 0x0b
     8a6:	8c ec       	ldi	r24, 0xCC	; 204
     8a8:	8c 93       	st	X, r24
			eorSwitch->setExpectedDirection(direction);
		}
		
		setDirection(direction);
		setSpeed(204); // 80% PWM
		isMoving = true;
     8aa:	81 e0       	ldi	r24, 0x01	; 1
     8ac:	86 87       	std	Z+14, r24	; 0x0e
		
		// Si arranca en sensor, activar escape.
		if (startFromSide || (eorSwitch != 0 && eorSwitch->isPressed())) {	
     8ae:	91 11       	cpse	r25, r1
     8b0:	0e c0       	rjmp	.+28     	; 0x8ce <_ZN12RetornoState5entryEv+0x98>
     8b2:	a4 85       	ldd	r26, Z+12	; 0x0c
     8b4:	b5 85       	ldd	r27, Z+13	; 0x0d
     8b6:	10 97       	sbiw	r26, 0x00	; 0
     8b8:	61 f0       	breq	.+24     	; 0x8d2 <_ZN12RetornoState5entryEv+0x9c>
		/* 
		 * ==== isPressed() ====
		 * Devuelve el estado acutal de la seńal del switch.
		 *  - return: [bool] true si el switch está presionado. flase en caso contrario.
		 */
		return !(*pinReg & mask);	// Lógica invertida (Pull-up)
     8ba:	cd 91       	ld	r28, X+
     8bc:	dc 91       	ld	r29, X
     8be:	11 97       	sbiw	r26, 0x01	; 1
     8c0:	98 81       	ld	r25, Y
     8c2:	16 96       	adiw	r26, 0x06	; 6
     8c4:	8c 91       	ld	r24, X
     8c6:	89 23       	and	r24, r25
     8c8:	31 f0       	breq	.+12     	; 0x8d6 <_ZN12RetornoState5entryEv+0xa0>
     8ca:	80 e0       	ldi	r24, 0x00	; 0
     8cc:	05 c0       	rjmp	.+10     	; 0x8d8 <_ZN12RetornoState5entryEv+0xa2>
     8ce:	81 e0       	ldi	r24, 0x01	; 1
     8d0:	03 c0       	rjmp	.+6      	; 0x8d8 <_ZN12RetornoState5entryEv+0xa2>
     8d2:	80 e0       	ldi	r24, 0x00	; 0
     8d4:	01 c0       	rjmp	.+2      	; 0x8d8 <_ZN12RetornoState5entryEv+0xa2>
     8d6:	81 e0       	ldi	r24, 0x01	; 1
     8d8:	88 23       	and	r24, r24
     8da:	39 f0       	breq	.+14     	; 0x8ea <_ZN12RetornoState5entryEv+0xb4>
			isEscaping = true;
     8dc:	81 e0       	ldi	r24, 0x01	; 1
     8de:	87 87       	std	Z+15, r24	; 0x0f
			escapeStartTimestamp = currentTime;
     8e0:	40 8b       	std	Z+16, r20	; 0x10
     8e2:	51 8b       	std	Z+17, r21	; 0x11
     8e4:	62 8b       	std	Z+18, r22	; 0x12
     8e6:	73 8b       	std	Z+19, r23	; 0x13
     8e8:	01 c0       	rjmp	.+2      	; 0x8ec <_ZN12RetornoState5entryEv+0xb6>
		} else {
			isEscaping = false;
     8ea:	17 86       	std	Z+15, r1	; 0x0f
	}
     8ec:	df 91       	pop	r29
     8ee:	cf 91       	pop	r28
     8f0:	08 95       	ret

000008f2 <_ZN12DisparoState5entryEv>:
	bool m2_finished = false;
	
	public:
	explicit DisparoState(Status* s) : StateActionBase(s) {}

	void entry() override {
     8f2:	cf 93       	push	r28
     8f4:	df 93       	push	r29
     8f6:	fc 01       	movw	r30, r24
		start_time = status->current_time;
     8f8:	a2 81       	ldd	r26, Z+2	; 0x02
     8fa:	b3 81       	ldd	r27, Z+3	; 0x03
     8fc:	95 96       	adiw	r26, 0x25	; 37
     8fe:	4d 91       	ld	r20, X+
     900:	5d 91       	ld	r21, X+
     902:	6d 91       	ld	r22, X+
     904:	7c 91       	ld	r23, X
     906:	98 97       	sbiw	r26, 0x28	; 40
     908:	44 83       	std	Z+4, r20	; 0x04
     90a:	55 83       	std	Z+5, r21	; 0x05
     90c:	66 83       	std	Z+6, r22	; 0x06
     90e:	77 83       	std	Z+7, r23	; 0x07
		step_m34 = 0;
     910:	10 86       	std	Z+8, r1	; 0x08
		m2_finished = false;
     912:	11 86       	std	Z+9, r1	; 0x09
		
		status->m4->startMoving(M4_GO_OPEN, status->current_time);
     914:	95 96       	adiw	r26, 0x25	; 37
     916:	4d 91       	ld	r20, X+
     918:	5d 91       	ld	r21, X+
     91a:	6d 91       	ld	r22, X+
     91c:	7c 91       	ld	r23, X
     91e:	98 97       	sbiw	r26, 0x28	; 40
     920:	16 96       	adiw	r26, 0x06	; 6
     922:	ed 91       	ld	r30, X+
     924:	fc 91       	ld	r31, X
     926:	17 97       	sbiw	r26, 0x07	; 7
		 *  - direction: [bool] Dirección de giro.
		 *  - currentTime: [uint32_t] Tiempo actual en ms.
		 */
		bool startFromSide = false;
	
		if (eorSwitch != 0) {
     928:	a4 85       	ldd	r26, Z+12	; 0x0c
     92a:	b5 85       	ldd	r27, Z+13	; 0x0d
     92c:	10 97       	sbiw	r26, 0x00	; 0
     92e:	c9 f0       	breq	.+50     	; 0x962 <_ZN12DisparoState5entryEv+0x70>
		/* 
		 * ==== getState() ====
		 * Devuelve el estado acutal del actuador tras el filtrado.
		 *  - return: [SwState] Estado relativo en el que está el actuador.
		 */
		return currentState;
     930:	17 96       	adiw	r26, 0x07	; 7
     932:	8c 91       	ld	r24, X
     934:	17 97       	sbiw	r26, 0x07	; 7
			SwitchMotor::SwState state = eorSwitch->getState();
			
			// No moverse si ya está en posición de destino.
			if ((direction && state == SwitchMotor::SIDE_1) ||
     936:	81 30       	cpi	r24, 0x01	; 1
     938:	09 f4       	brne	.+2      	; 0x93c <_ZN12DisparoState5entryEv+0x4a>
     93a:	3f c0       	rjmp	.+126    	; 0x9ba <_ZN12DisparoState5entryEv+0xc8>
				(!direction && state == SwitchMotor::SIDE_2)) {
				return;
			}
			if (state != SwitchMotor::MOVING) {
     93c:	81 11       	cpse	r24, r1
     93e:	02 c0       	rjmp	.+4      	; 0x944 <_ZN12DisparoState5entryEv+0x52>
		 * ==== startMoving(bool direction, uint32_t currentTime) ====
		 * Ordena el arranque del motor en una dirección determinada.
		 *  - direction: [bool] Dirección de giro.
		 *  - currentTime: [uint32_t] Tiempo actual en ms.
		 */
		bool startFromSide = false;
     940:	90 e0       	ldi	r25, 0x00	; 0
     942:	01 c0       	rjmp	.+2      	; 0x946 <_ZN12DisparoState5entryEv+0x54>
			if ((direction && state == SwitchMotor::SIDE_1) ||
				(!direction && state == SwitchMotor::SIDE_2)) {
				return;
			}
			if (state != SwitchMotor::MOVING) {
				startFromSide = true;
     944:	91 e0       	ldi	r25, 0x01	; 1
		/* 
		 * ==== forceState(SwState s) ====
		 * Establece el estado del actuador. Debe ser usado tras la calibración.
		 *  - s: [SwState] Estado actual del actuador.
		 */
		currentState = s;
     946:	17 96       	adiw	r26, 0x07	; 7
     948:	1c 92       	st	X, r1
     94a:	17 97       	sbiw	r26, 0x07	; 7
		flagPressed = false;
     94c:	18 96       	adiw	r26, 0x08	; 8
     94e:	1c 92       	st	X, r1
			}
			
			// Prepara el switch para escuchar la colisión.
			eorSwitch->forceState(SwitchMotor::MOVING);
			eorSwitch->setExpectedDirection(direction);
     950:	a4 85       	ldd	r26, Z+12	; 0x0c
     952:	b5 85       	ldd	r27, Z+13	; 0x0d
		/* 
		 * ==== setExpectedDirection(bool direction) ====
		 * Establece la dirección a la que se mueve el motor.
		 *  - direction: [bool] true si la dirección es hacia SIDE_1, false en caso contrario.
		 */
		expectedDirection = direction;
     954:	81 e0       	ldi	r24, 0x01	; 1
     956:	19 96       	adiw	r26, 0x09	; 9
     958:	8c 93       	st	X, r24
     95a:	19 97       	sbiw	r26, 0x09	; 9
		flagPressed = false;
     95c:	18 96       	adiw	r26, 0x08	; 8
     95e:	1c 92       	st	X, r1
     960:	01 c0       	rjmp	.+2      	; 0x964 <_ZN12DisparoState5entryEv+0x72>
		 * ==== startMoving(bool direction, uint32_t currentTime) ====
		 * Ordena el arranque del motor en una dirección determinada.
		 *  - direction: [bool] Dirección de giro.
		 *  - currentTime: [uint32_t] Tiempo actual en ms.
		 */
		bool startFromSide = false;
     962:	90 e0       	ldi	r25, 0x00	; 0
		/* 
		 * ==== setDirection(bool forward) ====
		 * Establece la dirección de giro del motor.
		 *  - forward: [bool] Dirección de giro.
		 */
		if (forward)	*portDIR |= maskDIR;
     964:	a0 81       	ld	r26, Z
     966:	b1 81       	ldd	r27, Z+1	; 0x01
     968:	2c 91       	ld	r18, X
     96a:	84 81       	ldd	r24, Z+4	; 0x04
     96c:	82 2b       	or	r24, r18
     96e:	8c 93       	st	X, r24
		/* 
		 * ==== setSpeed(bool speed) ====
		 * Establece la velociad de rotación del motor.
		 *  - speed: [uint8_t] Velocidad (PWM) de rotación.
		 */
		*ocrPWM = speed;
     970:	a2 85       	ldd	r26, Z+10	; 0x0a
     972:	b3 85       	ldd	r27, Z+11	; 0x0b
     974:	8c ec       	ldi	r24, 0xCC	; 204
     976:	8c 93       	st	X, r24
			eorSwitch->setExpectedDirection(direction);
		}
		
		setDirection(direction);
		setSpeed(204); // 80% PWM
		isMoving = true;
     978:	81 e0       	ldi	r24, 0x01	; 1
     97a:	86 87       	std	Z+14, r24	; 0x0e
		
		// Si arranca en sensor, activar escape.
		if (startFromSide || (eorSwitch != 0 && eorSwitch->isPressed())) {	
     97c:	91 11       	cpse	r25, r1
     97e:	0e c0       	rjmp	.+28     	; 0x99c <_ZN12DisparoState5entryEv+0xaa>
     980:	a4 85       	ldd	r26, Z+12	; 0x0c
     982:	b5 85       	ldd	r27, Z+13	; 0x0d
     984:	10 97       	sbiw	r26, 0x00	; 0
     986:	61 f0       	breq	.+24     	; 0x9a0 <_ZN12DisparoState5entryEv+0xae>
		/* 
		 * ==== isPressed() ====
		 * Devuelve el estado acutal de la seńal del switch.
		 *  - return: [bool] true si el switch está presionado. flase en caso contrario.
		 */
		return !(*pinReg & mask);	// Lógica invertida (Pull-up)
     988:	cd 91       	ld	r28, X+
     98a:	dc 91       	ld	r29, X
     98c:	11 97       	sbiw	r26, 0x01	; 1
     98e:	98 81       	ld	r25, Y
     990:	16 96       	adiw	r26, 0x06	; 6
     992:	8c 91       	ld	r24, X
     994:	89 23       	and	r24, r25
     996:	31 f0       	breq	.+12     	; 0x9a4 <_ZN12DisparoState5entryEv+0xb2>
     998:	80 e0       	ldi	r24, 0x00	; 0
     99a:	05 c0       	rjmp	.+10     	; 0x9a6 <_ZN12DisparoState5entryEv+0xb4>
     99c:	81 e0       	ldi	r24, 0x01	; 1
     99e:	03 c0       	rjmp	.+6      	; 0x9a6 <_ZN12DisparoState5entryEv+0xb4>
     9a0:	80 e0       	ldi	r24, 0x00	; 0
     9a2:	01 c0       	rjmp	.+2      	; 0x9a6 <_ZN12DisparoState5entryEv+0xb4>
     9a4:	81 e0       	ldi	r24, 0x01	; 1
     9a6:	88 23       	and	r24, r24
     9a8:	39 f0       	breq	.+14     	; 0x9b8 <_ZN12DisparoState5entryEv+0xc6>
			isEscaping = true;
     9aa:	81 e0       	ldi	r24, 0x01	; 1
     9ac:	87 87       	std	Z+15, r24	; 0x0f
			escapeStartTimestamp = currentTime;
     9ae:	40 8b       	std	Z+16, r20	; 0x10
     9b0:	51 8b       	std	Z+17, r21	; 0x11
     9b2:	62 8b       	std	Z+18, r22	; 0x12
     9b4:	73 8b       	std	Z+19, r23	; 0x13
     9b6:	01 c0       	rjmp	.+2      	; 0x9ba <_ZN12DisparoState5entryEv+0xc8>
		} else {
			isEscaping = false;
     9b8:	17 86       	std	Z+15, r1	; 0x0f
	}
     9ba:	df 91       	pop	r29
     9bc:	cf 91       	pop	r28
     9be:	08 95       	ret

000009c0 <_ZN10CargaState5entryEv>:
		uint32_t timer_m1 = 0;
	public:
			explicit CargaState(Status* s) : StateActionBase(s) {}

	
		void entry() override {
     9c0:	cf 93       	push	r28
     9c2:	df 93       	push	r29
     9c4:	dc 01       	movw	r26, r24
			step_m12 = 0;
     9c6:	14 96       	adiw	r26, 0x04	; 4
     9c8:	1c 92       	st	X, r1
     9ca:	14 97       	sbiw	r26, 0x04	; 4
			step_m34 = 0;
     9cc:	15 96       	adiw	r26, 0x05	; 5
     9ce:	1c 92       	st	X, r1
     9d0:	15 97       	sbiw	r26, 0x05	; 5
			timer_m1 = 0;
     9d2:	16 96       	adiw	r26, 0x06	; 6
     9d4:	1d 92       	st	X+, r1
     9d6:	1d 92       	st	X+, r1
     9d8:	1d 92       	st	X+, r1
     9da:	1c 92       	st	X, r1
     9dc:	19 97       	sbiw	r26, 0x09	; 9
			
			status->m1->startMoving(M1_GO_UP, status->current_time);
     9de:	12 96       	adiw	r26, 0x02	; 2
     9e0:	ed 91       	ld	r30, X+
     9e2:	fc 91       	ld	r31, X
     9e4:	13 97       	sbiw	r26, 0x03	; 3
     9e6:	45 a1       	ldd	r20, Z+37	; 0x25
     9e8:	56 a1       	ldd	r21, Z+38	; 0x26
     9ea:	67 a1       	ldd	r22, Z+39	; 0x27
     9ec:	70 a5       	ldd	r23, Z+40	; 0x28
     9ee:	01 90       	ld	r0, Z+
     9f0:	f0 81       	ld	r31, Z
     9f2:	e0 2d       	mov	r30, r0
		 *  - direction: [bool] Dirección de giro.
		 *  - currentTime: [uint32_t] Tiempo actual en ms.
		 */
		bool startFromSide = false;
	
		if (eorSwitch != 0) {
     9f4:	c4 85       	ldd	r28, Z+12	; 0x0c
     9f6:	d5 85       	ldd	r29, Z+13	; 0x0d
     9f8:	20 97       	sbiw	r28, 0x00	; 0
     9fa:	81 f0       	breq	.+32     	; 0xa1c <_ZN10CargaState5entryEv+0x5c>
		/* 
		 * ==== getState() ====
		 * Devuelve el estado acutal del actuador tras el filtrado.
		 *  - return: [SwState] Estado relativo en el que está el actuador.
		 */
		return currentState;
     9fc:	8f 81       	ldd	r24, Y+7	; 0x07
			SwitchMotor::SwState state = eorSwitch->getState();
			
			// No moverse si ya está en posición de destino.
			if ((direction && state == SwitchMotor::SIDE_1) ||
     9fe:	81 30       	cpi	r24, 0x01	; 1
     a00:	d9 f1       	breq	.+118    	; 0xa78 <_ZN10CargaState5entryEv+0xb8>
				(!direction && state == SwitchMotor::SIDE_2)) {
				return;
			}
			if (state != SwitchMotor::MOVING) {
     a02:	81 11       	cpse	r24, r1
     a04:	02 c0       	rjmp	.+4      	; 0xa0a <_ZN10CargaState5entryEv+0x4a>
		 * ==== startMoving(bool direction, uint32_t currentTime) ====
		 * Ordena el arranque del motor en una dirección determinada.
		 *  - direction: [bool] Dirección de giro.
		 *  - currentTime: [uint32_t] Tiempo actual en ms.
		 */
		bool startFromSide = false;
     a06:	90 e0       	ldi	r25, 0x00	; 0
     a08:	01 c0       	rjmp	.+2      	; 0xa0c <_ZN10CargaState5entryEv+0x4c>
			if ((direction && state == SwitchMotor::SIDE_1) ||
				(!direction && state == SwitchMotor::SIDE_2)) {
				return;
			}
			if (state != SwitchMotor::MOVING) {
				startFromSide = true;
     a0a:	91 e0       	ldi	r25, 0x01	; 1
		/* 
		 * ==== forceState(SwState s) ====
		 * Establece el estado del actuador. Debe ser usado tras la calibración.
		 *  - s: [SwState] Estado actual del actuador.
		 */
		currentState = s;
     a0c:	1f 82       	std	Y+7, r1	; 0x07
		flagPressed = false;
     a0e:	18 86       	std	Y+8, r1	; 0x08
			}
			
			// Prepara el switch para escuchar la colisión.
			eorSwitch->forceState(SwitchMotor::MOVING);
			eorSwitch->setExpectedDirection(direction);
     a10:	c4 85       	ldd	r28, Z+12	; 0x0c
     a12:	d5 85       	ldd	r29, Z+13	; 0x0d
		/* 
		 * ==== setExpectedDirection(bool direction) ====
		 * Establece la dirección a la que se mueve el motor.
		 *  - direction: [bool] true si la dirección es hacia SIDE_1, false en caso contrario.
		 */
		expectedDirection = direction;
     a14:	81 e0       	ldi	r24, 0x01	; 1
     a16:	89 87       	std	Y+9, r24	; 0x09
		flagPressed = false;
     a18:	18 86       	std	Y+8, r1	; 0x08
     a1a:	01 c0       	rjmp	.+2      	; 0xa1e <_ZN10CargaState5entryEv+0x5e>
		 * ==== startMoving(bool direction, uint32_t currentTime) ====
		 * Ordena el arranque del motor en una dirección determinada.
		 *  - direction: [bool] Dirección de giro.
		 *  - currentTime: [uint32_t] Tiempo actual en ms.
		 */
		bool startFromSide = false;
     a1c:	90 e0       	ldi	r25, 0x00	; 0
		/* 
		 * ==== setDirection(bool forward) ====
		 * Establece la dirección de giro del motor.
		 *  - forward: [bool] Dirección de giro.
		 */
		if (forward)	*portDIR |= maskDIR;
     a1e:	c0 81       	ld	r28, Z
     a20:	d1 81       	ldd	r29, Z+1	; 0x01
     a22:	28 81       	ld	r18, Y
     a24:	84 81       	ldd	r24, Z+4	; 0x04
     a26:	82 2b       	or	r24, r18
     a28:	88 83       	st	Y, r24
		/* 
		 * ==== setSpeed(bool speed) ====
		 * Establece la velociad de rotación del motor.
		 *  - speed: [uint8_t] Velocidad (PWM) de rotación.
		 */
		*ocrPWM = speed;
     a2a:	c2 85       	ldd	r28, Z+10	; 0x0a
     a2c:	d3 85       	ldd	r29, Z+11	; 0x0b
     a2e:	8c ec       	ldi	r24, 0xCC	; 204
     a30:	88 83       	st	Y, r24
			eorSwitch->setExpectedDirection(direction);
		}
		
		setDirection(direction);
		setSpeed(204); // 80% PWM
		isMoving = true;
     a32:	81 e0       	ldi	r24, 0x01	; 1
     a34:	86 87       	std	Z+14, r24	; 0x0e
		
		// Si arranca en sensor, activar escape.
		if (startFromSide || (eorSwitch != 0 && eorSwitch->isPressed())) {	
     a36:	91 11       	cpse	r25, r1
     a38:	10 c0       	rjmp	.+32     	; 0xa5a <_ZN10CargaState5entryEv+0x9a>
     a3a:	24 85       	ldd	r18, Z+12	; 0x0c
     a3c:	35 85       	ldd	r19, Z+13	; 0x0d
     a3e:	21 15       	cp	r18, r1
     a40:	31 05       	cpc	r19, r1
     a42:	69 f0       	breq	.+26     	; 0xa5e <_ZN10CargaState5entryEv+0x9e>
		/* 
		 * ==== isPressed() ====
		 * Devuelve el estado acutal de la seńal del switch.
		 *  - return: [bool] true si el switch está presionado. flase en caso contrario.
		 */
		return !(*pinReg & mask);	// Lógica invertida (Pull-up)
     a44:	e9 01       	movw	r28, r18
     a46:	88 81       	ld	r24, Y
     a48:	99 81       	ldd	r25, Y+1	; 0x01
     a4a:	ec 01       	movw	r28, r24
     a4c:	98 81       	ld	r25, Y
     a4e:	e9 01       	movw	r28, r18
     a50:	8e 81       	ldd	r24, Y+6	; 0x06
     a52:	89 23       	and	r24, r25
     a54:	31 f0       	breq	.+12     	; 0xa62 <_ZN10CargaState5entryEv+0xa2>
     a56:	80 e0       	ldi	r24, 0x00	; 0
     a58:	05 c0       	rjmp	.+10     	; 0xa64 <_ZN10CargaState5entryEv+0xa4>
     a5a:	81 e0       	ldi	r24, 0x01	; 1
     a5c:	03 c0       	rjmp	.+6      	; 0xa64 <_ZN10CargaState5entryEv+0xa4>
     a5e:	80 e0       	ldi	r24, 0x00	; 0
     a60:	01 c0       	rjmp	.+2      	; 0xa64 <_ZN10CargaState5entryEv+0xa4>
     a62:	81 e0       	ldi	r24, 0x01	; 1
     a64:	88 23       	and	r24, r24
     a66:	39 f0       	breq	.+14     	; 0xa76 <_ZN10CargaState5entryEv+0xb6>
			isEscaping = true;
     a68:	81 e0       	ldi	r24, 0x01	; 1
     a6a:	87 87       	std	Z+15, r24	; 0x0f
			escapeStartTimestamp = currentTime;
     a6c:	40 8b       	std	Z+16, r20	; 0x10
     a6e:	51 8b       	std	Z+17, r21	; 0x11
     a70:	62 8b       	std	Z+18, r22	; 0x12
     a72:	73 8b       	std	Z+19, r23	; 0x13
     a74:	01 c0       	rjmp	.+2      	; 0xa78 <_ZN10CargaState5entryEv+0xb8>
		} else {
			isEscaping = false;
     a76:	17 86       	std	Z+15, r1	; 0x0f
			status->m4->startMoving(M4_GO_OPEN, status->current_time);
     a78:	12 96       	adiw	r26, 0x02	; 2
     a7a:	ed 91       	ld	r30, X+
     a7c:	fc 91       	ld	r31, X
     a7e:	13 97       	sbiw	r26, 0x03	; 3
     a80:	45 a1       	ldd	r20, Z+37	; 0x25
     a82:	56 a1       	ldd	r21, Z+38	; 0x26
     a84:	67 a1       	ldd	r22, Z+39	; 0x27
     a86:	70 a5       	ldd	r23, Z+40	; 0x28
     a88:	06 80       	ldd	r0, Z+6	; 0x06
     a8a:	f7 81       	ldd	r31, Z+7	; 0x07
     a8c:	e0 2d       	mov	r30, r0
		 *  - direction: [bool] Dirección de giro.
		 *  - currentTime: [uint32_t] Tiempo actual en ms.
		 */
		bool startFromSide = false;
	
		if (eorSwitch != 0) {
     a8e:	a4 85       	ldd	r26, Z+12	; 0x0c
     a90:	b5 85       	ldd	r27, Z+13	; 0x0d
     a92:	10 97       	sbiw	r26, 0x00	; 0
     a94:	c9 f0       	breq	.+50     	; 0xac8 <_ZN10CargaState5entryEv+0x108>
		/* 
		 * ==== getState() ====
		 * Devuelve el estado acutal del actuador tras el filtrado.
		 *  - return: [SwState] Estado relativo en el que está el actuador.
		 */
		return currentState;
     a96:	17 96       	adiw	r26, 0x07	; 7
     a98:	8c 91       	ld	r24, X
     a9a:	17 97       	sbiw	r26, 0x07	; 7
			SwitchMotor::SwState state = eorSwitch->getState();
			
			// No moverse si ya está en posición de destino.
			if ((direction && state == SwitchMotor::SIDE_1) ||
     a9c:	81 30       	cpi	r24, 0x01	; 1
     a9e:	09 f4       	brne	.+2      	; 0xaa2 <_ZN10CargaState5entryEv+0xe2>
     aa0:	3f c0       	rjmp	.+126    	; 0xb20 <_ZN10CargaState5entryEv+0x160>
				(!direction && state == SwitchMotor::SIDE_2)) {
				return;
			}
			if (state != SwitchMotor::MOVING) {
     aa2:	81 11       	cpse	r24, r1
     aa4:	02 c0       	rjmp	.+4      	; 0xaaa <_ZN10CargaState5entryEv+0xea>
		 * ==== startMoving(bool direction, uint32_t currentTime) ====
		 * Ordena el arranque del motor en una dirección determinada.
		 *  - direction: [bool] Dirección de giro.
		 *  - currentTime: [uint32_t] Tiempo actual en ms.
		 */
		bool startFromSide = false;
     aa6:	90 e0       	ldi	r25, 0x00	; 0
     aa8:	01 c0       	rjmp	.+2      	; 0xaac <_ZN10CargaState5entryEv+0xec>
			if ((direction && state == SwitchMotor::SIDE_1) ||
				(!direction && state == SwitchMotor::SIDE_2)) {
				return;
			}
			if (state != SwitchMotor::MOVING) {
				startFromSide = true;
     aaa:	91 e0       	ldi	r25, 0x01	; 1
		/* 
		 * ==== forceState(SwState s) ====
		 * Establece el estado del actuador. Debe ser usado tras la calibración.
		 *  - s: [SwState] Estado actual del actuador.
		 */
		currentState = s;
     aac:	17 96       	adiw	r26, 0x07	; 7
     aae:	1c 92       	st	X, r1
     ab0:	17 97       	sbiw	r26, 0x07	; 7
		flagPressed = false;
     ab2:	18 96       	adiw	r26, 0x08	; 8
     ab4:	1c 92       	st	X, r1
			}
			
			// Prepara el switch para escuchar la colisión.
			eorSwitch->forceState(SwitchMotor::MOVING);
			eorSwitch->setExpectedDirection(direction);
     ab6:	a4 85       	ldd	r26, Z+12	; 0x0c
     ab8:	b5 85       	ldd	r27, Z+13	; 0x0d
		/* 
		 * ==== setExpectedDirection(bool direction) ====
		 * Establece la dirección a la que se mueve el motor.
		 *  - direction: [bool] true si la dirección es hacia SIDE_1, false en caso contrario.
		 */
		expectedDirection = direction;
     aba:	81 e0       	ldi	r24, 0x01	; 1
     abc:	19 96       	adiw	r26, 0x09	; 9
     abe:	8c 93       	st	X, r24
     ac0:	19 97       	sbiw	r26, 0x09	; 9
		flagPressed = false;
     ac2:	18 96       	adiw	r26, 0x08	; 8
     ac4:	1c 92       	st	X, r1
     ac6:	01 c0       	rjmp	.+2      	; 0xaca <_ZN10CargaState5entryEv+0x10a>
		 * ==== startMoving(bool direction, uint32_t currentTime) ====
		 * Ordena el arranque del motor en una dirección determinada.
		 *  - direction: [bool] Dirección de giro.
		 *  - currentTime: [uint32_t] Tiempo actual en ms.
		 */
		bool startFromSide = false;
     ac8:	90 e0       	ldi	r25, 0x00	; 0
		/* 
		 * ==== setDirection(bool forward) ====
		 * Establece la dirección de giro del motor.
		 *  - forward: [bool] Dirección de giro.
		 */
		if (forward)	*portDIR |= maskDIR;
     aca:	a0 81       	ld	r26, Z
     acc:	b1 81       	ldd	r27, Z+1	; 0x01
     ace:	2c 91       	ld	r18, X
     ad0:	84 81       	ldd	r24, Z+4	; 0x04
     ad2:	82 2b       	or	r24, r18
     ad4:	8c 93       	st	X, r24
		/* 
		 * ==== setSpeed(bool speed) ====
		 * Establece la velociad de rotación del motor.
		 *  - speed: [uint8_t] Velocidad (PWM) de rotación.
		 */
		*ocrPWM = speed;
     ad6:	a2 85       	ldd	r26, Z+10	; 0x0a
     ad8:	b3 85       	ldd	r27, Z+11	; 0x0b
     ada:	8c ec       	ldi	r24, 0xCC	; 204
     adc:	8c 93       	st	X, r24
			eorSwitch->setExpectedDirection(direction);
		}
		
		setDirection(direction);
		setSpeed(204); // 80% PWM
		isMoving = true;
     ade:	81 e0       	ldi	r24, 0x01	; 1
     ae0:	86 87       	std	Z+14, r24	; 0x0e
		
		// Si arranca en sensor, activar escape.
		if (startFromSide || (eorSwitch != 0 && eorSwitch->isPressed())) {	
     ae2:	91 11       	cpse	r25, r1
     ae4:	0e c0       	rjmp	.+28     	; 0xb02 <_ZN10CargaState5entryEv+0x142>
     ae6:	a4 85       	ldd	r26, Z+12	; 0x0c
     ae8:	b5 85       	ldd	r27, Z+13	; 0x0d
     aea:	10 97       	sbiw	r26, 0x00	; 0
     aec:	61 f0       	breq	.+24     	; 0xb06 <_ZN10CargaState5entryEv+0x146>
		/* 
		 * ==== isPressed() ====
		 * Devuelve el estado acutal de la seńal del switch.
		 *  - return: [bool] true si el switch está presionado. flase en caso contrario.
		 */
		return !(*pinReg & mask);	// Lógica invertida (Pull-up)
     aee:	cd 91       	ld	r28, X+
     af0:	dc 91       	ld	r29, X
     af2:	11 97       	sbiw	r26, 0x01	; 1
     af4:	98 81       	ld	r25, Y
     af6:	16 96       	adiw	r26, 0x06	; 6
     af8:	8c 91       	ld	r24, X
     afa:	89 23       	and	r24, r25
     afc:	31 f0       	breq	.+12     	; 0xb0a <_ZN10CargaState5entryEv+0x14a>
     afe:	80 e0       	ldi	r24, 0x00	; 0
     b00:	05 c0       	rjmp	.+10     	; 0xb0c <_ZN10CargaState5entryEv+0x14c>
     b02:	81 e0       	ldi	r24, 0x01	; 1
     b04:	03 c0       	rjmp	.+6      	; 0xb0c <_ZN10CargaState5entryEv+0x14c>
     b06:	80 e0       	ldi	r24, 0x00	; 0
     b08:	01 c0       	rjmp	.+2      	; 0xb0c <_ZN10CargaState5entryEv+0x14c>
     b0a:	81 e0       	ldi	r24, 0x01	; 1
     b0c:	88 23       	and	r24, r24
     b0e:	39 f0       	breq	.+14     	; 0xb1e <_ZN10CargaState5entryEv+0x15e>
			isEscaping = true;
     b10:	81 e0       	ldi	r24, 0x01	; 1
     b12:	87 87       	std	Z+15, r24	; 0x0f
			escapeStartTimestamp = currentTime;
     b14:	40 8b       	std	Z+16, r20	; 0x10
     b16:	51 8b       	std	Z+17, r21	; 0x11
     b18:	62 8b       	std	Z+18, r22	; 0x12
     b1a:	73 8b       	std	Z+19, r23	; 0x13
     b1c:	01 c0       	rjmp	.+2      	; 0xb20 <_ZN10CargaState5entryEv+0x160>
		} else {
			isEscaping = false;
     b1e:	17 86       	std	Z+15, r1	; 0x0f
		}
     b20:	df 91       	pop	r29
     b22:	cf 91       	pop	r28
     b24:	08 95       	ret

00000b26 <_ZN11ArmadoState5entryEv>:
class ArmadoState : public StateActionBase {
	private:
		bool is_oscilating = false;
	public:
		explicit ArmadoState(Status* s) : StateActionBase(s) {}
		void entry() override {
     b26:	cf 93       	push	r28
     b28:	df 93       	push	r29
     b2a:	fc 01       	movw	r30, r24
			status->led->on();
     b2c:	a2 81       	ldd	r26, Z+2	; 0x02
     b2e:	b3 81       	ldd	r27, Z+3	; 0x03
     b30:	56 96       	adiw	r26, 0x16	; 22
     b32:	0d 90       	ld	r0, X+
     b34:	bc 91       	ld	r27, X
     b36:	a0 2d       	mov	r26, r0
	}
	
	void on() {
		isActive = true;
     b38:	81 e0       	ldi	r24, 0x01	; 1
     b3a:	1d 96       	adiw	r26, 0x0d	; 13
     b3c:	8c 93       	st	X, r24
     b3e:	1d 97       	sbiw	r26, 0x0d	; 13
		*portReg |= mask;
     b40:	cd 91       	ld	r28, X+
     b42:	dc 91       	ld	r29, X
     b44:	11 97       	sbiw	r26, 0x01	; 1
     b46:	98 81       	ld	r25, Y
     b48:	14 96       	adiw	r26, 0x04	; 4
     b4a:	8c 91       	ld	r24, X
     b4c:	89 2b       	or	r24, r25
     b4e:	88 83       	st	Y, r24
			is_oscilating = false;
     b50:	14 82       	std	Z+4, r1	; 0x04
			status->m2->startMoving(M2_GO_LEFT, status->current_time);
     b52:	02 80       	ldd	r0, Z+2	; 0x02
     b54:	f3 81       	ldd	r31, Z+3	; 0x03
     b56:	e0 2d       	mov	r30, r0
     b58:	45 a1       	ldd	r20, Z+37	; 0x25
     b5a:	56 a1       	ldd	r21, Z+38	; 0x26
     b5c:	67 a1       	ldd	r22, Z+39	; 0x27
     b5e:	70 a5       	ldd	r23, Z+40	; 0x28
     b60:	02 80       	ldd	r0, Z+2	; 0x02
     b62:	f3 81       	ldd	r31, Z+3	; 0x03
     b64:	e0 2d       	mov	r30, r0
		 *  - direction: [bool] Dirección de giro.
		 *  - currentTime: [uint32_t] Tiempo actual en ms.
		 */
		bool startFromSide = false;
	
		if (eorSwitch != 0) {
     b66:	a4 85       	ldd	r26, Z+12	; 0x0c
     b68:	b5 85       	ldd	r27, Z+13	; 0x0d
     b6a:	10 97       	sbiw	r26, 0x00	; 0
     b6c:	69 f1       	breq	.+90     	; 0xbc8 <_ZN11ArmadoState5entryEv+0xa2>
		/* 
		 * ==== getState() ====
		 * Devuelve el estado acutal del actuador tras el filtrado.
		 *  - return: [SwState] Estado relativo en el que está el actuador.
		 */
		return currentState;
     b6e:	17 96       	adiw	r26, 0x07	; 7
     b70:	8c 91       	ld	r24, X
     b72:	17 97       	sbiw	r26, 0x07	; 7
			SwitchMotor2::SwState state = eorSwitch->getState();
			
			// No moverse si ya está en posición de destino (extremos).
			if ((direction && state == SwitchMotor2::SIDE_1) ||
     b74:	81 30       	cpi	r24, 0x01	; 1
     b76:	09 f4       	brne	.+2      	; 0xb7a <_ZN11ArmadoState5entryEv+0x54>
     b78:	53 c0       	rjmp	.+166    	; 0xc20 <_ZN11ArmadoState5entryEv+0xfa>
				(!direction && state == SwitchMotor2::SIDE_2)) {
				return;
			}
			if (state != SwitchMotor2::MOVING) {
     b7a:	81 11       	cpse	r24, r1
     b7c:	02 c0       	rjmp	.+4      	; 0xb82 <_ZN11ArmadoState5entryEv+0x5c>
		 * ==== startMoving(bool direction, uint32_t currentTime) ====
		 * Ordena el arranque del motor en una dirección determinada. Parará en la siguiente posición encontrada.
		 *  - direction: [bool] Dirección de giro.
		 *  - currentTime: [uint32_t] Tiempo actual en ms.
		 */
		bool startFromSide = false;
     b7e:	90 e0       	ldi	r25, 0x00	; 0
     b80:	01 c0       	rjmp	.+2      	; 0xb84 <_ZN11ArmadoState5entryEv+0x5e>
			if ((direction && state == SwitchMotor2::SIDE_1) ||
				(!direction && state == SwitchMotor2::SIDE_2)) {
				return;
			}
			if (state != SwitchMotor2::MOVING) {
				startFromSide = true;
     b82:	91 e0       	ldi	r25, 0x01	; 1
		/* 
		 * ==== setExpectedDirection(bool direction) ====
		 * Establece la dirección y prepara el próximo estado lógico a alcanzar.
		 *  - direction: [bool] true si la dirección es hacia SIDE_1, false en caso contrario.
		 */
		expectedDirection = direction;
     b84:	81 e0       	ldi	r24, 0x01	; 1
     b86:	1a 96       	adiw	r26, 0x0a	; 10
     b88:	8c 93       	st	X, r24
     b8a:	1a 97       	sbiw	r26, 0x0a	; 10
		flagPressed = false;
     b8c:	19 96       	adiw	r26, 0x09	; 9
     b8e:	1c 92       	st	X, r1
     b90:	19 97       	sbiw	r26, 0x09	; 9
		
		// Lógica de 3 posiciones
		if (direction) { // hacia SIDE_1
			if (currentState == SIDE_2) nextExpectedState = SIDE_MIDDLE;
     b92:	17 96       	adiw	r26, 0x07	; 7
     b94:	8c 91       	ld	r24, X
     b96:	17 97       	sbiw	r26, 0x07	; 7
     b98:	82 30       	cpi	r24, 0x02	; 2
     b9a:	29 f4       	brne	.+10     	; 0xba6 <_ZN11ArmadoState5entryEv+0x80>
     b9c:	83 e0       	ldi	r24, 0x03	; 3
     b9e:	18 96       	adiw	r26, 0x08	; 8
     ba0:	8c 93       	st	X, r24
     ba2:	18 97       	sbiw	r26, 0x08	; 8
     ba4:	0e c0       	rjmp	.+28     	; 0xbc2 <_ZN11ArmadoState5entryEv+0x9c>
			else if (currentState == SIDE_MIDDLE) nextExpectedState = SIDE_1;
     ba6:	17 96       	adiw	r26, 0x07	; 7
     ba8:	8c 91       	ld	r24, X
     baa:	17 97       	sbiw	r26, 0x07	; 7
     bac:	83 30       	cpi	r24, 0x03	; 3
     bae:	29 f4       	brne	.+10     	; 0xbba <_ZN11ArmadoState5entryEv+0x94>
     bb0:	81 e0       	ldi	r24, 0x01	; 1
     bb2:	18 96       	adiw	r26, 0x08	; 8
     bb4:	8c 93       	st	X, r24
     bb6:	18 97       	sbiw	r26, 0x08	; 8
     bb8:	04 c0       	rjmp	.+8      	; 0xbc2 <_ZN11ArmadoState5entryEv+0x9c>
			else nextExpectedState = SIDE_1;
     bba:	81 e0       	ldi	r24, 0x01	; 1
     bbc:	18 96       	adiw	r26, 0x08	; 8
     bbe:	8c 93       	st	X, r24
     bc0:	18 97       	sbiw	r26, 0x08	; 8
			if (currentState == SIDE_1) nextExpectedState = SIDE_MIDDLE;
			else if (currentState == SIDE_MIDDLE) nextExpectedState = SIDE_2;
			else nextExpectedState = SIDE_2;
		}
		
		currentState = MOVING;
     bc2:	17 96       	adiw	r26, 0x07	; 7
     bc4:	1c 92       	st	X, r1
     bc6:	01 c0       	rjmp	.+2      	; 0xbca <_ZN11ArmadoState5entryEv+0xa4>
		 * ==== startMoving(bool direction, uint32_t currentTime) ====
		 * Ordena el arranque del motor en una dirección determinada. Parará en la siguiente posición encontrada.
		 *  - direction: [bool] Dirección de giro.
		 *  - currentTime: [uint32_t] Tiempo actual en ms.
		 */
		bool startFromSide = false;
     bc8:	90 e0       	ldi	r25, 0x00	; 0
		/* 
		 * ==== setDirection(bool forward) ====
		 * Establece la dirección de giro del motor.
		 *  - forward: [bool] Dirección de giro.
		 */
		if (forward)	*portDIR |= maskDIR;
     bca:	a0 81       	ld	r26, Z
     bcc:	b1 81       	ldd	r27, Z+1	; 0x01
     bce:	2c 91       	ld	r18, X
     bd0:	84 81       	ldd	r24, Z+4	; 0x04
     bd2:	82 2b       	or	r24, r18
     bd4:	8c 93       	st	X, r24
		/* 
		 * ==== setSpeed(bool speed) ====
		 * Establece la velociad de rotación del motor.
		 *  - speed: [uint8_t] Velocidad (PWM) de rotación.
		 */
		*ocrPWM = speed;
     bd6:	a2 85       	ldd	r26, Z+10	; 0x0a
     bd8:	b3 85       	ldd	r27, Z+11	; 0x0b
     bda:	8c ec       	ldi	r24, 0xCC	; 204
     bdc:	8c 93       	st	X, r24
			eorSwitch->setExpectedDirection(direction);
		}
		
		setDirection(direction);
		setSpeed(204); // 80% PWM
		isMoving = true;
     bde:	81 e0       	ldi	r24, 0x01	; 1
     be0:	86 87       	std	Z+14, r24	; 0x0e
		
		// Si arranca en CUALQUIER sensor, activar escape temporal.
		if (startFromSide || (eorSwitch != 0 && eorSwitch->isPressed())) {	
     be2:	91 11       	cpse	r25, r1
     be4:	0e c0       	rjmp	.+28     	; 0xc02 <_ZN11ArmadoState5entryEv+0xdc>
     be6:	a4 85       	ldd	r26, Z+12	; 0x0c
     be8:	b5 85       	ldd	r27, Z+13	; 0x0d
     bea:	10 97       	sbiw	r26, 0x00	; 0
     bec:	61 f0       	breq	.+24     	; 0xc06 <_ZN11ArmadoState5entryEv+0xe0>
		/* 
		 * ==== isPressed() ====
		 * Devuelve el estado acutal de la seńal del switch.
		 *  - return: [bool] true si el switch está presionado. flase en caso contrario.
		 */
		return !(*pinReg & mask);	// Lógica invertida (Pull-up)
     bee:	cd 91       	ld	r28, X+
     bf0:	dc 91       	ld	r29, X
     bf2:	11 97       	sbiw	r26, 0x01	; 1
     bf4:	98 81       	ld	r25, Y
     bf6:	16 96       	adiw	r26, 0x06	; 6
     bf8:	8c 91       	ld	r24, X
     bfa:	89 23       	and	r24, r25
     bfc:	31 f0       	breq	.+12     	; 0xc0a <_ZN11ArmadoState5entryEv+0xe4>
     bfe:	80 e0       	ldi	r24, 0x00	; 0
     c00:	05 c0       	rjmp	.+10     	; 0xc0c <_ZN11ArmadoState5entryEv+0xe6>
     c02:	81 e0       	ldi	r24, 0x01	; 1
     c04:	03 c0       	rjmp	.+6      	; 0xc0c <_ZN11ArmadoState5entryEv+0xe6>
     c06:	80 e0       	ldi	r24, 0x00	; 0
     c08:	01 c0       	rjmp	.+2      	; 0xc0c <_ZN11ArmadoState5entryEv+0xe6>
     c0a:	81 e0       	ldi	r24, 0x01	; 1
     c0c:	88 23       	and	r24, r24
     c0e:	39 f0       	breq	.+14     	; 0xc1e <_ZN11ArmadoState5entryEv+0xf8>
			isEscaping = true;
     c10:	81 e0       	ldi	r24, 0x01	; 1
     c12:	87 87       	std	Z+15, r24	; 0x0f
			escapeStartTimestamp = currentTime;
     c14:	40 8b       	std	Z+16, r20	; 0x10
     c16:	51 8b       	std	Z+17, r21	; 0x11
     c18:	62 8b       	std	Z+18, r22	; 0x12
     c1a:	73 8b       	std	Z+19, r23	; 0x13
     c1c:	01 c0       	rjmp	.+2      	; 0xc20 <_ZN11ArmadoState5entryEv+0xfa>
		} else {
			isEscaping = false;
     c1e:	17 86       	std	Z+15, r1	; 0x0f

		}
     c20:	df 91       	pop	r29
     c22:	cf 91       	pop	r28
     c24:	08 95       	ret

00000c26 <_ZN16CalibrationState5entryEv>:

class CalibrationState : public StateActionBase {
	public:
		explicit CalibrationState(Status *s) : StateActionBase(s) {}
			
		void entry() override {
     c26:	cf 93       	push	r28
     c28:	df 93       	push	r29
     c2a:	ec 01       	movw	r28, r24
			status->m1->calibrate(M1_GO_UP, status->current_time);
     c2c:	ea 81       	ldd	r30, Y+2	; 0x02
     c2e:	fb 81       	ldd	r31, Y+3	; 0x03
     c30:	45 a1       	ldd	r20, Z+37	; 0x25
     c32:	56 a1       	ldd	r21, Z+38	; 0x26
     c34:	67 a1       	ldd	r22, Z+39	; 0x27
     c36:	70 a5       	ldd	r23, Z+40	; 0x28
     c38:	01 90       	ld	r0, Z+
     c3a:	f0 81       	ld	r31, Z
     c3c:	e0 2d       	mov	r30, r0
		 *  - direction: [bool] Dirección de giro.
		 *  - currentTime: [uint32_t] Tiempo actual en ms.
		 */
		bool startFromSide = false;
	
		if (eorSwitch != 0) {
     c3e:	a4 85       	ldd	r26, Z+12	; 0x0c
     c40:	b5 85       	ldd	r27, Z+13	; 0x0d
     c42:	10 97       	sbiw	r26, 0x00	; 0
     c44:	c9 f0       	breq	.+50     	; 0xc78 <_ZN16CalibrationState5entryEv+0x52>
		/* 
		 * ==== getState() ====
		 * Devuelve el estado acutal del actuador tras el filtrado.
		 *  - return: [SwState] Estado relativo en el que está el actuador.
		 */
		return currentState;
     c46:	17 96       	adiw	r26, 0x07	; 7
     c48:	8c 91       	ld	r24, X
     c4a:	17 97       	sbiw	r26, 0x07	; 7
			SwitchMotor::SwState state = eorSwitch->getState();
			
			// No moverse si ya está en posición de destino.
			if ((direction && state == SwitchMotor::SIDE_1) ||
     c4c:	81 30       	cpi	r24, 0x01	; 1
     c4e:	09 f4       	brne	.+2      	; 0xc52 <_ZN16CalibrationState5entryEv+0x2c>
     c50:	42 c0       	rjmp	.+132    	; 0xcd6 <_ZN16CalibrationState5entryEv+0xb0>
				(!direction && state == SwitchMotor::SIDE_2)) {
				return;
			}
			if (state != SwitchMotor::MOVING) {
     c52:	81 11       	cpse	r24, r1
     c54:	02 c0       	rjmp	.+4      	; 0xc5a <_ZN16CalibrationState5entryEv+0x34>
		 * ==== startMoving(bool direction, uint32_t currentTime) ====
		 * Ordena el arranque del motor en una dirección determinada.
		 *  - direction: [bool] Dirección de giro.
		 *  - currentTime: [uint32_t] Tiempo actual en ms.
		 */
		bool startFromSide = false;
     c56:	90 e0       	ldi	r25, 0x00	; 0
     c58:	01 c0       	rjmp	.+2      	; 0xc5c <_ZN16CalibrationState5entryEv+0x36>
			if ((direction && state == SwitchMotor::SIDE_1) ||
				(!direction && state == SwitchMotor::SIDE_2)) {
				return;
			}
			if (state != SwitchMotor::MOVING) {
				startFromSide = true;
     c5a:	91 e0       	ldi	r25, 0x01	; 1
		/* 
		 * ==== forceState(SwState s) ====
		 * Establece el estado del actuador. Debe ser usado tras la calibración.
		 *  - s: [SwState] Estado actual del actuador.
		 */
		currentState = s;
     c5c:	17 96       	adiw	r26, 0x07	; 7
     c5e:	1c 92       	st	X, r1
     c60:	17 97       	sbiw	r26, 0x07	; 7
		flagPressed = false;
     c62:	18 96       	adiw	r26, 0x08	; 8
     c64:	1c 92       	st	X, r1
			}
			
			// Prepara el switch para escuchar la colisión.
			eorSwitch->forceState(SwitchMotor::MOVING);
			eorSwitch->setExpectedDirection(direction);
     c66:	a4 85       	ldd	r26, Z+12	; 0x0c
     c68:	b5 85       	ldd	r27, Z+13	; 0x0d
		/* 
		 * ==== setExpectedDirection(bool direction) ====
		 * Establece la dirección a la que se mueve el motor.
		 *  - direction: [bool] true si la dirección es hacia SIDE_1, false en caso contrario.
		 */
		expectedDirection = direction;
     c6a:	81 e0       	ldi	r24, 0x01	; 1
     c6c:	19 96       	adiw	r26, 0x09	; 9
     c6e:	8c 93       	st	X, r24
     c70:	19 97       	sbiw	r26, 0x09	; 9
		flagPressed = false;
     c72:	18 96       	adiw	r26, 0x08	; 8
     c74:	1c 92       	st	X, r1
     c76:	01 c0       	rjmp	.+2      	; 0xc7a <_ZN16CalibrationState5entryEv+0x54>
		 * ==== startMoving(bool direction, uint32_t currentTime) ====
		 * Ordena el arranque del motor en una dirección determinada.
		 *  - direction: [bool] Dirección de giro.
		 *  - currentTime: [uint32_t] Tiempo actual en ms.
		 */
		bool startFromSide = false;
     c78:	90 e0       	ldi	r25, 0x00	; 0
		/* 
		 * ==== setDirection(bool forward) ====
		 * Establece la dirección de giro del motor.
		 *  - forward: [bool] Dirección de giro.
		 */
		if (forward)	*portDIR |= maskDIR;
     c7a:	a0 81       	ld	r26, Z
     c7c:	b1 81       	ldd	r27, Z+1	; 0x01
     c7e:	2c 91       	ld	r18, X
     c80:	84 81       	ldd	r24, Z+4	; 0x04
     c82:	82 2b       	or	r24, r18
     c84:	8c 93       	st	X, r24
		/* 
		 * ==== setSpeed(bool speed) ====
		 * Establece la velociad de rotación del motor.
		 *  - speed: [uint8_t] Velocidad (PWM) de rotación.
		 */
		*ocrPWM = speed;
     c86:	a2 85       	ldd	r26, Z+10	; 0x0a
     c88:	b3 85       	ldd	r27, Z+11	; 0x0b
     c8a:	8c ec       	ldi	r24, 0xCC	; 204
     c8c:	8c 93       	st	X, r24
			eorSwitch->setExpectedDirection(direction);
		}
		
		setDirection(direction);
		setSpeed(204); // 80% PWM
		isMoving = true;
     c8e:	81 e0       	ldi	r24, 0x01	; 1
     c90:	86 87       	std	Z+14, r24	; 0x0e
		
		// Si arranca en sensor, activar escape.
		if (startFromSide || (eorSwitch != 0 && eorSwitch->isPressed())) {	
     c92:	91 11       	cpse	r25, r1
     c94:	11 c0       	rjmp	.+34     	; 0xcb8 <_ZN16CalibrationState5entryEv+0x92>
     c96:	24 85       	ldd	r18, Z+12	; 0x0c
     c98:	35 85       	ldd	r19, Z+13	; 0x0d
     c9a:	21 15       	cp	r18, r1
     c9c:	31 05       	cpc	r19, r1
     c9e:	71 f0       	breq	.+28     	; 0xcbc <_ZN16CalibrationState5entryEv+0x96>
		/* 
		 * ==== isPressed() ====
		 * Devuelve el estado acutal de la seńal del switch.
		 *  - return: [bool] true si el switch está presionado. flase en caso contrario.
		 */
		return !(*pinReg & mask);	// Lógica invertida (Pull-up)
     ca0:	d9 01       	movw	r26, r18
     ca2:	8d 91       	ld	r24, X+
     ca4:	9c 91       	ld	r25, X
     ca6:	dc 01       	movw	r26, r24
     ca8:	9c 91       	ld	r25, X
     caa:	d9 01       	movw	r26, r18
     cac:	16 96       	adiw	r26, 0x06	; 6
     cae:	8c 91       	ld	r24, X
     cb0:	89 23       	and	r24, r25
     cb2:	31 f0       	breq	.+12     	; 0xcc0 <_ZN16CalibrationState5entryEv+0x9a>
     cb4:	80 e0       	ldi	r24, 0x00	; 0
     cb6:	05 c0       	rjmp	.+10     	; 0xcc2 <_ZN16CalibrationState5entryEv+0x9c>
     cb8:	81 e0       	ldi	r24, 0x01	; 1
     cba:	03 c0       	rjmp	.+6      	; 0xcc2 <_ZN16CalibrationState5entryEv+0x9c>
     cbc:	80 e0       	ldi	r24, 0x00	; 0
     cbe:	01 c0       	rjmp	.+2      	; 0xcc2 <_ZN16CalibrationState5entryEv+0x9c>
     cc0:	81 e0       	ldi	r24, 0x01	; 1
     cc2:	88 23       	and	r24, r24
     cc4:	39 f0       	breq	.+14     	; 0xcd4 <_ZN16CalibrationState5entryEv+0xae>
			isEscaping = true;
     cc6:	81 e0       	ldi	r24, 0x01	; 1
     cc8:	87 87       	std	Z+15, r24	; 0x0f
			escapeStartTimestamp = currentTime;
     cca:	40 8b       	std	Z+16, r20	; 0x10
     ccc:	51 8b       	std	Z+17, r21	; 0x11
     cce:	62 8b       	std	Z+18, r22	; 0x12
     cd0:	73 8b       	std	Z+19, r23	; 0x13
     cd2:	01 c0       	rjmp	.+2      	; 0xcd6 <_ZN16CalibrationState5entryEv+0xb0>
		} else {
			isEscaping = false;
     cd4:	17 86       	std	Z+15, r1	; 0x0f
		 *  - currentTime: [uint32_t] Tiempo actual en ms.
		 */
		
		startMoving(direction, currentTime);
		
		if(isMoving) {
     cd6:	86 85       	ldd	r24, Z+14	; 0x0e
     cd8:	88 23       	and	r24, r24
     cda:	21 f0       	breq	.+8      	; 0xce4 <_ZN16CalibrationState5entryEv+0xbe>
		/* 
		 * ==== setSpeed(bool speed) ====
		 * Establece la velociad de rotación del motor.
		 *  - speed: [uint8_t] Velocidad (PWM) de rotación.
		 */
		*ocrPWM = speed;
     cdc:	a2 85       	ldd	r26, Z+10	; 0x0a
     cde:	b3 85       	ldd	r27, Z+11	; 0x0b
     ce0:	89 e9       	ldi	r24, 0x99	; 153
     ce2:	8c 93       	st	X, r24
		
		if(isMoving) {
			setSpeed(153); // 60% PWM
		}
		
		isCalibrating = true;
     ce4:	81 e0       	ldi	r24, 0x01	; 1
     ce6:	80 8f       	std	Z+24, r24	; 0x18
		isWaitingAfterCalib = false;
     ce8:	11 8e       	std	Z+25, r1	; 0x19
		calibDirection = direction;
     cea:	86 8f       	std	Z+30, r24	; 0x1e
		stateTimer = currentTime;		
     cec:	42 8f       	std	Z+26, r20	; 0x1a
     cee:	53 8f       	std	Z+27, r21	; 0x1b
     cf0:	64 8f       	std	Z+28, r22	; 0x1c
     cf2:	75 8f       	std	Z+29, r23	; 0x1d
			status->m4->calibrate(M4_GO_OPEN, status->current_time);
     cf4:	ea 81       	ldd	r30, Y+2	; 0x02
     cf6:	fb 81       	ldd	r31, Y+3	; 0x03
     cf8:	45 a1       	ldd	r20, Z+37	; 0x25
     cfa:	56 a1       	ldd	r21, Z+38	; 0x26
     cfc:	67 a1       	ldd	r22, Z+39	; 0x27
     cfe:	70 a5       	ldd	r23, Z+40	; 0x28
     d00:	06 80       	ldd	r0, Z+6	; 0x06
     d02:	f7 81       	ldd	r31, Z+7	; 0x07
     d04:	e0 2d       	mov	r30, r0
		 *  - direction: [bool] Dirección de giro.
		 *  - currentTime: [uint32_t] Tiempo actual en ms.
		 */
		bool startFromSide = false;
	
		if (eorSwitch != 0) {
     d06:	a4 85       	ldd	r26, Z+12	; 0x0c
     d08:	b5 85       	ldd	r27, Z+13	; 0x0d
     d0a:	10 97       	sbiw	r26, 0x00	; 0
     d0c:	c9 f0       	breq	.+50     	; 0xd40 <_ZN16CalibrationState5entryEv+0x11a>
		/* 
		 * ==== getState() ====
		 * Devuelve el estado acutal del actuador tras el filtrado.
		 *  - return: [SwState] Estado relativo en el que está el actuador.
		 */
		return currentState;
     d0e:	17 96       	adiw	r26, 0x07	; 7
     d10:	8c 91       	ld	r24, X
     d12:	17 97       	sbiw	r26, 0x07	; 7
			SwitchMotor::SwState state = eorSwitch->getState();
			
			// No moverse si ya está en posición de destino.
			if ((direction && state == SwitchMotor::SIDE_1) ||
     d14:	81 30       	cpi	r24, 0x01	; 1
     d16:	09 f4       	brne	.+2      	; 0xd1a <_ZN16CalibrationState5entryEv+0xf4>
     d18:	42 c0       	rjmp	.+132    	; 0xd9e <_ZN16CalibrationState5entryEv+0x178>
				(!direction && state == SwitchMotor::SIDE_2)) {
				return;
			}
			if (state != SwitchMotor::MOVING) {
     d1a:	81 11       	cpse	r24, r1
     d1c:	02 c0       	rjmp	.+4      	; 0xd22 <_ZN16CalibrationState5entryEv+0xfc>
		 * ==== startMoving(bool direction, uint32_t currentTime) ====
		 * Ordena el arranque del motor en una dirección determinada.
		 *  - direction: [bool] Dirección de giro.
		 *  - currentTime: [uint32_t] Tiempo actual en ms.
		 */
		bool startFromSide = false;
     d1e:	90 e0       	ldi	r25, 0x00	; 0
     d20:	01 c0       	rjmp	.+2      	; 0xd24 <_ZN16CalibrationState5entryEv+0xfe>
			if ((direction && state == SwitchMotor::SIDE_1) ||
				(!direction && state == SwitchMotor::SIDE_2)) {
				return;
			}
			if (state != SwitchMotor::MOVING) {
				startFromSide = true;
     d22:	91 e0       	ldi	r25, 0x01	; 1
		/* 
		 * ==== forceState(SwState s) ====
		 * Establece el estado del actuador. Debe ser usado tras la calibración.
		 *  - s: [SwState] Estado actual del actuador.
		 */
		currentState = s;
     d24:	17 96       	adiw	r26, 0x07	; 7
     d26:	1c 92       	st	X, r1
     d28:	17 97       	sbiw	r26, 0x07	; 7
		flagPressed = false;
     d2a:	18 96       	adiw	r26, 0x08	; 8
     d2c:	1c 92       	st	X, r1
			}
			
			// Prepara el switch para escuchar la colisión.
			eorSwitch->forceState(SwitchMotor::MOVING);
			eorSwitch->setExpectedDirection(direction);
     d2e:	a4 85       	ldd	r26, Z+12	; 0x0c
     d30:	b5 85       	ldd	r27, Z+13	; 0x0d
		/* 
		 * ==== setExpectedDirection(bool direction) ====
		 * Establece la dirección a la que se mueve el motor.
		 *  - direction: [bool] true si la dirección es hacia SIDE_1, false en caso contrario.
		 */
		expectedDirection = direction;
     d32:	81 e0       	ldi	r24, 0x01	; 1
     d34:	19 96       	adiw	r26, 0x09	; 9
     d36:	8c 93       	st	X, r24
     d38:	19 97       	sbiw	r26, 0x09	; 9
		flagPressed = false;
     d3a:	18 96       	adiw	r26, 0x08	; 8
     d3c:	1c 92       	st	X, r1
     d3e:	01 c0       	rjmp	.+2      	; 0xd42 <_ZN16CalibrationState5entryEv+0x11c>
		 * ==== startMoving(bool direction, uint32_t currentTime) ====
		 * Ordena el arranque del motor en una dirección determinada.
		 *  - direction: [bool] Dirección de giro.
		 *  - currentTime: [uint32_t] Tiempo actual en ms.
		 */
		bool startFromSide = false;
     d40:	90 e0       	ldi	r25, 0x00	; 0
		/* 
		 * ==== setDirection(bool forward) ====
		 * Establece la dirección de giro del motor.
		 *  - forward: [bool] Dirección de giro.
		 */
		if (forward)	*portDIR |= maskDIR;
     d42:	a0 81       	ld	r26, Z
     d44:	b1 81       	ldd	r27, Z+1	; 0x01
     d46:	2c 91       	ld	r18, X
     d48:	84 81       	ldd	r24, Z+4	; 0x04
     d4a:	82 2b       	or	r24, r18
     d4c:	8c 93       	st	X, r24
		/* 
		 * ==== setSpeed(bool speed) ====
		 * Establece la velociad de rotación del motor.
		 *  - speed: [uint8_t] Velocidad (PWM) de rotación.
		 */
		*ocrPWM = speed;
     d4e:	a2 85       	ldd	r26, Z+10	; 0x0a
     d50:	b3 85       	ldd	r27, Z+11	; 0x0b
     d52:	8c ec       	ldi	r24, 0xCC	; 204
     d54:	8c 93       	st	X, r24
			eorSwitch->setExpectedDirection(direction);
		}
		
		setDirection(direction);
		setSpeed(204); // 80% PWM
		isMoving = true;
     d56:	81 e0       	ldi	r24, 0x01	; 1
     d58:	86 87       	std	Z+14, r24	; 0x0e
		
		// Si arranca en sensor, activar escape.
		if (startFromSide || (eorSwitch != 0 && eorSwitch->isPressed())) {	
     d5a:	91 11       	cpse	r25, r1
     d5c:	11 c0       	rjmp	.+34     	; 0xd80 <_ZN16CalibrationState5entryEv+0x15a>
     d5e:	24 85       	ldd	r18, Z+12	; 0x0c
     d60:	35 85       	ldd	r19, Z+13	; 0x0d
     d62:	21 15       	cp	r18, r1
     d64:	31 05       	cpc	r19, r1
     d66:	71 f0       	breq	.+28     	; 0xd84 <_ZN16CalibrationState5entryEv+0x15e>
		/* 
		 * ==== isPressed() ====
		 * Devuelve el estado acutal de la seńal del switch.
		 *  - return: [bool] true si el switch está presionado. flase en caso contrario.
		 */
		return !(*pinReg & mask);	// Lógica invertida (Pull-up)
     d68:	d9 01       	movw	r26, r18
     d6a:	8d 91       	ld	r24, X+
     d6c:	9c 91       	ld	r25, X
     d6e:	dc 01       	movw	r26, r24
     d70:	9c 91       	ld	r25, X
     d72:	d9 01       	movw	r26, r18
     d74:	16 96       	adiw	r26, 0x06	; 6
     d76:	8c 91       	ld	r24, X
     d78:	89 23       	and	r24, r25
     d7a:	31 f0       	breq	.+12     	; 0xd88 <_ZN16CalibrationState5entryEv+0x162>
     d7c:	80 e0       	ldi	r24, 0x00	; 0
     d7e:	05 c0       	rjmp	.+10     	; 0xd8a <_ZN16CalibrationState5entryEv+0x164>
     d80:	81 e0       	ldi	r24, 0x01	; 1
     d82:	03 c0       	rjmp	.+6      	; 0xd8a <_ZN16CalibrationState5entryEv+0x164>
     d84:	80 e0       	ldi	r24, 0x00	; 0
     d86:	01 c0       	rjmp	.+2      	; 0xd8a <_ZN16CalibrationState5entryEv+0x164>
     d88:	81 e0       	ldi	r24, 0x01	; 1
     d8a:	88 23       	and	r24, r24
     d8c:	39 f0       	breq	.+14     	; 0xd9c <_ZN16CalibrationState5entryEv+0x176>
			isEscaping = true;
     d8e:	81 e0       	ldi	r24, 0x01	; 1
     d90:	87 87       	std	Z+15, r24	; 0x0f
			escapeStartTimestamp = currentTime;
     d92:	40 8b       	std	Z+16, r20	; 0x10
     d94:	51 8b       	std	Z+17, r21	; 0x11
     d96:	62 8b       	std	Z+18, r22	; 0x12
     d98:	73 8b       	std	Z+19, r23	; 0x13
     d9a:	01 c0       	rjmp	.+2      	; 0xd9e <_ZN16CalibrationState5entryEv+0x178>
		} else {
			isEscaping = false;
     d9c:	17 86       	std	Z+15, r1	; 0x0f
		 *  - currentTime: [uint32_t] Tiempo actual en ms.
		 */
		
		startMoving(direction, currentTime);
		
		if(isMoving) {
     d9e:	86 85       	ldd	r24, Z+14	; 0x0e
     da0:	88 23       	and	r24, r24
     da2:	21 f0       	breq	.+8      	; 0xdac <_ZN16CalibrationState5entryEv+0x186>
		/* 
		 * ==== setSpeed(bool speed) ====
		 * Establece la velociad de rotación del motor.
		 *  - speed: [uint8_t] Velocidad (PWM) de rotación.
		 */
		*ocrPWM = speed;
     da4:	a2 85       	ldd	r26, Z+10	; 0x0a
     da6:	b3 85       	ldd	r27, Z+11	; 0x0b
     da8:	89 e9       	ldi	r24, 0x99	; 153
     daa:	8c 93       	st	X, r24
		
		if(isMoving) {
			setSpeed(153); // 60% PWM
		}
		
		isCalibrating = true;
     dac:	81 e0       	ldi	r24, 0x01	; 1
     dae:	80 8f       	std	Z+24, r24	; 0x18
		isWaitingAfterCalib = false;
     db0:	11 8e       	std	Z+25, r1	; 0x19
		calibDirection = direction;
     db2:	86 8f       	std	Z+30, r24	; 0x1e
		stateTimer = currentTime;		
     db4:	42 8f       	std	Z+26, r20	; 0x1a
     db6:	53 8f       	std	Z+27, r21	; 0x1b
     db8:	64 8f       	std	Z+28, r22	; 0x1c
     dba:	75 8f       	std	Z+29, r23	; 0x1d
			status->m5->calibrate(M5_GO_DOWN, status->current_time);
     dbc:	ea 81       	ldd	r30, Y+2	; 0x02
     dbe:	fb 81       	ldd	r31, Y+3	; 0x03
     dc0:	45 a1       	ldd	r20, Z+37	; 0x25
     dc2:	56 a1       	ldd	r21, Z+38	; 0x26
     dc4:	67 a1       	ldd	r22, Z+39	; 0x27
     dc6:	70 a5       	ldd	r23, Z+40	; 0x28
     dc8:	00 84       	ldd	r0, Z+8	; 0x08
     dca:	f1 85       	ldd	r31, Z+9	; 0x09
     dcc:	e0 2d       	mov	r30, r0
		 *  - direction: [bool] Dirección de giro.
		 *  - currentTime: [uint32_t] Tiempo actual en ms.
		 */
		bool startFromSide = false;
	
		if (eorSwitch != 0) {
     dce:	a4 85       	ldd	r26, Z+12	; 0x0c
     dd0:	b5 85       	ldd	r27, Z+13	; 0x0d
     dd2:	10 97       	sbiw	r26, 0x00	; 0
     dd4:	c1 f0       	breq	.+48     	; 0xe06 <_ZN16CalibrationState5entryEv+0x1e0>
		/* 
		 * ==== getState() ====
		 * Devuelve el estado acutal del actuador tras el filtrado.
		 *  - return: [SwState] Estado relativo en el que está el actuador.
		 */
		return currentState;
     dd6:	17 96       	adiw	r26, 0x07	; 7
     dd8:	8c 91       	ld	r24, X
     dda:	17 97       	sbiw	r26, 0x07	; 7
			SwitchMotor::SwState state = eorSwitch->getState();
			
			// No moverse si ya está en posición de destino.
			if ((direction && state == SwitchMotor::SIDE_1) ||
				(!direction && state == SwitchMotor::SIDE_2)) {
     ddc:	82 30       	cpi	r24, 0x02	; 2
     dde:	09 f4       	brne	.+2      	; 0xde2 <_ZN16CalibrationState5entryEv+0x1bc>
     de0:	3f c0       	rjmp	.+126    	; 0xe60 <_ZN16CalibrationState5entryEv+0x23a>
				return;
			}
			if (state != SwitchMotor::MOVING) {
     de2:	81 11       	cpse	r24, r1
     de4:	02 c0       	rjmp	.+4      	; 0xdea <_ZN16CalibrationState5entryEv+0x1c4>
		 * ==== startMoving(bool direction, uint32_t currentTime) ====
		 * Ordena el arranque del motor en una dirección determinada.
		 *  - direction: [bool] Dirección de giro.
		 *  - currentTime: [uint32_t] Tiempo actual en ms.
		 */
		bool startFromSide = false;
     de6:	20 e0       	ldi	r18, 0x00	; 0
     de8:	01 c0       	rjmp	.+2      	; 0xdec <_ZN16CalibrationState5entryEv+0x1c6>
			if ((direction && state == SwitchMotor::SIDE_1) ||
				(!direction && state == SwitchMotor::SIDE_2)) {
				return;
			}
			if (state != SwitchMotor::MOVING) {
				startFromSide = true;
     dea:	21 e0       	ldi	r18, 0x01	; 1
		/* 
		 * ==== forceState(SwState s) ====
		 * Establece el estado del actuador. Debe ser usado tras la calibración.
		 *  - s: [SwState] Estado actual del actuador.
		 */
		currentState = s;
     dec:	17 96       	adiw	r26, 0x07	; 7
     dee:	1c 92       	st	X, r1
     df0:	17 97       	sbiw	r26, 0x07	; 7
		flagPressed = false;
     df2:	18 96       	adiw	r26, 0x08	; 8
     df4:	1c 92       	st	X, r1
			}
			
			// Prepara el switch para escuchar la colisión.
			eorSwitch->forceState(SwitchMotor::MOVING);
			eorSwitch->setExpectedDirection(direction);
     df6:	a4 85       	ldd	r26, Z+12	; 0x0c
     df8:	b5 85       	ldd	r27, Z+13	; 0x0d
		/* 
		 * ==== setExpectedDirection(bool direction) ====
		 * Establece la dirección a la que se mueve el motor.
		 *  - direction: [bool] true si la dirección es hacia SIDE_1, false en caso contrario.
		 */
		expectedDirection = direction;
     dfa:	19 96       	adiw	r26, 0x09	; 9
     dfc:	1c 92       	st	X, r1
     dfe:	19 97       	sbiw	r26, 0x09	; 9
		flagPressed = false;
     e00:	18 96       	adiw	r26, 0x08	; 8
     e02:	1c 92       	st	X, r1
     e04:	01 c0       	rjmp	.+2      	; 0xe08 <_ZN16CalibrationState5entryEv+0x1e2>
		 * ==== startMoving(bool direction, uint32_t currentTime) ====
		 * Ordena el arranque del motor en una dirección determinada.
		 *  - direction: [bool] Dirección de giro.
		 *  - currentTime: [uint32_t] Tiempo actual en ms.
		 */
		bool startFromSide = false;
     e06:	20 e0       	ldi	r18, 0x00	; 0
		 * ==== setDirection(bool forward) ====
		 * Establece la dirección de giro del motor.
		 *  - forward: [bool] Dirección de giro.
		 */
		if (forward)	*portDIR |= maskDIR;
		else			*portDIR &= ~maskDIR;
     e08:	a0 81       	ld	r26, Z
     e0a:	b1 81       	ldd	r27, Z+1	; 0x01
     e0c:	9c 91       	ld	r25, X
     e0e:	84 81       	ldd	r24, Z+4	; 0x04
     e10:	80 95       	com	r24
     e12:	89 23       	and	r24, r25
     e14:	8c 93       	st	X, r24
		/* 
		 * ==== setSpeed(bool speed) ====
		 * Establece la velociad de rotación del motor.
		 *  - speed: [uint8_t] Velocidad (PWM) de rotación.
		 */
		*ocrPWM = speed;
     e16:	a2 85       	ldd	r26, Z+10	; 0x0a
     e18:	b3 85       	ldd	r27, Z+11	; 0x0b
     e1a:	8c ec       	ldi	r24, 0xCC	; 204
     e1c:	8c 93       	st	X, r24
			eorSwitch->setExpectedDirection(direction);
		}
		
		setDirection(direction);
		setSpeed(204); // 80% PWM
		isMoving = true;
     e1e:	81 e0       	ldi	r24, 0x01	; 1
     e20:	86 87       	std	Z+14, r24	; 0x0e
		
		// Si arranca en sensor, activar escape.
		if (startFromSide || (eorSwitch != 0 && eorSwitch->isPressed())) {	
     e22:	21 11       	cpse	r18, r1
     e24:	0e c0       	rjmp	.+28     	; 0xe42 <_ZN16CalibrationState5entryEv+0x21c>
     e26:	a4 85       	ldd	r26, Z+12	; 0x0c
     e28:	b5 85       	ldd	r27, Z+13	; 0x0d
     e2a:	10 97       	sbiw	r26, 0x00	; 0
     e2c:	61 f0       	breq	.+24     	; 0xe46 <_ZN16CalibrationState5entryEv+0x220>
		/* 
		 * ==== isPressed() ====
		 * Devuelve el estado acutal de la seńal del switch.
		 *  - return: [bool] true si el switch está presionado. flase en caso contrario.
		 */
		return !(*pinReg & mask);	// Lógica invertida (Pull-up)
     e2e:	cd 91       	ld	r28, X+
     e30:	dc 91       	ld	r29, X
     e32:	11 97       	sbiw	r26, 0x01	; 1
     e34:	98 81       	ld	r25, Y
     e36:	16 96       	adiw	r26, 0x06	; 6
     e38:	8c 91       	ld	r24, X
     e3a:	89 23       	and	r24, r25
     e3c:	31 f0       	breq	.+12     	; 0xe4a <_ZN16CalibrationState5entryEv+0x224>
     e3e:	80 e0       	ldi	r24, 0x00	; 0
     e40:	05 c0       	rjmp	.+10     	; 0xe4c <_ZN16CalibrationState5entryEv+0x226>
     e42:	81 e0       	ldi	r24, 0x01	; 1
     e44:	03 c0       	rjmp	.+6      	; 0xe4c <_ZN16CalibrationState5entryEv+0x226>
     e46:	80 e0       	ldi	r24, 0x00	; 0
     e48:	01 c0       	rjmp	.+2      	; 0xe4c <_ZN16CalibrationState5entryEv+0x226>
     e4a:	81 e0       	ldi	r24, 0x01	; 1
     e4c:	88 23       	and	r24, r24
     e4e:	39 f0       	breq	.+14     	; 0xe5e <_ZN16CalibrationState5entryEv+0x238>
			isEscaping = true;
     e50:	81 e0       	ldi	r24, 0x01	; 1
     e52:	87 87       	std	Z+15, r24	; 0x0f
			escapeStartTimestamp = currentTime;
     e54:	40 8b       	std	Z+16, r20	; 0x10
     e56:	51 8b       	std	Z+17, r21	; 0x11
     e58:	62 8b       	std	Z+18, r22	; 0x12
     e5a:	73 8b       	std	Z+19, r23	; 0x13
     e5c:	01 c0       	rjmp	.+2      	; 0xe60 <_ZN16CalibrationState5entryEv+0x23a>
		} else {
			isEscaping = false;
     e5e:	17 86       	std	Z+15, r1	; 0x0f
		 *  - currentTime: [uint32_t] Tiempo actual en ms.
		 */
		
		startMoving(direction, currentTime);
		
		if(isMoving) {
     e60:	86 85       	ldd	r24, Z+14	; 0x0e
     e62:	88 23       	and	r24, r24
     e64:	21 f0       	breq	.+8      	; 0xe6e <_ZN16CalibrationState5entryEv+0x248>
		/* 
		 * ==== setSpeed(bool speed) ====
		 * Establece la velociad de rotación del motor.
		 *  - speed: [uint8_t] Velocidad (PWM) de rotación.
		 */
		*ocrPWM = speed;
     e66:	a2 85       	ldd	r26, Z+10	; 0x0a
     e68:	b3 85       	ldd	r27, Z+11	; 0x0b
     e6a:	89 e9       	ldi	r24, 0x99	; 153
     e6c:	8c 93       	st	X, r24
		
		if(isMoving) {
			setSpeed(153); // 60% PWM
		}
		
		isCalibrating = true;
     e6e:	81 e0       	ldi	r24, 0x01	; 1
     e70:	80 8f       	std	Z+24, r24	; 0x18
		isWaitingAfterCalib = false;
     e72:	11 8e       	std	Z+25, r1	; 0x19
		calibDirection = direction;
     e74:	16 8e       	std	Z+30, r1	; 0x1e
		stateTimer = currentTime;		
     e76:	42 8f       	std	Z+26, r20	; 0x1a
     e78:	53 8f       	std	Z+27, r21	; 0x1b
     e7a:	64 8f       	std	Z+28, r22	; 0x1c
     e7c:	75 8f       	std	Z+29, r23	; 0x1d
		}
     e7e:	df 91       	pop	r29
     e80:	cf 91       	pop	r28
     e82:	08 95       	ret

00000e84 <_ZN16CalibrationState3runEv>:
		
		void run() override {
     e84:	0f 93       	push	r16
     e86:	1f 93       	push	r17
     e88:	cf 93       	push	r28
     e8a:	df 93       	push	r29
     e8c:	8c 01       	movw	r16, r24
			if (!status->m1->getIsMoving() && status->sw1->getState()==M1_IS_UP) {
     e8e:	dc 01       	movw	r26, r24
     e90:	12 96       	adiw	r26, 0x02	; 2
     e92:	ed 91       	ld	r30, X+
     e94:	fc 91       	ld	r31, X
     e96:	13 97       	sbiw	r26, 0x03	; 3
     e98:	c0 81       	ld	r28, Z
     e9a:	d1 81       	ldd	r29, Z+1	; 0x01
	bool getIsMoving() {
		/*
		 * ==== getIsMoving() ====
		 * Devuelve si el motor se está moviendo.
		 */
		return isMoving;
     e9c:	9e 85       	ldd	r25, Y+14	; 0x0e
     e9e:	91 11       	cpse	r25, r1
     ea0:	07 c0       	rjmp	.+14     	; 0xeb0 <_ZN16CalibrationState3runEv+0x2c>
     ea2:	c2 85       	ldd	r28, Z+10	; 0x0a
     ea4:	d3 85       	ldd	r29, Z+11	; 0x0b
		/* 
		 * ==== getState() ====
		 * Devuelve el estado acutal del actuador tras el filtrado.
		 *  - return: [SwState] Estado relativo en el que está el actuador.
		 */
		return currentState;
     ea6:	8f 81       	ldd	r24, Y+7	; 0x07
     ea8:	81 30       	cpi	r24, 0x01	; 1
     eaa:	19 f4       	brne	.+6      	; 0xeb2 <_ZN16CalibrationState3runEv+0x2e>
     eac:	91 e0       	ldi	r25, 0x01	; 1
     eae:	01 c0       	rjmp	.+2      	; 0xeb2 <_ZN16CalibrationState3runEv+0x2e>
     eb0:	90 e0       	ldi	r25, 0x00	; 0
     eb2:	99 23       	and	r25, r25
     eb4:	09 f4       	brne	.+2      	; 0xeb8 <_ZN16CalibrationState3runEv+0x34>
     eb6:	6d c0       	rjmp	.+218    	; 0xf92 <_ZN16CalibrationState3runEv+0x10e>
				if (!status->m2->getIsMoving() && status->sw2->getState() != M2_IS_RIGHT) {
     eb8:	c2 81       	ldd	r28, Z+2	; 0x02
     eba:	d3 81       	ldd	r29, Z+3	; 0x03
	bool getIsMoving() {
		/*
		 * ==== getIsMoving() ====
		 * Devuelve si el motor se está moviendo.
		 */
		return isMoving;
     ebc:	8e 85       	ldd	r24, Y+14	; 0x0e
     ebe:	81 11       	cpse	r24, r1
     ec0:	08 c0       	rjmp	.+16     	; 0xed2 <_ZN16CalibrationState3runEv+0x4e>
     ec2:	24 85       	ldd	r18, Z+12	; 0x0c
     ec4:	35 85       	ldd	r19, Z+13	; 0x0d
		/* 
		 * ==== getState() ====
		 * Devuelve el estado acutal del actuador tras el filtrado.
		 *  - return: [SwState] Estado relativo en el que está el actuador.
		 */
		return currentState;
     ec6:	d9 01       	movw	r26, r18
     ec8:	17 96       	adiw	r26, 0x07	; 7
     eca:	2c 91       	ld	r18, X
     ecc:	22 30       	cpi	r18, 0x02	; 2
     ece:	21 f4       	brne	.+8      	; 0xed8 <_ZN16CalibrationState3runEv+0x54>
     ed0:	02 c0       	rjmp	.+4      	; 0xed6 <_ZN16CalibrationState3runEv+0x52>
     ed2:	90 e0       	ldi	r25, 0x00	; 0
     ed4:	01 c0       	rjmp	.+2      	; 0xed8 <_ZN16CalibrationState3runEv+0x54>
     ed6:	98 2f       	mov	r25, r24
     ed8:	99 23       	and	r25, r25
     eda:	09 f4       	brne	.+2      	; 0xede <_ZN16CalibrationState3runEv+0x5a>
     edc:	5a c0       	rjmp	.+180    	; 0xf92 <_ZN16CalibrationState3runEv+0x10e>
					status->m2->calibrate(M2_GO_RIGHT, status->current_time);				
     ede:	45 a1       	ldd	r20, Z+37	; 0x25
     ee0:	56 a1       	ldd	r21, Z+38	; 0x26
     ee2:	67 a1       	ldd	r22, Z+39	; 0x27
     ee4:	70 a5       	ldd	r23, Z+40	; 0x28
		 *  - direction: [bool] Dirección de giro.
		 *  - currentTime: [uint32_t] Tiempo actual en ms.
		 */
		bool startFromSide = false;
	
		if (eorSwitch != 0) {
     ee6:	ec 85       	ldd	r30, Y+12	; 0x0c
     ee8:	fd 85       	ldd	r31, Y+13	; 0x0d
     eea:	30 97       	sbiw	r30, 0x00	; 0
     eec:	d9 f0       	breq	.+54     	; 0xf24 <_ZN16CalibrationState3runEv+0xa0>
     eee:	87 81       	ldd	r24, Z+7	; 0x07
			SwitchMotor2::SwState state = eorSwitch->getState();
			
			// No moverse si ya está en posición de destino (extremos).
			if ((direction && state == SwitchMotor2::SIDE_1) ||
				(!direction && state == SwitchMotor2::SIDE_2)) {
     ef0:	82 30       	cpi	r24, 0x02	; 2
     ef2:	09 f4       	brne	.+2      	; 0xef6 <_ZN16CalibrationState3runEv+0x72>
     ef4:	3f c0       	rjmp	.+126    	; 0xf74 <_ZN16CalibrationState3runEv+0xf0>
				return;
			}
			if (state != SwitchMotor2::MOVING) {
     ef6:	81 11       	cpse	r24, r1
     ef8:	02 c0       	rjmp	.+4      	; 0xefe <_ZN16CalibrationState3runEv+0x7a>
		 * ==== startMoving(bool direction, uint32_t currentTime) ====
		 * Ordena el arranque del motor en una dirección determinada. Parará en la siguiente posición encontrada.
		 *  - direction: [bool] Dirección de giro.
		 *  - currentTime: [uint32_t] Tiempo actual en ms.
		 */
		bool startFromSide = false;
     efa:	30 e0       	ldi	r19, 0x00	; 0
     efc:	01 c0       	rjmp	.+2      	; 0xf00 <_ZN16CalibrationState3runEv+0x7c>
			if ((direction && state == SwitchMotor2::SIDE_1) ||
				(!direction && state == SwitchMotor2::SIDE_2)) {
				return;
			}
			if (state != SwitchMotor2::MOVING) {
				startFromSide = true;
     efe:	31 e0       	ldi	r19, 0x01	; 1
		/* 
		 * ==== setExpectedDirection(bool direction) ====
		 * Establece la dirección y prepara el próximo estado lógico a alcanzar.
		 *  - direction: [bool] true si la dirección es hacia SIDE_1, false en caso contrario.
		 */
		expectedDirection = direction;
     f00:	12 86       	std	Z+10, r1	; 0x0a
		flagPressed = false;
     f02:	11 86       	std	Z+9, r1	; 0x09
		if (direction) { // hacia SIDE_1
			if (currentState == SIDE_2) nextExpectedState = SIDE_MIDDLE;
			else if (currentState == SIDE_MIDDLE) nextExpectedState = SIDE_1;
			else nextExpectedState = SIDE_1;
		} else {
			if (currentState == SIDE_1) nextExpectedState = SIDE_MIDDLE;
     f04:	87 81       	ldd	r24, Z+7	; 0x07
     f06:	81 30       	cpi	r24, 0x01	; 1
     f08:	19 f4       	brne	.+6      	; 0xf10 <_ZN16CalibrationState3runEv+0x8c>
     f0a:	83 e0       	ldi	r24, 0x03	; 3
     f0c:	80 87       	std	Z+8, r24	; 0x08
     f0e:	08 c0       	rjmp	.+16     	; 0xf20 <_ZN16CalibrationState3runEv+0x9c>
			else if (currentState == SIDE_MIDDLE) nextExpectedState = SIDE_2;
     f10:	87 81       	ldd	r24, Z+7	; 0x07
     f12:	83 30       	cpi	r24, 0x03	; 3
     f14:	19 f4       	brne	.+6      	; 0xf1c <_ZN16CalibrationState3runEv+0x98>
     f16:	82 e0       	ldi	r24, 0x02	; 2
     f18:	80 87       	std	Z+8, r24	; 0x08
     f1a:	02 c0       	rjmp	.+4      	; 0xf20 <_ZN16CalibrationState3runEv+0x9c>
			else nextExpectedState = SIDE_2;
     f1c:	82 e0       	ldi	r24, 0x02	; 2
     f1e:	80 87       	std	Z+8, r24	; 0x08
		}
		
		currentState = MOVING;
     f20:	17 82       	std	Z+7, r1	; 0x07
     f22:	01 c0       	rjmp	.+2      	; 0xf26 <_ZN16CalibrationState3runEv+0xa2>
		 * ==== startMoving(bool direction, uint32_t currentTime) ====
		 * Ordena el arranque del motor en una dirección determinada. Parará en la siguiente posición encontrada.
		 *  - direction: [bool] Dirección de giro.
		 *  - currentTime: [uint32_t] Tiempo actual en ms.
		 */
		bool startFromSide = false;
     f24:	30 e0       	ldi	r19, 0x00	; 0
		 * ==== setDirection(bool forward) ====
		 * Establece la dirección de giro del motor.
		 *  - forward: [bool] Dirección de giro.
		 */
		if (forward)	*portDIR |= maskDIR;
		else			*portDIR &= ~maskDIR;
     f26:	e8 81       	ld	r30, Y
     f28:	f9 81       	ldd	r31, Y+1	; 0x01
     f2a:	20 81       	ld	r18, Z
     f2c:	8c 81       	ldd	r24, Y+4	; 0x04
     f2e:	80 95       	com	r24
     f30:	82 23       	and	r24, r18
     f32:	80 83       	st	Z, r24
		/* 
		 * ==== setSpeed(bool speed) ====
		 * Establece la velociad de rotación del motor.
		 *  - speed: [uint8_t] Velocidad (PWM) de rotación.
		 */
		*ocrPWM = speed;
     f34:	ea 85       	ldd	r30, Y+10	; 0x0a
     f36:	fb 85       	ldd	r31, Y+11	; 0x0b
     f38:	8c ec       	ldi	r24, 0xCC	; 204
     f3a:	80 83       	st	Z, r24
			eorSwitch->setExpectedDirection(direction);
		}
		
		setDirection(direction);
		setSpeed(204); // 80% PWM
		isMoving = true;
     f3c:	81 e0       	ldi	r24, 0x01	; 1
     f3e:	8e 87       	std	Y+14, r24	; 0x0e
		
		// Si arranca en CUALQUIER sensor, activar escape temporal.
		if (startFromSide || (eorSwitch != 0 && eorSwitch->isPressed())) {	
     f40:	31 11       	cpse	r19, r1
     f42:	0e c0       	rjmp	.+28     	; 0xf60 <_ZN16CalibrationState3runEv+0xdc>
     f44:	ec 85       	ldd	r30, Y+12	; 0x0c
     f46:	fd 85       	ldd	r31, Y+13	; 0x0d
     f48:	30 97       	sbiw	r30, 0x00	; 0
     f4a:	49 f0       	breq	.+18     	; 0xf5e <_ZN16CalibrationState3runEv+0xda>
		/* 
		 * ==== isPressed() ====
		 * Devuelve el estado acutal de la seńal del switch.
		 *  - return: [bool] true si el switch está presionado. flase en caso contrario.
		 */
		return !(*pinReg & mask);	// Lógica invertida (Pull-up)
     f4c:	20 81       	ld	r18, Z
     f4e:	31 81       	ldd	r19, Z+1	; 0x01
     f50:	d9 01       	movw	r26, r18
     f52:	2c 91       	ld	r18, X
     f54:	86 81       	ldd	r24, Z+6	; 0x06
     f56:	82 23       	and	r24, r18
     f58:	19 f0       	breq	.+6      	; 0xf60 <_ZN16CalibrationState3runEv+0xdc>
     f5a:	90 e0       	ldi	r25, 0x00	; 0
     f5c:	01 c0       	rjmp	.+2      	; 0xf60 <_ZN16CalibrationState3runEv+0xdc>
     f5e:	90 e0       	ldi	r25, 0x00	; 0
     f60:	99 23       	and	r25, r25
     f62:	39 f0       	breq	.+14     	; 0xf72 <_ZN16CalibrationState3runEv+0xee>
			isEscaping = true;
     f64:	81 e0       	ldi	r24, 0x01	; 1
     f66:	8f 87       	std	Y+15, r24	; 0x0f
			escapeStartTimestamp = currentTime;
     f68:	48 8b       	std	Y+16, r20	; 0x10
     f6a:	59 8b       	std	Y+17, r21	; 0x11
     f6c:	6a 8b       	std	Y+18, r22	; 0x12
     f6e:	7b 8b       	std	Y+19, r23	; 0x13
     f70:	01 c0       	rjmp	.+2      	; 0xf74 <_ZN16CalibrationState3runEv+0xf0>
		} else {
			isEscaping = false;
     f72:	1f 86       	std	Y+15, r1	; 0x0f
		 *  - currentTime: [uint32_t] Tiempo actual en ms.
		 */
		
		startMoving(direction, currentTime);
		
		if(isMoving) {
     f74:	8e 85       	ldd	r24, Y+14	; 0x0e
     f76:	88 23       	and	r24, r24
     f78:	21 f0       	breq	.+8      	; 0xf82 <_ZN16CalibrationState3runEv+0xfe>
		/* 
		 * ==== setSpeed(bool speed) ====
		 * Establece la velociad de rotación del motor.
		 *  - speed: [uint8_t] Velocidad (PWM) de rotación.
		 */
		*ocrPWM = speed;
     f7a:	ea 85       	ldd	r30, Y+10	; 0x0a
     f7c:	fb 85       	ldd	r31, Y+11	; 0x0b
     f7e:	89 e9       	ldi	r24, 0x99	; 153
     f80:	80 83       	st	Z, r24
		
		if(isMoving) {
			setSpeed(153); // 60% PWM
		}
		
		isCalibrating = true;
     f82:	81 e0       	ldi	r24, 0x01	; 1
     f84:	88 8f       	std	Y+24, r24	; 0x18
		isWaitingAfterCalib = false;
     f86:	19 8e       	std	Y+25, r1	; 0x19
		calibDirection = direction;
     f88:	1e 8e       	std	Y+30, r1	; 0x1e
		stateTimer = currentTime;		
     f8a:	4a 8f       	std	Y+26, r20	; 0x1a
     f8c:	5b 8f       	std	Y+27, r21	; 0x1b
     f8e:	6c 8f       	std	Y+28, r22	; 0x1c
     f90:	7d 8f       	std	Y+29, r23	; 0x1d
				}
			}
			
			if (!status->m4->getIsMoving() && status->sw4->getState()==M4_IS_OPEN) {
     f92:	f8 01       	movw	r30, r16
     f94:	a2 81       	ldd	r26, Z+2	; 0x02
     f96:	b3 81       	ldd	r27, Z+3	; 0x03
     f98:	16 96       	adiw	r26, 0x06	; 6
     f9a:	ed 91       	ld	r30, X+
     f9c:	fc 91       	ld	r31, X
     f9e:	17 97       	sbiw	r26, 0x07	; 7
     fa0:	86 85       	ldd	r24, Z+14	; 0x0e
     fa2:	81 11       	cpse	r24, r1
     fa4:	09 c0       	rjmp	.+18     	; 0xfb8 <_ZN16CalibrationState3runEv+0x134>
     fa6:	50 96       	adiw	r26, 0x10	; 16
     fa8:	ed 91       	ld	r30, X+
     faa:	fc 91       	ld	r31, X
     fac:	51 97       	sbiw	r26, 0x11	; 17
     fae:	97 81       	ldd	r25, Z+7	; 0x07
     fb0:	91 30       	cpi	r25, 0x01	; 1
     fb2:	19 f4       	brne	.+6      	; 0xfba <_ZN16CalibrationState3runEv+0x136>
     fb4:	81 e0       	ldi	r24, 0x01	; 1
     fb6:	01 c0       	rjmp	.+2      	; 0xfba <_ZN16CalibrationState3runEv+0x136>
     fb8:	80 e0       	ldi	r24, 0x00	; 0
     fba:	88 23       	and	r24, r24
     fbc:	09 f4       	brne	.+2      	; 0xfc0 <_ZN16CalibrationState3runEv+0x13c>
     fbe:	6e c0       	rjmp	.+220    	; 0x109c <__EEPROM_REGION_LENGTH__+0x9c>
				if (!status->m3->getIsMoving() && status->sw3->getState() != M3_IS_FORWARD) {
     fc0:	14 96       	adiw	r26, 0x04	; 4
     fc2:	ed 91       	ld	r30, X+
     fc4:	fc 91       	ld	r31, X
     fc6:	15 97       	sbiw	r26, 0x05	; 5
     fc8:	96 85       	ldd	r25, Z+14	; 0x0e
     fca:	91 11       	cpse	r25, r1
     fcc:	08 c0       	rjmp	.+16     	; 0xfde <_ZN16CalibrationState3runEv+0x15a>
     fce:	1e 96       	adiw	r26, 0x0e	; 14
     fd0:	cd 91       	ld	r28, X+
     fd2:	dc 91       	ld	r29, X
     fd4:	1f 97       	sbiw	r26, 0x0f	; 15
     fd6:	2f 81       	ldd	r18, Y+7	; 0x07
     fd8:	21 30       	cpi	r18, 0x01	; 1
     fda:	21 f4       	brne	.+8      	; 0xfe4 <_ZN16CalibrationState3runEv+0x160>
     fdc:	02 c0       	rjmp	.+4      	; 0xfe2 <_ZN16CalibrationState3runEv+0x15e>
     fde:	80 e0       	ldi	r24, 0x00	; 0
     fe0:	01 c0       	rjmp	.+2      	; 0xfe4 <_ZN16CalibrationState3runEv+0x160>
     fe2:	89 2f       	mov	r24, r25
     fe4:	88 23       	and	r24, r24
     fe6:	09 f4       	brne	.+2      	; 0xfea <_ZN16CalibrationState3runEv+0x166>
     fe8:	59 c0       	rjmp	.+178    	; 0x109c <__EEPROM_REGION_LENGTH__+0x9c>
					status->m3->calibrate(M3_GO_FORWARD, status->current_time);
     fea:	95 96       	adiw	r26, 0x25	; 37
     fec:	4d 91       	ld	r20, X+
     fee:	5d 91       	ld	r21, X+
     ff0:	6d 91       	ld	r22, X+
     ff2:	7c 91       	ld	r23, X
     ff4:	98 97       	sbiw	r26, 0x28	; 40
		 *  - direction: [bool] Dirección de giro.
		 *  - currentTime: [uint32_t] Tiempo actual en ms.
		 */
		bool startFromSide = false;
	
		if (eorSwitch != 0) {
     ff6:	a4 85       	ldd	r26, Z+12	; 0x0c
     ff8:	b5 85       	ldd	r27, Z+13	; 0x0d
     ffa:	10 97       	sbiw	r26, 0x00	; 0
     ffc:	c1 f0       	breq	.+48     	; 0x102e <__EEPROM_REGION_LENGTH__+0x2e>
     ffe:	17 96       	adiw	r26, 0x07	; 7
    1000:	9c 91       	ld	r25, X
    1002:	17 97       	sbiw	r26, 0x07	; 7
			SwitchMotor::SwState state = eorSwitch->getState();
			
			// No moverse si ya está en posición de destino.
			if ((direction && state == SwitchMotor::SIDE_1) ||
    1004:	91 30       	cpi	r25, 0x01	; 1
    1006:	d9 f1       	breq	.+118    	; 0x107e <__EEPROM_REGION_LENGTH__+0x7e>
				(!direction && state == SwitchMotor::SIDE_2)) {
				return;
			}
			if (state != SwitchMotor::MOVING) {
    1008:	91 11       	cpse	r25, r1
    100a:	02 c0       	rjmp	.+4      	; 0x1010 <__EEPROM_REGION_LENGTH__+0x10>
		 * ==== startMoving(bool direction, uint32_t currentTime) ====
		 * Ordena el arranque del motor en una dirección determinada.
		 *  - direction: [bool] Dirección de giro.
		 *  - currentTime: [uint32_t] Tiempo actual en ms.
		 */
		bool startFromSide = false;
    100c:	20 e0       	ldi	r18, 0x00	; 0
    100e:	01 c0       	rjmp	.+2      	; 0x1012 <__EEPROM_REGION_LENGTH__+0x12>
			if ((direction && state == SwitchMotor::SIDE_1) ||
				(!direction && state == SwitchMotor::SIDE_2)) {
				return;
			}
			if (state != SwitchMotor::MOVING) {
				startFromSide = true;
    1010:	21 e0       	ldi	r18, 0x01	; 1
		/* 
		 * ==== forceState(SwState s) ====
		 * Establece el estado del actuador. Debe ser usado tras la calibración.
		 *  - s: [SwState] Estado actual del actuador.
		 */
		currentState = s;
    1012:	17 96       	adiw	r26, 0x07	; 7
    1014:	1c 92       	st	X, r1
    1016:	17 97       	sbiw	r26, 0x07	; 7
		flagPressed = false;
    1018:	18 96       	adiw	r26, 0x08	; 8
    101a:	1c 92       	st	X, r1
			}
			
			// Prepara el switch para escuchar la colisión.
			eorSwitch->forceState(SwitchMotor::MOVING);
			eorSwitch->setExpectedDirection(direction);
    101c:	a4 85       	ldd	r26, Z+12	; 0x0c
    101e:	b5 85       	ldd	r27, Z+13	; 0x0d
		/* 
		 * ==== setExpectedDirection(bool direction) ====
		 * Establece la dirección a la que se mueve el motor.
		 *  - direction: [bool] true si la dirección es hacia SIDE_1, false en caso contrario.
		 */
		expectedDirection = direction;
    1020:	91 e0       	ldi	r25, 0x01	; 1
    1022:	19 96       	adiw	r26, 0x09	; 9
    1024:	9c 93       	st	X, r25
    1026:	19 97       	sbiw	r26, 0x09	; 9
		flagPressed = false;
    1028:	18 96       	adiw	r26, 0x08	; 8
    102a:	1c 92       	st	X, r1
    102c:	01 c0       	rjmp	.+2      	; 0x1030 <__EEPROM_REGION_LENGTH__+0x30>
		 * ==== startMoving(bool direction, uint32_t currentTime) ====
		 * Ordena el arranque del motor en una dirección determinada.
		 *  - direction: [bool] Dirección de giro.
		 *  - currentTime: [uint32_t] Tiempo actual en ms.
		 */
		bool startFromSide = false;
    102e:	20 e0       	ldi	r18, 0x00	; 0
		/* 
		 * ==== setDirection(bool forward) ====
		 * Establece la dirección de giro del motor.
		 *  - forward: [bool] Dirección de giro.
		 */
		if (forward)	*portDIR |= maskDIR;
    1030:	a0 81       	ld	r26, Z
    1032:	b1 81       	ldd	r27, Z+1	; 0x01
    1034:	3c 91       	ld	r19, X
    1036:	94 81       	ldd	r25, Z+4	; 0x04
    1038:	93 2b       	or	r25, r19
    103a:	9c 93       	st	X, r25
		/* 
		 * ==== setSpeed(bool speed) ====
		 * Establece la velociad de rotación del motor.
		 *  - speed: [uint8_t] Velocidad (PWM) de rotación.
		 */
		*ocrPWM = speed;
    103c:	a2 85       	ldd	r26, Z+10	; 0x0a
    103e:	b3 85       	ldd	r27, Z+11	; 0x0b
    1040:	9c ec       	ldi	r25, 0xCC	; 204
    1042:	9c 93       	st	X, r25
			eorSwitch->setExpectedDirection(direction);
		}
		
		setDirection(direction);
		setSpeed(204); // 80% PWM
		isMoving = true;
    1044:	91 e0       	ldi	r25, 0x01	; 1
    1046:	96 87       	std	Z+14, r25	; 0x0e
		
		// Si arranca en sensor, activar escape.
		if (startFromSide || (eorSwitch != 0 && eorSwitch->isPressed())) {	
    1048:	21 11       	cpse	r18, r1
    104a:	0f c0       	rjmp	.+30     	; 0x106a <__EEPROM_REGION_LENGTH__+0x6a>
    104c:	a4 85       	ldd	r26, Z+12	; 0x0c
    104e:	b5 85       	ldd	r27, Z+13	; 0x0d
    1050:	10 97       	sbiw	r26, 0x00	; 0
    1052:	51 f0       	breq	.+20     	; 0x1068 <__EEPROM_REGION_LENGTH__+0x68>
		/* 
		 * ==== isPressed() ====
		 * Devuelve el estado acutal de la seńal del switch.
		 *  - return: [bool] true si el switch está presionado. flase en caso contrario.
		 */
		return !(*pinReg & mask);	// Lógica invertida (Pull-up)
    1054:	cd 91       	ld	r28, X+
    1056:	dc 91       	ld	r29, X
    1058:	11 97       	sbiw	r26, 0x01	; 1
    105a:	28 81       	ld	r18, Y
    105c:	16 96       	adiw	r26, 0x06	; 6
    105e:	9c 91       	ld	r25, X
    1060:	92 23       	and	r25, r18
    1062:	19 f0       	breq	.+6      	; 0x106a <__EEPROM_REGION_LENGTH__+0x6a>
    1064:	80 e0       	ldi	r24, 0x00	; 0
    1066:	01 c0       	rjmp	.+2      	; 0x106a <__EEPROM_REGION_LENGTH__+0x6a>
    1068:	80 e0       	ldi	r24, 0x00	; 0
    106a:	88 23       	and	r24, r24
    106c:	39 f0       	breq	.+14     	; 0x107c <__EEPROM_REGION_LENGTH__+0x7c>
			isEscaping = true;
    106e:	81 e0       	ldi	r24, 0x01	; 1
    1070:	87 87       	std	Z+15, r24	; 0x0f
			escapeStartTimestamp = currentTime;
    1072:	40 8b       	std	Z+16, r20	; 0x10
    1074:	51 8b       	std	Z+17, r21	; 0x11
    1076:	62 8b       	std	Z+18, r22	; 0x12
    1078:	73 8b       	std	Z+19, r23	; 0x13
    107a:	01 c0       	rjmp	.+2      	; 0x107e <__EEPROM_REGION_LENGTH__+0x7e>
		} else {
			isEscaping = false;
    107c:	17 86       	std	Z+15, r1	; 0x0f
		 *  - currentTime: [uint32_t] Tiempo actual en ms.
		 */
		
		startMoving(direction, currentTime);
		
		if(isMoving) {
    107e:	86 85       	ldd	r24, Z+14	; 0x0e
    1080:	88 23       	and	r24, r24
    1082:	21 f0       	breq	.+8      	; 0x108c <__EEPROM_REGION_LENGTH__+0x8c>
		/* 
		 * ==== setSpeed(bool speed) ====
		 * Establece la velociad de rotación del motor.
		 *  - speed: [uint8_t] Velocidad (PWM) de rotación.
		 */
		*ocrPWM = speed;
    1084:	a2 85       	ldd	r26, Z+10	; 0x0a
    1086:	b3 85       	ldd	r27, Z+11	; 0x0b
    1088:	89 e9       	ldi	r24, 0x99	; 153
    108a:	8c 93       	st	X, r24
		
		if(isMoving) {
			setSpeed(153); // 60% PWM
		}
		
		isCalibrating = true;
    108c:	81 e0       	ldi	r24, 0x01	; 1
    108e:	80 8f       	std	Z+24, r24	; 0x18
		isWaitingAfterCalib = false;
    1090:	11 8e       	std	Z+25, r1	; 0x19
		calibDirection = direction;
    1092:	86 8f       	std	Z+30, r24	; 0x1e
		stateTimer = currentTime;		
    1094:	42 8f       	std	Z+26, r20	; 0x1a
    1096:	53 8f       	std	Z+27, r21	; 0x1b
    1098:	64 8f       	std	Z+28, r22	; 0x1c
    109a:	75 8f       	std	Z+29, r23	; 0x1d
				}
			}
			
		}
    109c:	df 91       	pop	r29
    109e:	cf 91       	pop	r28
    10a0:	1f 91       	pop	r17
    10a2:	0f 91       	pop	r16
    10a4:	08 95       	ret

000010a6 <_ZN11ArmadoState3runEv>:
			is_oscilating = false;
			status->m2->startMoving(M2_GO_LEFT, status->current_time);

		}
		
		void run() override {
    10a6:	cf 92       	push	r12
    10a8:	df 92       	push	r13
    10aa:	ef 92       	push	r14
    10ac:	ff 92       	push	r15
    10ae:	cf 93       	push	r28
    10b0:	df 93       	push	r29
			if (!status->m2->getIsMoving()) {
    10b2:	ec 01       	movw	r28, r24
    10b4:	aa 81       	ldd	r26, Y+2	; 0x02
    10b6:	bb 81       	ldd	r27, Y+3	; 0x03
    10b8:	12 96       	adiw	r26, 0x02	; 2
    10ba:	ed 91       	ld	r30, X+
    10bc:	fc 91       	ld	r31, X
    10be:	13 97       	sbiw	r26, 0x03	; 3
	bool getIsMoving() {
		/*
		 * ==== getIsMoving() ====
		 * Devuelve si el motor se está moviendo.
		 */
		return isMoving;
    10c0:	26 85       	ldd	r18, Z+14	; 0x0e
    10c2:	21 11       	cpse	r18, r1
    10c4:	9e c1       	rjmp	.+828    	; 0x1402 <_ZN11ArmadoState3runEv+0x35c>
				if(!is_oscilating) {
    10c6:	3c 81       	ldd	r19, Y+4	; 0x04
    10c8:	31 11       	cpse	r19, r1
    10ca:	d0 c0       	rjmp	.+416    	; 0x126c <_ZN11ArmadoState3runEv+0x1c6>
					if(status->sw2->getState() == M2_IS_LEFT) {
    10cc:	1c 96       	adiw	r26, 0x0c	; 12
    10ce:	cd 91       	ld	r28, X+
    10d0:	dc 91       	ld	r29, X
    10d2:	1d 97       	sbiw	r26, 0x0d	; 13
		/* 
		 * ==== getState() ====
		 * Devuelve el estado acutal del actuador tras el filtrado.
		 *  - return: [SwState] Estado relativo en el que está el actuador.
		 */
		return currentState;
    10d4:	2f 81       	ldd	r18, Y+7	; 0x07
    10d6:	21 30       	cpi	r18, 0x01	; 1
    10d8:	09 f0       	breq	.+2      	; 0x10dc <_ZN11ArmadoState3runEv+0x36>
    10da:	67 c0       	rjmp	.+206    	; 0x11aa <_ZN11ArmadoState3runEv+0x104>
						is_oscilating = true;
    10dc:	fc 01       	movw	r30, r24
    10de:	24 83       	std	Z+4, r18	; 0x04
						status->m2->startMoving(M2_GO_RIGHT, status->current_time);
    10e0:	95 96       	adiw	r26, 0x25	; 37
    10e2:	4d 91       	ld	r20, X+
    10e4:	5d 91       	ld	r21, X+
    10e6:	6d 91       	ld	r22, X+
    10e8:	7c 91       	ld	r23, X
    10ea:	98 97       	sbiw	r26, 0x28	; 40
    10ec:	12 96       	adiw	r26, 0x02	; 2
    10ee:	ed 91       	ld	r30, X+
    10f0:	fc 91       	ld	r31, X
    10f2:	13 97       	sbiw	r26, 0x03	; 3
		 *  - direction: [bool] Dirección de giro.
		 *  - currentTime: [uint32_t] Tiempo actual en ms.
		 */
		bool startFromSide = false;
	
		if (eorSwitch != 0) {
    10f4:	a4 85       	ldd	r26, Z+12	; 0x0c
    10f6:	b5 85       	ldd	r27, Z+13	; 0x0d
    10f8:	10 97       	sbiw	r26, 0x00	; 0
    10fa:	61 f1       	breq	.+88     	; 0x1154 <_ZN11ArmadoState3runEv+0xae>
    10fc:	17 96       	adiw	r26, 0x07	; 7
    10fe:	8c 91       	ld	r24, X
    1100:	17 97       	sbiw	r26, 0x07	; 7
			SwitchMotor2::SwState state = eorSwitch->getState();
			
			// No moverse si ya está en posición de destino (extremos).
			if ((direction && state == SwitchMotor2::SIDE_1) ||
				(!direction && state == SwitchMotor2::SIDE_2)) {
    1102:	82 30       	cpi	r24, 0x02	; 2
    1104:	09 f4       	brne	.+2      	; 0x1108 <_ZN11ArmadoState3runEv+0x62>
    1106:	7d c1       	rjmp	.+762    	; 0x1402 <_ZN11ArmadoState3runEv+0x35c>
				return;
			}
			if (state != SwitchMotor2::MOVING) {
    1108:	81 11       	cpse	r24, r1
    110a:	02 c0       	rjmp	.+4      	; 0x1110 <_ZN11ArmadoState3runEv+0x6a>
		 * ==== startMoving(bool direction, uint32_t currentTime) ====
		 * Ordena el arranque del motor en una dirección determinada. Parará en la siguiente posición encontrada.
		 *  - direction: [bool] Dirección de giro.
		 *  - currentTime: [uint32_t] Tiempo actual en ms.
		 */
		bool startFromSide = false;
    110c:	20 e0       	ldi	r18, 0x00	; 0
    110e:	01 c0       	rjmp	.+2      	; 0x1112 <_ZN11ArmadoState3runEv+0x6c>
			if ((direction && state == SwitchMotor2::SIDE_1) ||
				(!direction && state == SwitchMotor2::SIDE_2)) {
				return;
			}
			if (state != SwitchMotor2::MOVING) {
				startFromSide = true;
    1110:	21 e0       	ldi	r18, 0x01	; 1
		/* 
		 * ==== setExpectedDirection(bool direction) ====
		 * Establece la dirección y prepara el próximo estado lógico a alcanzar.
		 *  - direction: [bool] true si la dirección es hacia SIDE_1, false en caso contrario.
		 */
		expectedDirection = direction;
    1112:	1a 96       	adiw	r26, 0x0a	; 10
    1114:	1c 92       	st	X, r1
    1116:	1a 97       	sbiw	r26, 0x0a	; 10
		flagPressed = false;
    1118:	19 96       	adiw	r26, 0x09	; 9
    111a:	1c 92       	st	X, r1
    111c:	19 97       	sbiw	r26, 0x09	; 9
		if (direction) { // hacia SIDE_1
			if (currentState == SIDE_2) nextExpectedState = SIDE_MIDDLE;
			else if (currentState == SIDE_MIDDLE) nextExpectedState = SIDE_1;
			else nextExpectedState = SIDE_1;
		} else {
			if (currentState == SIDE_1) nextExpectedState = SIDE_MIDDLE;
    111e:	17 96       	adiw	r26, 0x07	; 7
    1120:	8c 91       	ld	r24, X
    1122:	17 97       	sbiw	r26, 0x07	; 7
    1124:	81 30       	cpi	r24, 0x01	; 1
    1126:	29 f4       	brne	.+10     	; 0x1132 <_ZN11ArmadoState3runEv+0x8c>
    1128:	83 e0       	ldi	r24, 0x03	; 3
    112a:	18 96       	adiw	r26, 0x08	; 8
    112c:	8c 93       	st	X, r24
    112e:	18 97       	sbiw	r26, 0x08	; 8
    1130:	0e c0       	rjmp	.+28     	; 0x114e <_ZN11ArmadoState3runEv+0xa8>
			else if (currentState == SIDE_MIDDLE) nextExpectedState = SIDE_2;
    1132:	17 96       	adiw	r26, 0x07	; 7
    1134:	8c 91       	ld	r24, X
    1136:	17 97       	sbiw	r26, 0x07	; 7
    1138:	83 30       	cpi	r24, 0x03	; 3
    113a:	29 f4       	brne	.+10     	; 0x1146 <_ZN11ArmadoState3runEv+0xa0>
    113c:	82 e0       	ldi	r24, 0x02	; 2
    113e:	18 96       	adiw	r26, 0x08	; 8
    1140:	8c 93       	st	X, r24
    1142:	18 97       	sbiw	r26, 0x08	; 8
    1144:	04 c0       	rjmp	.+8      	; 0x114e <_ZN11ArmadoState3runEv+0xa8>
			else nextExpectedState = SIDE_2;
    1146:	82 e0       	ldi	r24, 0x02	; 2
    1148:	18 96       	adiw	r26, 0x08	; 8
    114a:	8c 93       	st	X, r24
    114c:	18 97       	sbiw	r26, 0x08	; 8
		}
		
		currentState = MOVING;
    114e:	17 96       	adiw	r26, 0x07	; 7
    1150:	1c 92       	st	X, r1
    1152:	01 c0       	rjmp	.+2      	; 0x1156 <_ZN11ArmadoState3runEv+0xb0>
		 * ==== startMoving(bool direction, uint32_t currentTime) ====
		 * Ordena el arranque del motor en una dirección determinada. Parará en la siguiente posición encontrada.
		 *  - direction: [bool] Dirección de giro.
		 *  - currentTime: [uint32_t] Tiempo actual en ms.
		 */
		bool startFromSide = false;
    1154:	20 e0       	ldi	r18, 0x00	; 0
		 * ==== setDirection(bool forward) ====
		 * Establece la dirección de giro del motor.
		 *  - forward: [bool] Dirección de giro.
		 */
		if (forward)	*portDIR |= maskDIR;
		else			*portDIR &= ~maskDIR;
    1156:	a0 81       	ld	r26, Z
    1158:	b1 81       	ldd	r27, Z+1	; 0x01
    115a:	9c 91       	ld	r25, X
    115c:	84 81       	ldd	r24, Z+4	; 0x04
    115e:	80 95       	com	r24
    1160:	89 23       	and	r24, r25
    1162:	8c 93       	st	X, r24
		/* 
		 * ==== setSpeed(bool speed) ====
		 * Establece la velociad de rotación del motor.
		 *  - speed: [uint8_t] Velocidad (PWM) de rotación.
		 */
		*ocrPWM = speed;
    1164:	a2 85       	ldd	r26, Z+10	; 0x0a
    1166:	b3 85       	ldd	r27, Z+11	; 0x0b
    1168:	8c ec       	ldi	r24, 0xCC	; 204
    116a:	8c 93       	st	X, r24
			eorSwitch->setExpectedDirection(direction);
		}
		
		setDirection(direction);
		setSpeed(204); // 80% PWM
		isMoving = true;
    116c:	81 e0       	ldi	r24, 0x01	; 1
    116e:	86 87       	std	Z+14, r24	; 0x0e
		
		// Si arranca en CUALQUIER sensor, activar escape temporal.
		if (startFromSide || (eorSwitch != 0 && eorSwitch->isPressed())) {	
    1170:	21 11       	cpse	r18, r1
    1172:	0d c0       	rjmp	.+26     	; 0x118e <_ZN11ArmadoState3runEv+0xe8>
    1174:	a4 85       	ldd	r26, Z+12	; 0x0c
    1176:	b5 85       	ldd	r27, Z+13	; 0x0d
    1178:	10 97       	sbiw	r26, 0x00	; 0
    117a:	61 f0       	breq	.+24     	; 0x1194 <_ZN11ArmadoState3runEv+0xee>
		/* 
		 * ==== isPressed() ====
		 * Devuelve el estado acutal de la seńal del switch.
		 *  - return: [bool] true si el switch está presionado. flase en caso contrario.
		 */
		return !(*pinReg & mask);	// Lógica invertida (Pull-up)
    117c:	cd 91       	ld	r28, X+
    117e:	dc 91       	ld	r29, X
    1180:	11 97       	sbiw	r26, 0x01	; 1
    1182:	98 81       	ld	r25, Y
    1184:	16 96       	adiw	r26, 0x06	; 6
    1186:	8c 91       	ld	r24, X
    1188:	89 23       	and	r24, r25
    118a:	19 f0       	breq	.+6      	; 0x1192 <_ZN11ArmadoState3runEv+0xec>
    118c:	03 c0       	rjmp	.+6      	; 0x1194 <_ZN11ArmadoState3runEv+0xee>
    118e:	31 e0       	ldi	r19, 0x01	; 1
    1190:	01 c0       	rjmp	.+2      	; 0x1194 <_ZN11ArmadoState3runEv+0xee>
    1192:	31 e0       	ldi	r19, 0x01	; 1
    1194:	33 23       	and	r19, r19
    1196:	39 f0       	breq	.+14     	; 0x11a6 <_ZN11ArmadoState3runEv+0x100>
			isEscaping = true;
    1198:	81 e0       	ldi	r24, 0x01	; 1
    119a:	87 87       	std	Z+15, r24	; 0x0f
			escapeStartTimestamp = currentTime;
    119c:	40 8b       	std	Z+16, r20	; 0x10
    119e:	51 8b       	std	Z+17, r21	; 0x11
    11a0:	62 8b       	std	Z+18, r22	; 0x12
    11a2:	73 8b       	std	Z+19, r23	; 0x13
    11a4:	2e c1       	rjmp	.+604    	; 0x1402 <_ZN11ArmadoState3runEv+0x35c>
		} else {
			isEscaping = false;
    11a6:	17 86       	std	Z+15, r1	; 0x0f
    11a8:	2c c1       	rjmp	.+600    	; 0x1402 <_ZN11ArmadoState3runEv+0x35c>
					} else {
						status->m2->startMoving(M2_GO_LEFT, status->current_time);
    11aa:	95 96       	adiw	r26, 0x25	; 37
    11ac:	4d 91       	ld	r20, X+
    11ae:	5d 91       	ld	r21, X+
    11b0:	6d 91       	ld	r22, X+
    11b2:	7c 91       	ld	r23, X
    11b4:	98 97       	sbiw	r26, 0x28	; 40
		 *  - direction: [bool] Dirección de giro.
		 *  - currentTime: [uint32_t] Tiempo actual en ms.
		 */
		bool startFromSide = false;
	
		if (eorSwitch != 0) {
    11b6:	a4 85       	ldd	r26, Z+12	; 0x0c
    11b8:	b5 85       	ldd	r27, Z+13	; 0x0d
    11ba:	10 97       	sbiw	r26, 0x00	; 0
    11bc:	69 f1       	breq	.+90     	; 0x1218 <_ZN11ArmadoState3runEv+0x172>
		/* 
		 * ==== getState() ====
		 * Devuelve el estado acutal del actuador tras el filtrado.
		 *  - return: [SwState] Estado relativo en el que está el actuador.
		 */
		return currentState;
    11be:	17 96       	adiw	r26, 0x07	; 7
    11c0:	8c 91       	ld	r24, X
    11c2:	17 97       	sbiw	r26, 0x07	; 7
			SwitchMotor2::SwState state = eorSwitch->getState();
			
			// No moverse si ya está en posición de destino (extremos).
			if ((direction && state == SwitchMotor2::SIDE_1) ||
    11c4:	81 30       	cpi	r24, 0x01	; 1
    11c6:	09 f4       	brne	.+2      	; 0x11ca <_ZN11ArmadoState3runEv+0x124>
    11c8:	1c c1       	rjmp	.+568    	; 0x1402 <_ZN11ArmadoState3runEv+0x35c>
				(!direction && state == SwitchMotor2::SIDE_2)) {
				return;
			}
			if (state != SwitchMotor2::MOVING) {
    11ca:	81 11       	cpse	r24, r1
    11cc:	02 c0       	rjmp	.+4      	; 0x11d2 <_ZN11ArmadoState3runEv+0x12c>
		 * ==== startMoving(bool direction, uint32_t currentTime) ====
		 * Ordena el arranque del motor en una dirección determinada. Parará en la siguiente posición encontrada.
		 *  - direction: [bool] Dirección de giro.
		 *  - currentTime: [uint32_t] Tiempo actual en ms.
		 */
		bool startFromSide = false;
    11ce:	20 e0       	ldi	r18, 0x00	; 0
    11d0:	01 c0       	rjmp	.+2      	; 0x11d4 <_ZN11ArmadoState3runEv+0x12e>
			if ((direction && state == SwitchMotor2::SIDE_1) ||
				(!direction && state == SwitchMotor2::SIDE_2)) {
				return;
			}
			if (state != SwitchMotor2::MOVING) {
				startFromSide = true;
    11d2:	21 e0       	ldi	r18, 0x01	; 1
		/* 
		 * ==== setExpectedDirection(bool direction) ====
		 * Establece la dirección y prepara el próximo estado lógico a alcanzar.
		 *  - direction: [bool] true si la dirección es hacia SIDE_1, false en caso contrario.
		 */
		expectedDirection = direction;
    11d4:	81 e0       	ldi	r24, 0x01	; 1
    11d6:	1a 96       	adiw	r26, 0x0a	; 10
    11d8:	8c 93       	st	X, r24
    11da:	1a 97       	sbiw	r26, 0x0a	; 10
		flagPressed = false;
    11dc:	19 96       	adiw	r26, 0x09	; 9
    11de:	1c 92       	st	X, r1
    11e0:	19 97       	sbiw	r26, 0x09	; 9
		
		// Lógica de 3 posiciones
		if (direction) { // hacia SIDE_1
			if (currentState == SIDE_2) nextExpectedState = SIDE_MIDDLE;
    11e2:	17 96       	adiw	r26, 0x07	; 7
    11e4:	8c 91       	ld	r24, X
    11e6:	17 97       	sbiw	r26, 0x07	; 7
    11e8:	82 30       	cpi	r24, 0x02	; 2
    11ea:	29 f4       	brne	.+10     	; 0x11f6 <_ZN11ArmadoState3runEv+0x150>
    11ec:	83 e0       	ldi	r24, 0x03	; 3
    11ee:	18 96       	adiw	r26, 0x08	; 8
    11f0:	8c 93       	st	X, r24
    11f2:	18 97       	sbiw	r26, 0x08	; 8
    11f4:	0e c0       	rjmp	.+28     	; 0x1212 <_ZN11ArmadoState3runEv+0x16c>
			else if (currentState == SIDE_MIDDLE) nextExpectedState = SIDE_1;
    11f6:	17 96       	adiw	r26, 0x07	; 7
    11f8:	8c 91       	ld	r24, X
    11fa:	17 97       	sbiw	r26, 0x07	; 7
    11fc:	83 30       	cpi	r24, 0x03	; 3
    11fe:	29 f4       	brne	.+10     	; 0x120a <_ZN11ArmadoState3runEv+0x164>
    1200:	81 e0       	ldi	r24, 0x01	; 1
    1202:	18 96       	adiw	r26, 0x08	; 8
    1204:	8c 93       	st	X, r24
    1206:	18 97       	sbiw	r26, 0x08	; 8
    1208:	04 c0       	rjmp	.+8      	; 0x1212 <_ZN11ArmadoState3runEv+0x16c>
			else nextExpectedState = SIDE_1;
    120a:	81 e0       	ldi	r24, 0x01	; 1
    120c:	18 96       	adiw	r26, 0x08	; 8
    120e:	8c 93       	st	X, r24
    1210:	18 97       	sbiw	r26, 0x08	; 8
			if (currentState == SIDE_1) nextExpectedState = SIDE_MIDDLE;
			else if (currentState == SIDE_MIDDLE) nextExpectedState = SIDE_2;
			else nextExpectedState = SIDE_2;
		}
		
		currentState = MOVING;
    1212:	17 96       	adiw	r26, 0x07	; 7
    1214:	1c 92       	st	X, r1
    1216:	01 c0       	rjmp	.+2      	; 0x121a <_ZN11ArmadoState3runEv+0x174>
		 * ==== startMoving(bool direction, uint32_t currentTime) ====
		 * Ordena el arranque del motor en una dirección determinada. Parará en la siguiente posición encontrada.
		 *  - direction: [bool] Dirección de giro.
		 *  - currentTime: [uint32_t] Tiempo actual en ms.
		 */
		bool startFromSide = false;
    1218:	20 e0       	ldi	r18, 0x00	; 0
		/* 
		 * ==== setDirection(bool forward) ====
		 * Establece la dirección de giro del motor.
		 *  - forward: [bool] Dirección de giro.
		 */
		if (forward)	*portDIR |= maskDIR;
    121a:	a0 81       	ld	r26, Z
    121c:	b1 81       	ldd	r27, Z+1	; 0x01
    121e:	9c 91       	ld	r25, X
    1220:	84 81       	ldd	r24, Z+4	; 0x04
    1222:	89 2b       	or	r24, r25
    1224:	8c 93       	st	X, r24
		/* 
		 * ==== setSpeed(bool speed) ====
		 * Establece la velociad de rotación del motor.
		 *  - speed: [uint8_t] Velocidad (PWM) de rotación.
		 */
		*ocrPWM = speed;
    1226:	a2 85       	ldd	r26, Z+10	; 0x0a
    1228:	b3 85       	ldd	r27, Z+11	; 0x0b
    122a:	8c ec       	ldi	r24, 0xCC	; 204
    122c:	8c 93       	st	X, r24
			eorSwitch->setExpectedDirection(direction);
		}
		
		setDirection(direction);
		setSpeed(204); // 80% PWM
		isMoving = true;
    122e:	81 e0       	ldi	r24, 0x01	; 1
    1230:	86 87       	std	Z+14, r24	; 0x0e
		
		// Si arranca en CUALQUIER sensor, activar escape temporal.
		if (startFromSide || (eorSwitch != 0 && eorSwitch->isPressed())) {	
    1232:	21 11       	cpse	r18, r1
    1234:	0d c0       	rjmp	.+26     	; 0x1250 <_ZN11ArmadoState3runEv+0x1aa>
    1236:	a4 85       	ldd	r26, Z+12	; 0x0c
    1238:	b5 85       	ldd	r27, Z+13	; 0x0d
    123a:	10 97       	sbiw	r26, 0x00	; 0
    123c:	61 f0       	breq	.+24     	; 0x1256 <_ZN11ArmadoState3runEv+0x1b0>
		/* 
		 * ==== isPressed() ====
		 * Devuelve el estado acutal de la seńal del switch.
		 *  - return: [bool] true si el switch está presionado. flase en caso contrario.
		 */
		return !(*pinReg & mask);	// Lógica invertida (Pull-up)
    123e:	cd 91       	ld	r28, X+
    1240:	dc 91       	ld	r29, X
    1242:	11 97       	sbiw	r26, 0x01	; 1
    1244:	98 81       	ld	r25, Y
    1246:	16 96       	adiw	r26, 0x06	; 6
    1248:	8c 91       	ld	r24, X
    124a:	89 23       	and	r24, r25
    124c:	19 f0       	breq	.+6      	; 0x1254 <_ZN11ArmadoState3runEv+0x1ae>
    124e:	03 c0       	rjmp	.+6      	; 0x1256 <_ZN11ArmadoState3runEv+0x1b0>
    1250:	31 e0       	ldi	r19, 0x01	; 1
    1252:	01 c0       	rjmp	.+2      	; 0x1256 <_ZN11ArmadoState3runEv+0x1b0>
    1254:	31 e0       	ldi	r19, 0x01	; 1
    1256:	33 23       	and	r19, r19
    1258:	39 f0       	breq	.+14     	; 0x1268 <_ZN11ArmadoState3runEv+0x1c2>
			isEscaping = true;
    125a:	81 e0       	ldi	r24, 0x01	; 1
    125c:	87 87       	std	Z+15, r24	; 0x0f
			escapeStartTimestamp = currentTime;
    125e:	40 8b       	std	Z+16, r20	; 0x10
    1260:	51 8b       	std	Z+17, r21	; 0x11
    1262:	62 8b       	std	Z+18, r22	; 0x12
    1264:	73 8b       	std	Z+19, r23	; 0x13
    1266:	cd c0       	rjmp	.+410    	; 0x1402 <_ZN11ArmadoState3runEv+0x35c>
		} else {
			isEscaping = false;
    1268:	17 86       	std	Z+15, r1	; 0x0f
    126a:	cb c0       	rjmp	.+406    	; 0x1402 <_ZN11ArmadoState3runEv+0x35c>
					}
				} else {
					if (status->sw2->getState() == M2_IS_LEFT) {
    126c:	1c 96       	adiw	r26, 0x0c	; 12
    126e:	cd 91       	ld	r28, X+
    1270:	dc 91       	ld	r29, X
    1272:	1d 97       	sbiw	r26, 0x0d	; 13
		/* 
		 * ==== getState() ====
		 * Devuelve el estado acutal del actuador tras el filtrado.
		 *  - return: [SwState] Estado relativo en el que está el actuador.
		 */
		return currentState;
    1274:	8f 81       	ldd	r24, Y+7	; 0x07
    1276:	81 30       	cpi	r24, 0x01	; 1
    1278:	09 f0       	breq	.+2      	; 0x127c <_ZN11ArmadoState3runEv+0x1d6>
    127a:	60 c0       	rjmp	.+192    	; 0x133c <_ZN11ArmadoState3runEv+0x296>
						status->m2->startMoving(M2_GO_RIGHT, status->current_time);
    127c:	95 96       	adiw	r26, 0x25	; 37
    127e:	cd 90       	ld	r12, X+
    1280:	dd 90       	ld	r13, X+
    1282:	ed 90       	ld	r14, X+
    1284:	fc 90       	ld	r15, X
    1286:	98 97       	sbiw	r26, 0x28	; 40
		 *  - direction: [bool] Dirección de giro.
		 *  - currentTime: [uint32_t] Tiempo actual en ms.
		 */
		bool startFromSide = false;
	
		if (eorSwitch != 0) {
    1288:	a4 85       	ldd	r26, Z+12	; 0x0c
    128a:	b5 85       	ldd	r27, Z+13	; 0x0d
    128c:	10 97       	sbiw	r26, 0x00	; 0
    128e:	61 f1       	breq	.+88     	; 0x12e8 <_ZN11ArmadoState3runEv+0x242>
    1290:	17 96       	adiw	r26, 0x07	; 7
    1292:	8c 91       	ld	r24, X
    1294:	17 97       	sbiw	r26, 0x07	; 7
			SwitchMotor2::SwState state = eorSwitch->getState();
			
			// No moverse si ya está en posición de destino (extremos).
			if ((direction && state == SwitchMotor2::SIDE_1) ||
				(!direction && state == SwitchMotor2::SIDE_2)) {
    1296:	82 30       	cpi	r24, 0x02	; 2
    1298:	09 f4       	brne	.+2      	; 0x129c <_ZN11ArmadoState3runEv+0x1f6>
    129a:	b3 c0       	rjmp	.+358    	; 0x1402 <_ZN11ArmadoState3runEv+0x35c>
				return;
			}
			if (state != SwitchMotor2::MOVING) {
    129c:	81 11       	cpse	r24, r1
    129e:	02 c0       	rjmp	.+4      	; 0x12a4 <_ZN11ArmadoState3runEv+0x1fe>
		 * ==== startMoving(bool direction, uint32_t currentTime) ====
		 * Ordena el arranque del motor en una dirección determinada. Parará en la siguiente posición encontrada.
		 *  - direction: [bool] Dirección de giro.
		 *  - currentTime: [uint32_t] Tiempo actual en ms.
		 */
		bool startFromSide = false;
    12a0:	40 e0       	ldi	r20, 0x00	; 0
    12a2:	01 c0       	rjmp	.+2      	; 0x12a6 <_ZN11ArmadoState3runEv+0x200>
			if ((direction && state == SwitchMotor2::SIDE_1) ||
				(!direction && state == SwitchMotor2::SIDE_2)) {
				return;
			}
			if (state != SwitchMotor2::MOVING) {
				startFromSide = true;
    12a4:	41 e0       	ldi	r20, 0x01	; 1
		/* 
		 * ==== setExpectedDirection(bool direction) ====
		 * Establece la dirección y prepara el próximo estado lógico a alcanzar.
		 *  - direction: [bool] true si la dirección es hacia SIDE_1, false en caso contrario.
		 */
		expectedDirection = direction;
    12a6:	1a 96       	adiw	r26, 0x0a	; 10
    12a8:	1c 92       	st	X, r1
    12aa:	1a 97       	sbiw	r26, 0x0a	; 10
		flagPressed = false;
    12ac:	19 96       	adiw	r26, 0x09	; 9
    12ae:	1c 92       	st	X, r1
    12b0:	19 97       	sbiw	r26, 0x09	; 9
		if (direction) { // hacia SIDE_1
			if (currentState == SIDE_2) nextExpectedState = SIDE_MIDDLE;
			else if (currentState == SIDE_MIDDLE) nextExpectedState = SIDE_1;
			else nextExpectedState = SIDE_1;
		} else {
			if (currentState == SIDE_1) nextExpectedState = SIDE_MIDDLE;
    12b2:	17 96       	adiw	r26, 0x07	; 7
    12b4:	8c 91       	ld	r24, X
    12b6:	17 97       	sbiw	r26, 0x07	; 7
    12b8:	81 30       	cpi	r24, 0x01	; 1
    12ba:	29 f4       	brne	.+10     	; 0x12c6 <_ZN11ArmadoState3runEv+0x220>
    12bc:	83 e0       	ldi	r24, 0x03	; 3
    12be:	18 96       	adiw	r26, 0x08	; 8
    12c0:	8c 93       	st	X, r24
    12c2:	18 97       	sbiw	r26, 0x08	; 8
    12c4:	0e c0       	rjmp	.+28     	; 0x12e2 <_ZN11ArmadoState3runEv+0x23c>
			else if (currentState == SIDE_MIDDLE) nextExpectedState = SIDE_2;
    12c6:	17 96       	adiw	r26, 0x07	; 7
    12c8:	8c 91       	ld	r24, X
    12ca:	17 97       	sbiw	r26, 0x07	; 7
    12cc:	83 30       	cpi	r24, 0x03	; 3
    12ce:	29 f4       	brne	.+10     	; 0x12da <_ZN11ArmadoState3runEv+0x234>
    12d0:	82 e0       	ldi	r24, 0x02	; 2
    12d2:	18 96       	adiw	r26, 0x08	; 8
    12d4:	8c 93       	st	X, r24
    12d6:	18 97       	sbiw	r26, 0x08	; 8
    12d8:	04 c0       	rjmp	.+8      	; 0x12e2 <_ZN11ArmadoState3runEv+0x23c>
			else nextExpectedState = SIDE_2;
    12da:	82 e0       	ldi	r24, 0x02	; 2
    12dc:	18 96       	adiw	r26, 0x08	; 8
    12de:	8c 93       	st	X, r24
    12e0:	18 97       	sbiw	r26, 0x08	; 8
		}
		
		currentState = MOVING;
    12e2:	17 96       	adiw	r26, 0x07	; 7
    12e4:	1c 92       	st	X, r1
    12e6:	01 c0       	rjmp	.+2      	; 0x12ea <_ZN11ArmadoState3runEv+0x244>
		 * ==== startMoving(bool direction, uint32_t currentTime) ====
		 * Ordena el arranque del motor en una dirección determinada. Parará en la siguiente posición encontrada.
		 *  - direction: [bool] Dirección de giro.
		 *  - currentTime: [uint32_t] Tiempo actual en ms.
		 */
		bool startFromSide = false;
    12e8:	40 e0       	ldi	r20, 0x00	; 0
		 * ==== setDirection(bool forward) ====
		 * Establece la dirección de giro del motor.
		 *  - forward: [bool] Dirección de giro.
		 */
		if (forward)	*portDIR |= maskDIR;
		else			*portDIR &= ~maskDIR;
    12ea:	a0 81       	ld	r26, Z
    12ec:	b1 81       	ldd	r27, Z+1	; 0x01
    12ee:	9c 91       	ld	r25, X
    12f0:	84 81       	ldd	r24, Z+4	; 0x04
    12f2:	80 95       	com	r24
    12f4:	89 23       	and	r24, r25
    12f6:	8c 93       	st	X, r24
		/* 
		 * ==== setSpeed(bool speed) ====
		 * Establece la velociad de rotación del motor.
		 *  - speed: [uint8_t] Velocidad (PWM) de rotación.
		 */
		*ocrPWM = speed;
    12f8:	a2 85       	ldd	r26, Z+10	; 0x0a
    12fa:	b3 85       	ldd	r27, Z+11	; 0x0b
    12fc:	8c ec       	ldi	r24, 0xCC	; 204
    12fe:	8c 93       	st	X, r24
			eorSwitch->setExpectedDirection(direction);
		}
		
		setDirection(direction);
		setSpeed(204); // 80% PWM
		isMoving = true;
    1300:	81 e0       	ldi	r24, 0x01	; 1
    1302:	86 87       	std	Z+14, r24	; 0x0e
		
		// Si arranca en CUALQUIER sensor, activar escape temporal.
		if (startFromSide || (eorSwitch != 0 && eorSwitch->isPressed())) {	
    1304:	41 11       	cpse	r20, r1
    1306:	0f c0       	rjmp	.+30     	; 0x1326 <_ZN11ArmadoState3runEv+0x280>
    1308:	a4 85       	ldd	r26, Z+12	; 0x0c
    130a:	b5 85       	ldd	r27, Z+13	; 0x0d
    130c:	10 97       	sbiw	r26, 0x00	; 0
    130e:	51 f0       	breq	.+20     	; 0x1324 <_ZN11ArmadoState3runEv+0x27e>
		/* 
		 * ==== isPressed() ====
		 * Devuelve el estado acutal de la seńal del switch.
		 *  - return: [bool] true si el switch está presionado. flase en caso contrario.
		 */
		return !(*pinReg & mask);	// Lógica invertida (Pull-up)
    1310:	cd 91       	ld	r28, X+
    1312:	dc 91       	ld	r29, X
    1314:	11 97       	sbiw	r26, 0x01	; 1
    1316:	98 81       	ld	r25, Y
    1318:	16 96       	adiw	r26, 0x06	; 6
    131a:	8c 91       	ld	r24, X
    131c:	89 23       	and	r24, r25
    131e:	19 f0       	breq	.+6      	; 0x1326 <_ZN11ArmadoState3runEv+0x280>
    1320:	32 2f       	mov	r19, r18
    1322:	01 c0       	rjmp	.+2      	; 0x1326 <_ZN11ArmadoState3runEv+0x280>
    1324:	32 2f       	mov	r19, r18
    1326:	33 23       	and	r19, r19
    1328:	39 f0       	breq	.+14     	; 0x1338 <_ZN11ArmadoState3runEv+0x292>
			isEscaping = true;
    132a:	81 e0       	ldi	r24, 0x01	; 1
    132c:	87 87       	std	Z+15, r24	; 0x0f
			escapeStartTimestamp = currentTime;
    132e:	c0 8a       	std	Z+16, r12	; 0x10
    1330:	d1 8a       	std	Z+17, r13	; 0x11
    1332:	e2 8a       	std	Z+18, r14	; 0x12
    1334:	f3 8a       	std	Z+19, r15	; 0x13
    1336:	65 c0       	rjmp	.+202    	; 0x1402 <_ZN11ArmadoState3runEv+0x35c>
		} else {
			isEscaping = false;
    1338:	17 86       	std	Z+15, r1	; 0x0f
    133a:	63 c0       	rjmp	.+198    	; 0x1402 <_ZN11ArmadoState3runEv+0x35c>
		/* 
		 * ==== getState() ====
		 * Devuelve el estado acutal del actuador tras el filtrado.
		 *  - return: [SwState] Estado relativo en el que está el actuador.
		 */
		return currentState;
    133c:	8f 81       	ldd	r24, Y+7	; 0x07
					}
					else if (status->sw2->getState() == M2_IS_MIDDLE) {
    133e:	83 30       	cpi	r24, 0x03	; 3
    1340:	09 f0       	breq	.+2      	; 0x1344 <_ZN11ArmadoState3runEv+0x29e>
    1342:	5f c0       	rjmp	.+190    	; 0x1402 <_ZN11ArmadoState3runEv+0x35c>
						status->m2->startMoving(M2_GO_LEFT, status->current_time);
    1344:	95 96       	adiw	r26, 0x25	; 37
    1346:	cd 90       	ld	r12, X+
    1348:	dd 90       	ld	r13, X+
    134a:	ed 90       	ld	r14, X+
    134c:	fc 90       	ld	r15, X
    134e:	98 97       	sbiw	r26, 0x28	; 40
		 *  - direction: [bool] Dirección de giro.
		 *  - currentTime: [uint32_t] Tiempo actual en ms.
		 */
		bool startFromSide = false;
	
		if (eorSwitch != 0) {
    1350:	a4 85       	ldd	r26, Z+12	; 0x0c
    1352:	b5 85       	ldd	r27, Z+13	; 0x0d
    1354:	10 97       	sbiw	r26, 0x00	; 0
    1356:	69 f1       	breq	.+90     	; 0x13b2 <_ZN11ArmadoState3runEv+0x30c>
    1358:	17 96       	adiw	r26, 0x07	; 7
    135a:	8c 91       	ld	r24, X
    135c:	17 97       	sbiw	r26, 0x07	; 7
			SwitchMotor2::SwState state = eorSwitch->getState();
			
			// No moverse si ya está en posición de destino (extremos).
			if ((direction && state == SwitchMotor2::SIDE_1) ||
    135e:	81 30       	cpi	r24, 0x01	; 1
    1360:	09 f4       	brne	.+2      	; 0x1364 <_ZN11ArmadoState3runEv+0x2be>
    1362:	4f c0       	rjmp	.+158    	; 0x1402 <_ZN11ArmadoState3runEv+0x35c>
				(!direction && state == SwitchMotor2::SIDE_2)) {
				return;
			}
			if (state != SwitchMotor2::MOVING) {
    1364:	81 11       	cpse	r24, r1
    1366:	02 c0       	rjmp	.+4      	; 0x136c <_ZN11ArmadoState3runEv+0x2c6>
		 * ==== startMoving(bool direction, uint32_t currentTime) ====
		 * Ordena el arranque del motor en una dirección determinada. Parará en la siguiente posición encontrada.
		 *  - direction: [bool] Dirección de giro.
		 *  - currentTime: [uint32_t] Tiempo actual en ms.
		 */
		bool startFromSide = false;
    1368:	40 e0       	ldi	r20, 0x00	; 0
    136a:	01 c0       	rjmp	.+2      	; 0x136e <_ZN11ArmadoState3runEv+0x2c8>
			if ((direction && state == SwitchMotor2::SIDE_1) ||
				(!direction && state == SwitchMotor2::SIDE_2)) {
				return;
			}
			if (state != SwitchMotor2::MOVING) {
				startFromSide = true;
    136c:	41 e0       	ldi	r20, 0x01	; 1
		/* 
		 * ==== setExpectedDirection(bool direction) ====
		 * Establece la dirección y prepara el próximo estado lógico a alcanzar.
		 *  - direction: [bool] true si la dirección es hacia SIDE_1, false en caso contrario.
		 */
		expectedDirection = direction;
    136e:	81 e0       	ldi	r24, 0x01	; 1
    1370:	1a 96       	adiw	r26, 0x0a	; 10
    1372:	8c 93       	st	X, r24
    1374:	1a 97       	sbiw	r26, 0x0a	; 10
		flagPressed = false;
    1376:	19 96       	adiw	r26, 0x09	; 9
    1378:	1c 92       	st	X, r1
    137a:	19 97       	sbiw	r26, 0x09	; 9
		
		// Lógica de 3 posiciones
		if (direction) { // hacia SIDE_1
			if (currentState == SIDE_2) nextExpectedState = SIDE_MIDDLE;
    137c:	17 96       	adiw	r26, 0x07	; 7
    137e:	8c 91       	ld	r24, X
    1380:	17 97       	sbiw	r26, 0x07	; 7
    1382:	82 30       	cpi	r24, 0x02	; 2
    1384:	29 f4       	brne	.+10     	; 0x1390 <_ZN11ArmadoState3runEv+0x2ea>
    1386:	83 e0       	ldi	r24, 0x03	; 3
    1388:	18 96       	adiw	r26, 0x08	; 8
    138a:	8c 93       	st	X, r24
    138c:	18 97       	sbiw	r26, 0x08	; 8
    138e:	0e c0       	rjmp	.+28     	; 0x13ac <_ZN11ArmadoState3runEv+0x306>
			else if (currentState == SIDE_MIDDLE) nextExpectedState = SIDE_1;
    1390:	17 96       	adiw	r26, 0x07	; 7
    1392:	8c 91       	ld	r24, X
    1394:	17 97       	sbiw	r26, 0x07	; 7
    1396:	83 30       	cpi	r24, 0x03	; 3
    1398:	29 f4       	brne	.+10     	; 0x13a4 <_ZN11ArmadoState3runEv+0x2fe>
    139a:	81 e0       	ldi	r24, 0x01	; 1
    139c:	18 96       	adiw	r26, 0x08	; 8
    139e:	8c 93       	st	X, r24
    13a0:	18 97       	sbiw	r26, 0x08	; 8
    13a2:	04 c0       	rjmp	.+8      	; 0x13ac <_ZN11ArmadoState3runEv+0x306>
			else nextExpectedState = SIDE_1;
    13a4:	81 e0       	ldi	r24, 0x01	; 1
    13a6:	18 96       	adiw	r26, 0x08	; 8
    13a8:	8c 93       	st	X, r24
    13aa:	18 97       	sbiw	r26, 0x08	; 8
			if (currentState == SIDE_1) nextExpectedState = SIDE_MIDDLE;
			else if (currentState == SIDE_MIDDLE) nextExpectedState = SIDE_2;
			else nextExpectedState = SIDE_2;
		}
		
		currentState = MOVING;
    13ac:	17 96       	adiw	r26, 0x07	; 7
    13ae:	1c 92       	st	X, r1
    13b0:	01 c0       	rjmp	.+2      	; 0x13b4 <_ZN11ArmadoState3runEv+0x30e>
		 * ==== startMoving(bool direction, uint32_t currentTime) ====
		 * Ordena el arranque del motor en una dirección determinada. Parará en la siguiente posición encontrada.
		 *  - direction: [bool] Dirección de giro.
		 *  - currentTime: [uint32_t] Tiempo actual en ms.
		 */
		bool startFromSide = false;
    13b2:	40 e0       	ldi	r20, 0x00	; 0
		/* 
		 * ==== setDirection(bool forward) ====
		 * Establece la dirección de giro del motor.
		 *  - forward: [bool] Dirección de giro.
		 */
		if (forward)	*portDIR |= maskDIR;
    13b4:	a0 81       	ld	r26, Z
    13b6:	b1 81       	ldd	r27, Z+1	; 0x01
    13b8:	9c 91       	ld	r25, X
    13ba:	84 81       	ldd	r24, Z+4	; 0x04
    13bc:	89 2b       	or	r24, r25
    13be:	8c 93       	st	X, r24
		/* 
		 * ==== setSpeed(bool speed) ====
		 * Establece la velociad de rotación del motor.
		 *  - speed: [uint8_t] Velocidad (PWM) de rotación.
		 */
		*ocrPWM = speed;
    13c0:	a2 85       	ldd	r26, Z+10	; 0x0a
    13c2:	b3 85       	ldd	r27, Z+11	; 0x0b
    13c4:	8c ec       	ldi	r24, 0xCC	; 204
    13c6:	8c 93       	st	X, r24
			eorSwitch->setExpectedDirection(direction);
		}
		
		setDirection(direction);
		setSpeed(204); // 80% PWM
		isMoving = true;
    13c8:	81 e0       	ldi	r24, 0x01	; 1
    13ca:	86 87       	std	Z+14, r24	; 0x0e
		
		// Si arranca en CUALQUIER sensor, activar escape temporal.
		if (startFromSide || (eorSwitch != 0 && eorSwitch->isPressed())) {	
    13cc:	41 11       	cpse	r20, r1
    13ce:	0f c0       	rjmp	.+30     	; 0x13ee <_ZN11ArmadoState3runEv+0x348>
    13d0:	a4 85       	ldd	r26, Z+12	; 0x0c
    13d2:	b5 85       	ldd	r27, Z+13	; 0x0d
    13d4:	10 97       	sbiw	r26, 0x00	; 0
    13d6:	51 f0       	breq	.+20     	; 0x13ec <_ZN11ArmadoState3runEv+0x346>
		/* 
		 * ==== isPressed() ====
		 * Devuelve el estado acutal de la seńal del switch.
		 *  - return: [bool] true si el switch está presionado. flase en caso contrario.
		 */
		return !(*pinReg & mask);	// Lógica invertida (Pull-up)
    13d8:	cd 91       	ld	r28, X+
    13da:	dc 91       	ld	r29, X
    13dc:	11 97       	sbiw	r26, 0x01	; 1
    13de:	98 81       	ld	r25, Y
    13e0:	16 96       	adiw	r26, 0x06	; 6
    13e2:	8c 91       	ld	r24, X
    13e4:	89 23       	and	r24, r25
    13e6:	19 f0       	breq	.+6      	; 0x13ee <_ZN11ArmadoState3runEv+0x348>
    13e8:	32 2f       	mov	r19, r18
    13ea:	01 c0       	rjmp	.+2      	; 0x13ee <_ZN11ArmadoState3runEv+0x348>
    13ec:	32 2f       	mov	r19, r18
    13ee:	33 23       	and	r19, r19
    13f0:	39 f0       	breq	.+14     	; 0x1400 <_ZN11ArmadoState3runEv+0x35a>
			isEscaping = true;
    13f2:	81 e0       	ldi	r24, 0x01	; 1
    13f4:	87 87       	std	Z+15, r24	; 0x0f
			escapeStartTimestamp = currentTime;
    13f6:	c0 8a       	std	Z+16, r12	; 0x10
    13f8:	d1 8a       	std	Z+17, r13	; 0x11
    13fa:	e2 8a       	std	Z+18, r14	; 0x12
    13fc:	f3 8a       	std	Z+19, r15	; 0x13
    13fe:	01 c0       	rjmp	.+2      	; 0x1402 <_ZN11ArmadoState3runEv+0x35c>
		} else {
			isEscaping = false;
    1400:	17 86       	std	Z+15, r1	; 0x0f
					}
				}
			}
		}
    1402:	df 91       	pop	r29
    1404:	cf 91       	pop	r28
    1406:	ff 90       	pop	r15
    1408:	ef 90       	pop	r14
    140a:	df 90       	pop	r13
    140c:	cf 90       	pop	r12
    140e:	08 95       	ret

00001410 <_ZN12RetornoState3runEv>:
		delay_timer = 0;
		
		status->m5->startMoving(M5_GO_UP, status->current_time);
	}

	void run() override {
    1410:	cf 92       	push	r12
    1412:	df 92       	push	r13
    1414:	ef 92       	push	r14
    1416:	ff 92       	push	r15
    1418:	0f 93       	push	r16
    141a:	1f 93       	push	r17
    141c:	cf 93       	push	r28
    141e:	df 93       	push	r29
    1420:	fc 01       	movw	r30, r24
		if (step == 0 && status->sw5->getState() == M5_IS_UP) {
    1422:	84 81       	ldd	r24, Z+4	; 0x04
    1424:	81 11       	cpse	r24, r1
    1426:	0b c0       	rjmp	.+22     	; 0x143e <_ZN12RetornoState3runEv+0x2e>
    1428:	a2 81       	ldd	r26, Z+2	; 0x02
    142a:	b3 81       	ldd	r27, Z+3	; 0x03
    142c:	52 96       	adiw	r26, 0x12	; 18
    142e:	0d 90       	ld	r0, X+
    1430:	bc 91       	ld	r27, X
    1432:	a0 2d       	mov	r26, r0
		/* 
		 * ==== getState() ====
		 * Devuelve el estado acutal del actuador tras el filtrado.
		 *  - return: [SwState] Estado relativo en el que está el actuador.
		 */
		return currentState;
    1434:	17 96       	adiw	r26, 0x07	; 7
    1436:	9c 91       	ld	r25, X
    1438:	91 30       	cpi	r25, 0x01	; 1
    143a:	19 f4       	brne	.+6      	; 0x1442 <_ZN12RetornoState3runEv+0x32>
    143c:	03 c0       	rjmp	.+6      	; 0x1444 <_ZN12RetornoState3runEv+0x34>
    143e:	90 e0       	ldi	r25, 0x00	; 0
    1440:	01 c0       	rjmp	.+2      	; 0x1444 <_ZN12RetornoState3runEv+0x34>
    1442:	90 e0       	ldi	r25, 0x00	; 0
    1444:	99 23       	and	r25, r25
    1446:	79 f0       	breq	.+30     	; 0x1466 <_ZN12RetornoState3runEv+0x56>
			delay_timer = status->current_time;
    1448:	a2 81       	ldd	r26, Z+2	; 0x02
    144a:	b3 81       	ldd	r27, Z+3	; 0x03
    144c:	95 96       	adiw	r26, 0x25	; 37
    144e:	8d 91       	ld	r24, X+
    1450:	9d 91       	ld	r25, X+
    1452:	0d 90       	ld	r0, X+
    1454:	bc 91       	ld	r27, X
    1456:	a0 2d       	mov	r26, r0
    1458:	85 83       	std	Z+5, r24	; 0x05
    145a:	96 83       	std	Z+6, r25	; 0x06
    145c:	a7 83       	std	Z+7, r26	; 0x07
    145e:	b0 87       	std	Z+8, r27	; 0x08
			step = 1;
    1460:	81 e0       	ldi	r24, 0x01	; 1
    1462:	84 83       	std	Z+4, r24	; 0x04
    1464:	ad c0       	rjmp	.+346    	; 0x15c0 <_ZN12RetornoState3runEv+0x1b0>
		}
		else if (step == 1 && (status->current_time - delay_timer >= 1000)) {
    1466:	81 30       	cpi	r24, 0x01	; 1
    1468:	09 f0       	breq	.+2      	; 0x146c <_ZN12RetornoState3runEv+0x5c>
    146a:	73 c0       	rjmp	.+230    	; 0x1552 <_ZN12RetornoState3runEv+0x142>
    146c:	a2 81       	ldd	r26, Z+2	; 0x02
    146e:	b3 81       	ldd	r27, Z+3	; 0x03
    1470:	95 96       	adiw	r26, 0x25	; 37
    1472:	4d 91       	ld	r20, X+
    1474:	5d 91       	ld	r21, X+
    1476:	6d 91       	ld	r22, X+
    1478:	7c 91       	ld	r23, X
    147a:	98 97       	sbiw	r26, 0x28	; 40
    147c:	05 81       	ldd	r16, Z+5	; 0x05
    147e:	16 81       	ldd	r17, Z+6	; 0x06
    1480:	27 81       	ldd	r18, Z+7	; 0x07
    1482:	30 85       	ldd	r19, Z+8	; 0x08
    1484:	6a 01       	movw	r12, r20
    1486:	7b 01       	movw	r14, r22
    1488:	c0 1a       	sub	r12, r16
    148a:	d1 0a       	sbc	r13, r17
    148c:	e2 0a       	sbc	r14, r18
    148e:	f3 0a       	sbc	r15, r19
    1490:	c8 ee       	ldi	r28, 0xE8	; 232
    1492:	cc 16       	cp	r12, r28
    1494:	c3 e0       	ldi	r28, 0x03	; 3
    1496:	dc 06       	cpc	r13, r28
    1498:	e1 04       	cpc	r14, r1
    149a:	f1 04       	cpc	r15, r1
    149c:	08 f4       	brcc	.+2      	; 0x14a0 <_ZN12RetornoState3runEv+0x90>
    149e:	59 c0       	rjmp	.+178    	; 0x1552 <_ZN12RetornoState3runEv+0x142>
			status->m5->startMoving(M5_GO_DOWN, status->current_time);
    14a0:	18 96       	adiw	r26, 0x08	; 8
    14a2:	0d 90       	ld	r0, X+
    14a4:	bc 91       	ld	r27, X
    14a6:	a0 2d       	mov	r26, r0
		 *  - direction: [bool] Dirección de giro.
		 *  - currentTime: [uint32_t] Tiempo actual en ms.
		 */
		bool startFromSide = false;
	
		if (eorSwitch != 0) {
    14a8:	1c 96       	adiw	r26, 0x0c	; 12
    14aa:	cd 91       	ld	r28, X+
    14ac:	dc 91       	ld	r29, X
    14ae:	1d 97       	sbiw	r26, 0x0d	; 13
    14b0:	20 97       	sbiw	r28, 0x00	; 0
    14b2:	91 f0       	breq	.+36     	; 0x14d8 <_ZN12RetornoState3runEv+0xc8>
    14b4:	8f 81       	ldd	r24, Y+7	; 0x07
			SwitchMotor::SwState state = eorSwitch->getState();
			
			// No moverse si ya está en posición de destino.
			if ((direction && state == SwitchMotor::SIDE_1) ||
				(!direction && state == SwitchMotor::SIDE_2)) {
    14b6:	82 30       	cpi	r24, 0x02	; 2
    14b8:	09 f4       	brne	.+2      	; 0x14bc <_ZN12RetornoState3runEv+0xac>
    14ba:	48 c0       	rjmp	.+144    	; 0x154c <_ZN12RetornoState3runEv+0x13c>
				return;
			}
			if (state != SwitchMotor::MOVING) {
    14bc:	81 11       	cpse	r24, r1
    14be:	02 c0       	rjmp	.+4      	; 0x14c4 <_ZN12RetornoState3runEv+0xb4>
		 * ==== startMoving(bool direction, uint32_t currentTime) ====
		 * Ordena el arranque del motor en una dirección determinada.
		 *  - direction: [bool] Dirección de giro.
		 *  - currentTime: [uint32_t] Tiempo actual en ms.
		 */
		bool startFromSide = false;
    14c0:	30 e0       	ldi	r19, 0x00	; 0
    14c2:	01 c0       	rjmp	.+2      	; 0x14c6 <_ZN12RetornoState3runEv+0xb6>
			if ((direction && state == SwitchMotor::SIDE_1) ||
				(!direction && state == SwitchMotor::SIDE_2)) {
				return;
			}
			if (state != SwitchMotor::MOVING) {
				startFromSide = true;
    14c4:	31 e0       	ldi	r19, 0x01	; 1
		/* 
		 * ==== forceState(SwState s) ====
		 * Establece el estado del actuador. Debe ser usado tras la calibración.
		 *  - s: [SwState] Estado actual del actuador.
		 */
		currentState = s;
    14c6:	1f 82       	std	Y+7, r1	; 0x07
		flagPressed = false;
    14c8:	18 86       	std	Y+8, r1	; 0x08
			}
			
			// Prepara el switch para escuchar la colisión.
			eorSwitch->forceState(SwitchMotor::MOVING);
			eorSwitch->setExpectedDirection(direction);
    14ca:	1c 96       	adiw	r26, 0x0c	; 12
    14cc:	cd 91       	ld	r28, X+
    14ce:	dc 91       	ld	r29, X
    14d0:	1d 97       	sbiw	r26, 0x0d	; 13
		/* 
		 * ==== setExpectedDirection(bool direction) ====
		 * Establece la dirección a la que se mueve el motor.
		 *  - direction: [bool] true si la dirección es hacia SIDE_1, false en caso contrario.
		 */
		expectedDirection = direction;
    14d2:	19 86       	std	Y+9, r1	; 0x09
		flagPressed = false;
    14d4:	18 86       	std	Y+8, r1	; 0x08
    14d6:	01 c0       	rjmp	.+2      	; 0x14da <_ZN12RetornoState3runEv+0xca>
		 * ==== startMoving(bool direction, uint32_t currentTime) ====
		 * Ordena el arranque del motor en una dirección determinada.
		 *  - direction: [bool] Dirección de giro.
		 *  - currentTime: [uint32_t] Tiempo actual en ms.
		 */
		bool startFromSide = false;
    14d8:	30 e0       	ldi	r19, 0x00	; 0
		 * ==== setDirection(bool forward) ====
		 * Establece la dirección de giro del motor.
		 *  - forward: [bool] Dirección de giro.
		 */
		if (forward)	*portDIR |= maskDIR;
		else			*portDIR &= ~maskDIR;
    14da:	cd 91       	ld	r28, X+
    14dc:	dc 91       	ld	r29, X
    14de:	11 97       	sbiw	r26, 0x01	; 1
    14e0:	28 81       	ld	r18, Y
    14e2:	14 96       	adiw	r26, 0x04	; 4
    14e4:	8c 91       	ld	r24, X
    14e6:	14 97       	sbiw	r26, 0x04	; 4
    14e8:	80 95       	com	r24
    14ea:	82 23       	and	r24, r18
    14ec:	88 83       	st	Y, r24
		/* 
		 * ==== setSpeed(bool speed) ====
		 * Establece la velociad de rotación del motor.
		 *  - speed: [uint8_t] Velocidad (PWM) de rotación.
		 */
		*ocrPWM = speed;
    14ee:	1a 96       	adiw	r26, 0x0a	; 10
    14f0:	cd 91       	ld	r28, X+
    14f2:	dc 91       	ld	r29, X
    14f4:	1b 97       	sbiw	r26, 0x0b	; 11
    14f6:	8c ec       	ldi	r24, 0xCC	; 204
    14f8:	88 83       	st	Y, r24
			eorSwitch->setExpectedDirection(direction);
		}
		
		setDirection(direction);
		setSpeed(204); // 80% PWM
		isMoving = true;
    14fa:	81 e0       	ldi	r24, 0x01	; 1
    14fc:	1e 96       	adiw	r26, 0x0e	; 14
    14fe:	8c 93       	st	X, r24
    1500:	1e 97       	sbiw	r26, 0x0e	; 14
		
		// Si arranca en sensor, activar escape.
		if (startFromSide || (eorSwitch != 0 && eorSwitch->isPressed())) {	
    1502:	31 11       	cpse	r19, r1
    1504:	11 c0       	rjmp	.+34     	; 0x1528 <_ZN12RetornoState3runEv+0x118>
    1506:	1c 96       	adiw	r26, 0x0c	; 12
    1508:	0d 91       	ld	r16, X+
    150a:	1c 91       	ld	r17, X
    150c:	1d 97       	sbiw	r26, 0x0d	; 13
    150e:	01 15       	cp	r16, r1
    1510:	11 05       	cpc	r17, r1
    1512:	69 f0       	breq	.+26     	; 0x152e <_ZN12RetornoState3runEv+0x11e>
		/* 
		 * ==== isPressed() ====
		 * Devuelve el estado acutal de la seńal del switch.
		 *  - return: [bool] true si el switch está presionado. flase en caso contrario.
		 */
		return !(*pinReg & mask);	// Lógica invertida (Pull-up)
    1514:	e8 01       	movw	r28, r16
    1516:	28 81       	ld	r18, Y
    1518:	39 81       	ldd	r19, Y+1	; 0x01
    151a:	e9 01       	movw	r28, r18
    151c:	28 81       	ld	r18, Y
    151e:	e8 01       	movw	r28, r16
    1520:	8e 81       	ldd	r24, Y+6	; 0x06
    1522:	82 23       	and	r24, r18
    1524:	19 f0       	breq	.+6      	; 0x152c <_ZN12RetornoState3runEv+0x11c>
    1526:	03 c0       	rjmp	.+6      	; 0x152e <_ZN12RetornoState3runEv+0x11e>
    1528:	91 e0       	ldi	r25, 0x01	; 1
    152a:	01 c0       	rjmp	.+2      	; 0x152e <_ZN12RetornoState3runEv+0x11e>
    152c:	91 e0       	ldi	r25, 0x01	; 1
    152e:	99 23       	and	r25, r25
    1530:	59 f0       	breq	.+22     	; 0x1548 <_ZN12RetornoState3runEv+0x138>
			isEscaping = true;
    1532:	81 e0       	ldi	r24, 0x01	; 1
    1534:	1f 96       	adiw	r26, 0x0f	; 15
    1536:	8c 93       	st	X, r24
    1538:	1f 97       	sbiw	r26, 0x0f	; 15
			escapeStartTimestamp = currentTime;
    153a:	50 96       	adiw	r26, 0x10	; 16
    153c:	4d 93       	st	X+, r20
    153e:	5d 93       	st	X+, r21
    1540:	6d 93       	st	X+, r22
    1542:	7c 93       	st	X, r23
    1544:	53 97       	sbiw	r26, 0x13	; 19
    1546:	02 c0       	rjmp	.+4      	; 0x154c <_ZN12RetornoState3runEv+0x13c>
		} else {
			isEscaping = false;
    1548:	1f 96       	adiw	r26, 0x0f	; 15
    154a:	1c 92       	st	X, r1
			step = 2;
    154c:	82 e0       	ldi	r24, 0x02	; 2
    154e:	84 83       	std	Z+4, r24	; 0x04
    1550:	37 c0       	rjmp	.+110    	; 0x15c0 <_ZN12RetornoState3runEv+0x1b0>
		}
		else if (step == 2 && status->sw5->getState() == M5_IS_DOWN) {
    1552:	82 30       	cpi	r24, 0x02	; 2
    1554:	59 f4       	brne	.+22     	; 0x156c <_ZN12RetornoState3runEv+0x15c>
    1556:	a2 81       	ldd	r26, Z+2	; 0x02
    1558:	b3 81       	ldd	r27, Z+3	; 0x03
    155a:	52 96       	adiw	r26, 0x12	; 18
    155c:	0d 90       	ld	r0, X+
    155e:	bc 91       	ld	r27, X
    1560:	a0 2d       	mov	r26, r0
		/* 
		 * ==== getState() ====
		 * Devuelve el estado acutal del actuador tras el filtrado.
		 *  - return: [SwState] Estado relativo en el que está el actuador.
		 */
		return currentState;
    1562:	17 96       	adiw	r26, 0x07	; 7
    1564:	2c 91       	ld	r18, X
    1566:	22 30       	cpi	r18, 0x02	; 2
    1568:	09 f4       	brne	.+2      	; 0x156c <_ZN12RetornoState3runEv+0x15c>
    156a:	91 e0       	ldi	r25, 0x01	; 1
    156c:	99 23       	and	r25, r25
    156e:	79 f0       	breq	.+30     	; 0x158e <_ZN12RetornoState3runEv+0x17e>
			delay_timer = status->current_time;
    1570:	a2 81       	ldd	r26, Z+2	; 0x02
    1572:	b3 81       	ldd	r27, Z+3	; 0x03
    1574:	95 96       	adiw	r26, 0x25	; 37
    1576:	8d 91       	ld	r24, X+
    1578:	9d 91       	ld	r25, X+
    157a:	0d 90       	ld	r0, X+
    157c:	bc 91       	ld	r27, X
    157e:	a0 2d       	mov	r26, r0
    1580:	85 83       	std	Z+5, r24	; 0x05
    1582:	96 83       	std	Z+6, r25	; 0x06
    1584:	a7 83       	std	Z+7, r26	; 0x07
    1586:	b0 87       	std	Z+8, r27	; 0x08
			step = 3;
    1588:	83 e0       	ldi	r24, 0x03	; 3
    158a:	84 83       	std	Z+4, r24	; 0x04
    158c:	19 c0       	rjmp	.+50     	; 0x15c0 <_ZN12RetornoState3runEv+0x1b0>
		}
		else if (step == 3 && (status->current_time - delay_timer >= 2000)) {
    158e:	83 30       	cpi	r24, 0x03	; 3
    1590:	b9 f4       	brne	.+46     	; 0x15c0 <_ZN12RetornoState3runEv+0x1b0>
    1592:	a2 81       	ldd	r26, Z+2	; 0x02
    1594:	b3 81       	ldd	r27, Z+3	; 0x03
    1596:	95 96       	adiw	r26, 0x25	; 37
    1598:	8d 91       	ld	r24, X+
    159a:	9d 91       	ld	r25, X+
    159c:	0d 90       	ld	r0, X+
    159e:	bc 91       	ld	r27, X
    15a0:	a0 2d       	mov	r26, r0
    15a2:	45 81       	ldd	r20, Z+5	; 0x05
    15a4:	56 81       	ldd	r21, Z+6	; 0x06
    15a6:	67 81       	ldd	r22, Z+7	; 0x07
    15a8:	70 85       	ldd	r23, Z+8	; 0x08
    15aa:	84 1b       	sub	r24, r20
    15ac:	95 0b       	sbc	r25, r21
    15ae:	a6 0b       	sbc	r26, r22
    15b0:	b7 0b       	sbc	r27, r23
    15b2:	80 3d       	cpi	r24, 0xD0	; 208
    15b4:	97 40       	sbci	r25, 0x07	; 7
    15b6:	a1 05       	cpc	r26, r1
    15b8:	b1 05       	cpc	r27, r1
    15ba:	10 f0       	brcs	.+4      	; 0x15c0 <_ZN12RetornoState3runEv+0x1b0>
			step = 4;
    15bc:	84 e0       	ldi	r24, 0x04	; 4
    15be:	84 83       	std	Z+4, r24	; 0x04
		}
	}
    15c0:	df 91       	pop	r29
    15c2:	cf 91       	pop	r28
    15c4:	1f 91       	pop	r17
    15c6:	0f 91       	pop	r16
    15c8:	ff 90       	pop	r15
    15ca:	ef 90       	pop	r14
    15cc:	df 90       	pop	r13
    15ce:	cf 90       	pop	r12
    15d0:	08 95       	ret

000015d2 <_ZN10CargaState3runEv>:
			
			status->m1->startMoving(M1_GO_UP, status->current_time);
			status->m4->startMoving(M4_GO_OPEN, status->current_time);
		}
				
		void run() override {
    15d2:	cf 92       	push	r12
    15d4:	df 92       	push	r13
    15d6:	ef 92       	push	r14
    15d8:	ff 92       	push	r15
    15da:	0f 93       	push	r16
    15dc:	1f 93       	push	r17
    15de:	cf 93       	push	r28
    15e0:	df 93       	push	r29
    15e2:	fc 01       	movw	r30, r24
			if(step_m12 == 0 && status->sw1->getState() == M1_IS_UP) {
    15e4:	94 81       	ldd	r25, Z+4	; 0x04
    15e6:	91 11       	cpse	r25, r1
    15e8:	0b c0       	rjmp	.+22     	; 0x1600 <_ZN10CargaState3runEv+0x2e>
    15ea:	a2 81       	ldd	r26, Z+2	; 0x02
    15ec:	b3 81       	ldd	r27, Z+3	; 0x03
    15ee:	1a 96       	adiw	r26, 0x0a	; 10
    15f0:	0d 90       	ld	r0, X+
    15f2:	bc 91       	ld	r27, X
    15f4:	a0 2d       	mov	r26, r0
    15f6:	17 96       	adiw	r26, 0x07	; 7
    15f8:	8c 91       	ld	r24, X
    15fa:	81 30       	cpi	r24, 0x01	; 1
    15fc:	19 f4       	brne	.+6      	; 0x1604 <_ZN10CargaState3runEv+0x32>
    15fe:	03 c0       	rjmp	.+6      	; 0x1606 <_ZN10CargaState3runEv+0x34>
    1600:	80 e0       	ldi	r24, 0x00	; 0
    1602:	01 c0       	rjmp	.+2      	; 0x1606 <_ZN10CargaState3runEv+0x34>
    1604:	80 e0       	ldi	r24, 0x00	; 0
    1606:	88 23       	and	r24, r24
    1608:	09 f4       	brne	.+2      	; 0x160c <_ZN10CargaState3runEv+0x3a>
    160a:	d1 c0       	rjmp	.+418    	; 0x17ae <_ZN10CargaState3runEv+0x1dc>
				if (status->sw2->getState() == M2_IS_RIGHT) {
    160c:	a2 81       	ldd	r26, Z+2	; 0x02
    160e:	b3 81       	ldd	r27, Z+3	; 0x03
    1610:	1c 96       	adiw	r26, 0x0c	; 12
    1612:	cd 91       	ld	r28, X+
    1614:	dc 91       	ld	r29, X
    1616:	1d 97       	sbiw	r26, 0x0d	; 13
		/* 
		 * ==== getState() ====
		 * Devuelve el estado acutal del actuador tras el filtrado.
		 *  - return: [SwState] Estado relativo en el que está el actuador.
		 */
		return currentState;
    1618:	9f 81       	ldd	r25, Y+7	; 0x07
    161a:	92 30       	cpi	r25, 0x02	; 2
    161c:	09 f0       	breq	.+2      	; 0x1620 <_ZN10CargaState3runEv+0x4e>
    161e:	5d c0       	rjmp	.+186    	; 0x16da <_ZN10CargaState3runEv+0x108>
					status->m1->startMoving(M1_GO_DOWN, status->current_time);
    1620:	95 96       	adiw	r26, 0x25	; 37
    1622:	4d 91       	ld	r20, X+
    1624:	5d 91       	ld	r21, X+
    1626:	6d 91       	ld	r22, X+
    1628:	7c 91       	ld	r23, X
    162a:	98 97       	sbiw	r26, 0x28	; 40
    162c:	0d 90       	ld	r0, X+
    162e:	bc 91       	ld	r27, X
    1630:	a0 2d       	mov	r26, r0
		 *  - direction: [bool] Dirección de giro.
		 *  - currentTime: [uint32_t] Tiempo actual en ms.
		 */
		bool startFromSide = false;
	
		if (eorSwitch != 0) {
    1632:	1c 96       	adiw	r26, 0x0c	; 12
    1634:	cd 91       	ld	r28, X+
    1636:	dc 91       	ld	r29, X
    1638:	1d 97       	sbiw	r26, 0x0d	; 13
    163a:	20 97       	sbiw	r28, 0x00	; 0
    163c:	91 f0       	breq	.+36     	; 0x1662 <_ZN10CargaState3runEv+0x90>
    163e:	9f 81       	ldd	r25, Y+7	; 0x07
			SwitchMotor::SwState state = eorSwitch->getState();
			
			// No moverse si ya está en posición de destino.
			if ((direction && state == SwitchMotor::SIDE_1) ||
				(!direction && state == SwitchMotor::SIDE_2)) {
    1640:	92 30       	cpi	r25, 0x02	; 2
    1642:	09 f4       	brne	.+2      	; 0x1646 <_ZN10CargaState3runEv+0x74>
    1644:	47 c0       	rjmp	.+142    	; 0x16d4 <_ZN10CargaState3runEv+0x102>
				return;
			}
			if (state != SwitchMotor::MOVING) {
    1646:	91 11       	cpse	r25, r1
    1648:	02 c0       	rjmp	.+4      	; 0x164e <_ZN10CargaState3runEv+0x7c>
		 * ==== startMoving(bool direction, uint32_t currentTime) ====
		 * Ordena el arranque del motor en una dirección determinada.
		 *  - direction: [bool] Dirección de giro.
		 *  - currentTime: [uint32_t] Tiempo actual en ms.
		 */
		bool startFromSide = false;
    164a:	30 e0       	ldi	r19, 0x00	; 0
    164c:	01 c0       	rjmp	.+2      	; 0x1650 <_ZN10CargaState3runEv+0x7e>
			if ((direction && state == SwitchMotor::SIDE_1) ||
				(!direction && state == SwitchMotor::SIDE_2)) {
				return;
			}
			if (state != SwitchMotor::MOVING) {
				startFromSide = true;
    164e:	31 e0       	ldi	r19, 0x01	; 1
		/* 
		 * ==== forceState(SwState s) ====
		 * Establece el estado del actuador. Debe ser usado tras la calibración.
		 *  - s: [SwState] Estado actual del actuador.
		 */
		currentState = s;
    1650:	1f 82       	std	Y+7, r1	; 0x07
		flagPressed = false;
    1652:	18 86       	std	Y+8, r1	; 0x08
			}
			
			// Prepara el switch para escuchar la colisión.
			eorSwitch->forceState(SwitchMotor::MOVING);
			eorSwitch->setExpectedDirection(direction);
    1654:	1c 96       	adiw	r26, 0x0c	; 12
    1656:	cd 91       	ld	r28, X+
    1658:	dc 91       	ld	r29, X
    165a:	1d 97       	sbiw	r26, 0x0d	; 13
		/* 
		 * ==== setExpectedDirection(bool direction) ====
		 * Establece la dirección a la que se mueve el motor.
		 *  - direction: [bool] true si la dirección es hacia SIDE_1, false en caso contrario.
		 */
		expectedDirection = direction;
    165c:	19 86       	std	Y+9, r1	; 0x09
		flagPressed = false;
    165e:	18 86       	std	Y+8, r1	; 0x08
    1660:	01 c0       	rjmp	.+2      	; 0x1664 <_ZN10CargaState3runEv+0x92>
		 * ==== startMoving(bool direction, uint32_t currentTime) ====
		 * Ordena el arranque del motor en una dirección determinada.
		 *  - direction: [bool] Dirección de giro.
		 *  - currentTime: [uint32_t] Tiempo actual en ms.
		 */
		bool startFromSide = false;
    1662:	30 e0       	ldi	r19, 0x00	; 0
		 * ==== setDirection(bool forward) ====
		 * Establece la dirección de giro del motor.
		 *  - forward: [bool] Dirección de giro.
		 */
		if (forward)	*portDIR |= maskDIR;
		else			*portDIR &= ~maskDIR;
    1664:	cd 91       	ld	r28, X+
    1666:	dc 91       	ld	r29, X
    1668:	11 97       	sbiw	r26, 0x01	; 1
    166a:	28 81       	ld	r18, Y
    166c:	14 96       	adiw	r26, 0x04	; 4
    166e:	9c 91       	ld	r25, X
    1670:	14 97       	sbiw	r26, 0x04	; 4
    1672:	90 95       	com	r25
    1674:	92 23       	and	r25, r18
    1676:	98 83       	st	Y, r25
		/* 
		 * ==== setSpeed(bool speed) ====
		 * Establece la velociad de rotación del motor.
		 *  - speed: [uint8_t] Velocidad (PWM) de rotación.
		 */
		*ocrPWM = speed;
    1678:	1a 96       	adiw	r26, 0x0a	; 10
    167a:	cd 91       	ld	r28, X+
    167c:	dc 91       	ld	r29, X
    167e:	1b 97       	sbiw	r26, 0x0b	; 11
    1680:	9c ec       	ldi	r25, 0xCC	; 204
    1682:	98 83       	st	Y, r25
			eorSwitch->setExpectedDirection(direction);
		}
		
		setDirection(direction);
		setSpeed(204); // 80% PWM
		isMoving = true;
    1684:	91 e0       	ldi	r25, 0x01	; 1
    1686:	1e 96       	adiw	r26, 0x0e	; 14
    1688:	9c 93       	st	X, r25
    168a:	1e 97       	sbiw	r26, 0x0e	; 14
		
		// Si arranca en sensor, activar escape.
		if (startFromSide || (eorSwitch != 0 && eorSwitch->isPressed())) {	
    168c:	31 11       	cpse	r19, r1
    168e:	13 c0       	rjmp	.+38     	; 0x16b6 <_ZN10CargaState3runEv+0xe4>
    1690:	1c 96       	adiw	r26, 0x0c	; 12
    1692:	ed 90       	ld	r14, X+
    1694:	fc 90       	ld	r15, X
    1696:	1d 97       	sbiw	r26, 0x0d	; 13
    1698:	e1 14       	cp	r14, r1
    169a:	f1 04       	cpc	r15, r1
    169c:	59 f0       	breq	.+22     	; 0x16b4 <_ZN10CargaState3runEv+0xe2>
		/* 
		 * ==== isPressed() ====
		 * Devuelve el estado acutal de la seńal del switch.
		 *  - return: [bool] true si el switch está presionado. flase en caso contrario.
		 */
		return !(*pinReg & mask);	// Lógica invertida (Pull-up)
    169e:	e7 01       	movw	r28, r14
    16a0:	28 81       	ld	r18, Y
    16a2:	39 81       	ldd	r19, Y+1	; 0x01
    16a4:	e9 01       	movw	r28, r18
    16a6:	28 81       	ld	r18, Y
    16a8:	e7 01       	movw	r28, r14
    16aa:	9e 81       	ldd	r25, Y+6	; 0x06
    16ac:	92 23       	and	r25, r18
    16ae:	19 f0       	breq	.+6      	; 0x16b6 <_ZN10CargaState3runEv+0xe4>
    16b0:	80 e0       	ldi	r24, 0x00	; 0
    16b2:	01 c0       	rjmp	.+2      	; 0x16b6 <_ZN10CargaState3runEv+0xe4>
    16b4:	80 e0       	ldi	r24, 0x00	; 0
    16b6:	88 23       	and	r24, r24
    16b8:	59 f0       	breq	.+22     	; 0x16d0 <_ZN10CargaState3runEv+0xfe>
			isEscaping = true;
    16ba:	81 e0       	ldi	r24, 0x01	; 1
    16bc:	1f 96       	adiw	r26, 0x0f	; 15
    16be:	8c 93       	st	X, r24
    16c0:	1f 97       	sbiw	r26, 0x0f	; 15
			escapeStartTimestamp = currentTime;
    16c2:	50 96       	adiw	r26, 0x10	; 16
    16c4:	4d 93       	st	X+, r20
    16c6:	5d 93       	st	X+, r21
    16c8:	6d 93       	st	X+, r22
    16ca:	7c 93       	st	X, r23
    16cc:	53 97       	sbiw	r26, 0x13	; 19
    16ce:	02 c0       	rjmp	.+4      	; 0x16d4 <_ZN10CargaState3runEv+0x102>
		} else {
			isEscaping = false;
    16d0:	1f 96       	adiw	r26, 0x0f	; 15
    16d2:	1c 92       	st	X, r1
					step_m12 = 1;
    16d4:	81 e0       	ldi	r24, 0x01	; 1
    16d6:	84 83       	std	Z+4, r24	; 0x04
    16d8:	10 c1       	rjmp	.+544    	; 0x18fa <_ZN10CargaState3runEv+0x328>
				}
				else if (!status->m2->getIsMoving()) {
    16da:	12 96       	adiw	r26, 0x02	; 2
    16dc:	cd 91       	ld	r28, X+
    16de:	dc 91       	ld	r29, X
    16e0:	13 97       	sbiw	r26, 0x03	; 3
	bool getIsMoving() {
		/*
		 * ==== getIsMoving() ====
		 * Devuelve si el motor se está moviendo.
		 */
		return isMoving;
    16e2:	9e 85       	ldd	r25, Y+14	; 0x0e
    16e4:	91 11       	cpse	r25, r1
    16e6:	09 c1       	rjmp	.+530    	; 0x18fa <_ZN10CargaState3runEv+0x328>
					status->m2->startMoving(M2_GO_RIGHT, status->current_time);
    16e8:	95 96       	adiw	r26, 0x25	; 37
    16ea:	cd 90       	ld	r12, X+
    16ec:	dd 90       	ld	r13, X+
    16ee:	ed 90       	ld	r14, X+
    16f0:	fc 90       	ld	r15, X
    16f2:	98 97       	sbiw	r26, 0x28	; 40
		 *  - direction: [bool] Dirección de giro.
		 *  - currentTime: [uint32_t] Tiempo actual en ms.
		 */
		bool startFromSide = false;
	
		if (eorSwitch != 0) {
    16f4:	ac 85       	ldd	r26, Y+12	; 0x0c
    16f6:	bd 85       	ldd	r27, Y+13	; 0x0d
    16f8:	10 97       	sbiw	r26, 0x00	; 0
    16fa:	61 f1       	breq	.+88     	; 0x1754 <_ZN10CargaState3runEv+0x182>
    16fc:	17 96       	adiw	r26, 0x07	; 7
    16fe:	2c 91       	ld	r18, X
    1700:	17 97       	sbiw	r26, 0x07	; 7
			SwitchMotor2::SwState state = eorSwitch->getState();
			
			// No moverse si ya está en posición de destino (extremos).
			if ((direction && state == SwitchMotor2::SIDE_1) ||
				(!direction && state == SwitchMotor2::SIDE_2)) {
    1702:	22 30       	cpi	r18, 0x02	; 2
    1704:	09 f4       	brne	.+2      	; 0x1708 <_ZN10CargaState3runEv+0x136>
    1706:	f9 c0       	rjmp	.+498    	; 0x18fa <_ZN10CargaState3runEv+0x328>
				return;
			}
			if (state != SwitchMotor2::MOVING) {
    1708:	21 11       	cpse	r18, r1
    170a:	02 c0       	rjmp	.+4      	; 0x1710 <_ZN10CargaState3runEv+0x13e>
		 * ==== startMoving(bool direction, uint32_t currentTime) ====
		 * Ordena el arranque del motor en una dirección determinada. Parará en la siguiente posición encontrada.
		 *  - direction: [bool] Dirección de giro.
		 *  - currentTime: [uint32_t] Tiempo actual en ms.
		 */
		bool startFromSide = false;
    170c:	40 e0       	ldi	r20, 0x00	; 0
    170e:	01 c0       	rjmp	.+2      	; 0x1712 <_ZN10CargaState3runEv+0x140>
			if ((direction && state == SwitchMotor2::SIDE_1) ||
				(!direction && state == SwitchMotor2::SIDE_2)) {
				return;
			}
			if (state != SwitchMotor2::MOVING) {
				startFromSide = true;
    1710:	41 e0       	ldi	r20, 0x01	; 1
		/* 
		 * ==== setExpectedDirection(bool direction) ====
		 * Establece la dirección y prepara el próximo estado lógico a alcanzar.
		 *  - direction: [bool] true si la dirección es hacia SIDE_1, false en caso contrario.
		 */
		expectedDirection = direction;
    1712:	1a 96       	adiw	r26, 0x0a	; 10
    1714:	1c 92       	st	X, r1
    1716:	1a 97       	sbiw	r26, 0x0a	; 10
		flagPressed = false;
    1718:	19 96       	adiw	r26, 0x09	; 9
    171a:	1c 92       	st	X, r1
    171c:	19 97       	sbiw	r26, 0x09	; 9
		if (direction) { // hacia SIDE_1
			if (currentState == SIDE_2) nextExpectedState = SIDE_MIDDLE;
			else if (currentState == SIDE_MIDDLE) nextExpectedState = SIDE_1;
			else nextExpectedState = SIDE_1;
		} else {
			if (currentState == SIDE_1) nextExpectedState = SIDE_MIDDLE;
    171e:	17 96       	adiw	r26, 0x07	; 7
    1720:	2c 91       	ld	r18, X
    1722:	17 97       	sbiw	r26, 0x07	; 7
    1724:	21 30       	cpi	r18, 0x01	; 1
    1726:	29 f4       	brne	.+10     	; 0x1732 <_ZN10CargaState3runEv+0x160>
    1728:	23 e0       	ldi	r18, 0x03	; 3
    172a:	18 96       	adiw	r26, 0x08	; 8
    172c:	2c 93       	st	X, r18
    172e:	18 97       	sbiw	r26, 0x08	; 8
    1730:	0e c0       	rjmp	.+28     	; 0x174e <_ZN10CargaState3runEv+0x17c>
			else if (currentState == SIDE_MIDDLE) nextExpectedState = SIDE_2;
    1732:	17 96       	adiw	r26, 0x07	; 7
    1734:	2c 91       	ld	r18, X
    1736:	17 97       	sbiw	r26, 0x07	; 7
    1738:	23 30       	cpi	r18, 0x03	; 3
    173a:	29 f4       	brne	.+10     	; 0x1746 <_ZN10CargaState3runEv+0x174>
    173c:	22 e0       	ldi	r18, 0x02	; 2
    173e:	18 96       	adiw	r26, 0x08	; 8
    1740:	2c 93       	st	X, r18
    1742:	18 97       	sbiw	r26, 0x08	; 8
    1744:	04 c0       	rjmp	.+8      	; 0x174e <_ZN10CargaState3runEv+0x17c>
			else nextExpectedState = SIDE_2;
    1746:	22 e0       	ldi	r18, 0x02	; 2
    1748:	18 96       	adiw	r26, 0x08	; 8
    174a:	2c 93       	st	X, r18
    174c:	18 97       	sbiw	r26, 0x08	; 8
		}
		
		currentState = MOVING;
    174e:	17 96       	adiw	r26, 0x07	; 7
    1750:	1c 92       	st	X, r1
    1752:	01 c0       	rjmp	.+2      	; 0x1756 <_ZN10CargaState3runEv+0x184>
		 * ==== startMoving(bool direction, uint32_t currentTime) ====
		 * Ordena el arranque del motor en una dirección determinada. Parará en la siguiente posición encontrada.
		 *  - direction: [bool] Dirección de giro.
		 *  - currentTime: [uint32_t] Tiempo actual en ms.
		 */
		bool startFromSide = false;
    1754:	40 e0       	ldi	r20, 0x00	; 0
		 * ==== setDirection(bool forward) ====
		 * Establece la dirección de giro del motor.
		 *  - forward: [bool] Dirección de giro.
		 */
		if (forward)	*portDIR |= maskDIR;
		else			*portDIR &= ~maskDIR;
    1756:	a8 81       	ld	r26, Y
    1758:	b9 81       	ldd	r27, Y+1	; 0x01
    175a:	3c 91       	ld	r19, X
    175c:	2c 81       	ldd	r18, Y+4	; 0x04
    175e:	20 95       	com	r18
    1760:	23 23       	and	r18, r19
    1762:	2c 93       	st	X, r18
		/* 
		 * ==== setSpeed(bool speed) ====
		 * Establece la velociad de rotación del motor.
		 *  - speed: [uint8_t] Velocidad (PWM) de rotación.
		 */
		*ocrPWM = speed;
    1764:	aa 85       	ldd	r26, Y+10	; 0x0a
    1766:	bb 85       	ldd	r27, Y+11	; 0x0b
    1768:	2c ec       	ldi	r18, 0xCC	; 204
    176a:	2c 93       	st	X, r18
			eorSwitch->setExpectedDirection(direction);
		}
		
		setDirection(direction);
		setSpeed(204); // 80% PWM
		isMoving = true;
    176c:	21 e0       	ldi	r18, 0x01	; 1
    176e:	2e 87       	std	Y+14, r18	; 0x0e
		
		// Si arranca en CUALQUIER sensor, activar escape temporal.
		if (startFromSide || (eorSwitch != 0 && eorSwitch->isPressed())) {	
    1770:	41 11       	cpse	r20, r1
    1772:	12 c0       	rjmp	.+36     	; 0x1798 <_ZN10CargaState3runEv+0x1c6>
    1774:	4c 85       	ldd	r20, Y+12	; 0x0c
    1776:	5d 85       	ldd	r21, Y+13	; 0x0d
    1778:	41 15       	cp	r20, r1
    177a:	51 05       	cpc	r21, r1
    177c:	61 f0       	breq	.+24     	; 0x1796 <_ZN10CargaState3runEv+0x1c4>
		/* 
		 * ==== isPressed() ====
		 * Devuelve el estado acutal de la seńal del switch.
		 *  - return: [bool] true si el switch está presionado. flase en caso contrario.
		 */
		return !(*pinReg & mask);	// Lógica invertida (Pull-up)
    177e:	da 01       	movw	r26, r20
    1780:	2d 91       	ld	r18, X+
    1782:	3c 91       	ld	r19, X
    1784:	d9 01       	movw	r26, r18
    1786:	3c 91       	ld	r19, X
    1788:	da 01       	movw	r26, r20
    178a:	16 96       	adiw	r26, 0x06	; 6
    178c:	2c 91       	ld	r18, X
    178e:	23 23       	and	r18, r19
    1790:	19 f0       	breq	.+6      	; 0x1798 <_ZN10CargaState3runEv+0x1c6>
    1792:	89 2f       	mov	r24, r25
    1794:	01 c0       	rjmp	.+2      	; 0x1798 <_ZN10CargaState3runEv+0x1c6>
    1796:	89 2f       	mov	r24, r25
    1798:	88 23       	and	r24, r24
    179a:	39 f0       	breq	.+14     	; 0x17aa <_ZN10CargaState3runEv+0x1d8>
			isEscaping = true;
    179c:	81 e0       	ldi	r24, 0x01	; 1
    179e:	8f 87       	std	Y+15, r24	; 0x0f
			escapeStartTimestamp = currentTime;
    17a0:	c8 8a       	std	Y+16, r12	; 0x10
    17a2:	d9 8a       	std	Y+17, r13	; 0x11
    17a4:	ea 8a       	std	Y+18, r14	; 0x12
    17a6:	fb 8a       	std	Y+19, r15	; 0x13
    17a8:	a8 c0       	rjmp	.+336    	; 0x18fa <_ZN10CargaState3runEv+0x328>
		} else {
			isEscaping = false;
    17aa:	1f 86       	std	Y+15, r1	; 0x0f
    17ac:	a6 c0       	rjmp	.+332    	; 0x18fa <_ZN10CargaState3runEv+0x328>
				}
			}
			else if (step_m12 == 1 && status->sw1->getState() == M1_IS_DOWN) {
    17ae:	91 30       	cpi	r25, 0x01	; 1
    17b0:	59 f4       	brne	.+22     	; 0x17c8 <_ZN10CargaState3runEv+0x1f6>
    17b2:	a2 81       	ldd	r26, Z+2	; 0x02
    17b4:	b3 81       	ldd	r27, Z+3	; 0x03
    17b6:	1a 96       	adiw	r26, 0x0a	; 10
    17b8:	0d 90       	ld	r0, X+
    17ba:	bc 91       	ld	r27, X
    17bc:	a0 2d       	mov	r26, r0
		/* 
		 * ==== getState() ====
		 * Devuelve el estado acutal del actuador tras el filtrado.
		 *  - return: [SwState] Estado relativo en el que está el actuador.
		 */
		return currentState;
    17be:	17 96       	adiw	r26, 0x07	; 7
    17c0:	2c 91       	ld	r18, X
    17c2:	22 30       	cpi	r18, 0x02	; 2
    17c4:	09 f4       	brne	.+2      	; 0x17c8 <_ZN10CargaState3runEv+0x1f6>
    17c6:	81 e0       	ldi	r24, 0x01	; 1
    17c8:	88 23       	and	r24, r24
    17ca:	79 f0       	breq	.+30     	; 0x17ea <_ZN10CargaState3runEv+0x218>
				timer_m1 = status->current_time;
    17cc:	a2 81       	ldd	r26, Z+2	; 0x02
    17ce:	b3 81       	ldd	r27, Z+3	; 0x03
    17d0:	95 96       	adiw	r26, 0x25	; 37
    17d2:	8d 91       	ld	r24, X+
    17d4:	9d 91       	ld	r25, X+
    17d6:	0d 90       	ld	r0, X+
    17d8:	bc 91       	ld	r27, X
    17da:	a0 2d       	mov	r26, r0
    17dc:	86 83       	std	Z+6, r24	; 0x06
    17de:	97 83       	std	Z+7, r25	; 0x07
    17e0:	a0 87       	std	Z+8, r26	; 0x08
    17e2:	b1 87       	std	Z+9, r27	; 0x09
				step_m12 = 2;
    17e4:	82 e0       	ldi	r24, 0x02	; 2
    17e6:	84 83       	std	Z+4, r24	; 0x04
    17e8:	88 c0       	rjmp	.+272    	; 0x18fa <_ZN10CargaState3runEv+0x328>
			}
			else if (step_m12 == 2 && (status->current_time - timer_m1) >= 1000) {
    17ea:	92 30       	cpi	r25, 0x02	; 2
    17ec:	09 f0       	breq	.+2      	; 0x17f0 <_ZN10CargaState3runEv+0x21e>
    17ee:	74 c0       	rjmp	.+232    	; 0x18d8 <_ZN10CargaState3runEv+0x306>
    17f0:	a2 81       	ldd	r26, Z+2	; 0x02
    17f2:	b3 81       	ldd	r27, Z+3	; 0x03
    17f4:	95 96       	adiw	r26, 0x25	; 37
    17f6:	4d 91       	ld	r20, X+
    17f8:	5d 91       	ld	r21, X+
    17fa:	6d 91       	ld	r22, X+
    17fc:	7c 91       	ld	r23, X
    17fe:	98 97       	sbiw	r26, 0x28	; 40
    1800:	c6 80       	ldd	r12, Z+6	; 0x06
    1802:	d7 80       	ldd	r13, Z+7	; 0x07
    1804:	e0 84       	ldd	r14, Z+8	; 0x08
    1806:	f1 84       	ldd	r15, Z+9	; 0x09
    1808:	8a 01       	movw	r16, r20
    180a:	9b 01       	movw	r18, r22
    180c:	0c 19       	sub	r16, r12
    180e:	1d 09       	sbc	r17, r13
    1810:	2e 09       	sbc	r18, r14
    1812:	3f 09       	sbc	r19, r15
    1814:	68 01       	movw	r12, r16
    1816:	79 01       	movw	r14, r18
    1818:	18 ee       	ldi	r17, 0xE8	; 232
    181a:	c1 16       	cp	r12, r17
    181c:	13 e0       	ldi	r17, 0x03	; 3
    181e:	d1 06       	cpc	r13, r17
    1820:	e1 04       	cpc	r14, r1
    1822:	f1 04       	cpc	r15, r1
    1824:	08 f4       	brcc	.+2      	; 0x1828 <_ZN10CargaState3runEv+0x256>
    1826:	58 c0       	rjmp	.+176    	; 0x18d8 <_ZN10CargaState3runEv+0x306>
				status->m1->startMoving(M1_GO_UP, status->current_time);
    1828:	0d 90       	ld	r0, X+
    182a:	bc 91       	ld	r27, X
    182c:	a0 2d       	mov	r26, r0
		 *  - direction: [bool] Dirección de giro.
		 *  - currentTime: [uint32_t] Tiempo actual en ms.
		 */
		bool startFromSide = false;
	
		if (eorSwitch != 0) {
    182e:	1c 96       	adiw	r26, 0x0c	; 12
    1830:	cd 91       	ld	r28, X+
    1832:	dc 91       	ld	r29, X
    1834:	1d 97       	sbiw	r26, 0x0d	; 13
    1836:	20 97       	sbiw	r28, 0x00	; 0
    1838:	99 f0       	breq	.+38     	; 0x1860 <_ZN10CargaState3runEv+0x28e>
    183a:	9f 81       	ldd	r25, Y+7	; 0x07
			SwitchMotor::SwState state = eorSwitch->getState();
			
			// No moverse si ya está en posición de destino.
			if ((direction && state == SwitchMotor::SIDE_1) ||
    183c:	91 30       	cpi	r25, 0x01	; 1
    183e:	09 f4       	brne	.+2      	; 0x1842 <_ZN10CargaState3runEv+0x270>
    1840:	48 c0       	rjmp	.+144    	; 0x18d2 <_ZN10CargaState3runEv+0x300>
				(!direction && state == SwitchMotor::SIDE_2)) {
				return;
			}
			if (state != SwitchMotor::MOVING) {
    1842:	91 11       	cpse	r25, r1
    1844:	02 c0       	rjmp	.+4      	; 0x184a <_ZN10CargaState3runEv+0x278>
		 * ==== startMoving(bool direction, uint32_t currentTime) ====
		 * Ordena el arranque del motor en una dirección determinada.
		 *  - direction: [bool] Dirección de giro.
		 *  - currentTime: [uint32_t] Tiempo actual en ms.
		 */
		bool startFromSide = false;
    1846:	30 e0       	ldi	r19, 0x00	; 0
    1848:	01 c0       	rjmp	.+2      	; 0x184c <_ZN10CargaState3runEv+0x27a>
			if ((direction && state == SwitchMotor::SIDE_1) ||
				(!direction && state == SwitchMotor::SIDE_2)) {
				return;
			}
			if (state != SwitchMotor::MOVING) {
				startFromSide = true;
    184a:	31 e0       	ldi	r19, 0x01	; 1
		/* 
		 * ==== forceState(SwState s) ====
		 * Establece el estado del actuador. Debe ser usado tras la calibración.
		 *  - s: [SwState] Estado actual del actuador.
		 */
		currentState = s;
    184c:	1f 82       	std	Y+7, r1	; 0x07
		flagPressed = false;
    184e:	18 86       	std	Y+8, r1	; 0x08
			}
			
			// Prepara el switch para escuchar la colisión.
			eorSwitch->forceState(SwitchMotor::MOVING);
			eorSwitch->setExpectedDirection(direction);
    1850:	1c 96       	adiw	r26, 0x0c	; 12
    1852:	cd 91       	ld	r28, X+
    1854:	dc 91       	ld	r29, X
    1856:	1d 97       	sbiw	r26, 0x0d	; 13
		/* 
		 * ==== setExpectedDirection(bool direction) ====
		 * Establece la dirección a la que se mueve el motor.
		 *  - direction: [bool] true si la dirección es hacia SIDE_1, false en caso contrario.
		 */
		expectedDirection = direction;
    1858:	91 e0       	ldi	r25, 0x01	; 1
    185a:	99 87       	std	Y+9, r25	; 0x09
		flagPressed = false;
    185c:	18 86       	std	Y+8, r1	; 0x08
    185e:	01 c0       	rjmp	.+2      	; 0x1862 <_ZN10CargaState3runEv+0x290>
		 * ==== startMoving(bool direction, uint32_t currentTime) ====
		 * Ordena el arranque del motor en una dirección determinada.
		 *  - direction: [bool] Dirección de giro.
		 *  - currentTime: [uint32_t] Tiempo actual en ms.
		 */
		bool startFromSide = false;
    1860:	30 e0       	ldi	r19, 0x00	; 0
		/* 
		 * ==== setDirection(bool forward) ====
		 * Establece la dirección de giro del motor.
		 *  - forward: [bool] Dirección de giro.
		 */
		if (forward)	*portDIR |= maskDIR;
    1862:	cd 91       	ld	r28, X+
    1864:	dc 91       	ld	r29, X
    1866:	11 97       	sbiw	r26, 0x01	; 1
    1868:	28 81       	ld	r18, Y
    186a:	14 96       	adiw	r26, 0x04	; 4
    186c:	9c 91       	ld	r25, X
    186e:	14 97       	sbiw	r26, 0x04	; 4
    1870:	92 2b       	or	r25, r18
    1872:	98 83       	st	Y, r25
		/* 
		 * ==== setSpeed(bool speed) ====
		 * Establece la velociad de rotación del motor.
		 *  - speed: [uint8_t] Velocidad (PWM) de rotación.
		 */
		*ocrPWM = speed;
    1874:	1a 96       	adiw	r26, 0x0a	; 10
    1876:	cd 91       	ld	r28, X+
    1878:	dc 91       	ld	r29, X
    187a:	1b 97       	sbiw	r26, 0x0b	; 11
    187c:	9c ec       	ldi	r25, 0xCC	; 204
    187e:	98 83       	st	Y, r25
			eorSwitch->setExpectedDirection(direction);
		}
		
		setDirection(direction);
		setSpeed(204); // 80% PWM
		isMoving = true;
    1880:	91 e0       	ldi	r25, 0x01	; 1
    1882:	1e 96       	adiw	r26, 0x0e	; 14
    1884:	9c 93       	st	X, r25
    1886:	1e 97       	sbiw	r26, 0x0e	; 14
		
		// Si arranca en sensor, activar escape.
		if (startFromSide || (eorSwitch != 0 && eorSwitch->isPressed())) {	
    1888:	31 11       	cpse	r19, r1
    188a:	11 c0       	rjmp	.+34     	; 0x18ae <_ZN10CargaState3runEv+0x2dc>
    188c:	1c 96       	adiw	r26, 0x0c	; 12
    188e:	ed 90       	ld	r14, X+
    1890:	fc 90       	ld	r15, X
    1892:	1d 97       	sbiw	r26, 0x0d	; 13
    1894:	e1 14       	cp	r14, r1
    1896:	f1 04       	cpc	r15, r1
    1898:	69 f0       	breq	.+26     	; 0x18b4 <_ZN10CargaState3runEv+0x2e2>
		/* 
		 * ==== isPressed() ====
		 * Devuelve el estado acutal de la seńal del switch.
		 *  - return: [bool] true si el switch está presionado. flase en caso contrario.
		 */
		return !(*pinReg & mask);	// Lógica invertida (Pull-up)
    189a:	e7 01       	movw	r28, r14
    189c:	28 81       	ld	r18, Y
    189e:	39 81       	ldd	r19, Y+1	; 0x01
    18a0:	e9 01       	movw	r28, r18
    18a2:	28 81       	ld	r18, Y
    18a4:	e7 01       	movw	r28, r14
    18a6:	9e 81       	ldd	r25, Y+6	; 0x06
    18a8:	92 23       	and	r25, r18
    18aa:	19 f0       	breq	.+6      	; 0x18b2 <_ZN10CargaState3runEv+0x2e0>
    18ac:	03 c0       	rjmp	.+6      	; 0x18b4 <_ZN10CargaState3runEv+0x2e2>
    18ae:	81 e0       	ldi	r24, 0x01	; 1
    18b0:	01 c0       	rjmp	.+2      	; 0x18b4 <_ZN10CargaState3runEv+0x2e2>
    18b2:	81 e0       	ldi	r24, 0x01	; 1
    18b4:	88 23       	and	r24, r24
    18b6:	59 f0       	breq	.+22     	; 0x18ce <_ZN10CargaState3runEv+0x2fc>
			isEscaping = true;
    18b8:	81 e0       	ldi	r24, 0x01	; 1
    18ba:	1f 96       	adiw	r26, 0x0f	; 15
    18bc:	8c 93       	st	X, r24
    18be:	1f 97       	sbiw	r26, 0x0f	; 15
			escapeStartTimestamp = currentTime;
    18c0:	50 96       	adiw	r26, 0x10	; 16
    18c2:	4d 93       	st	X+, r20
    18c4:	5d 93       	st	X+, r21
    18c6:	6d 93       	st	X+, r22
    18c8:	7c 93       	st	X, r23
    18ca:	53 97       	sbiw	r26, 0x13	; 19
    18cc:	02 c0       	rjmp	.+4      	; 0x18d2 <_ZN10CargaState3runEv+0x300>
		} else {
			isEscaping = false;
    18ce:	1f 96       	adiw	r26, 0x0f	; 15
    18d0:	1c 92       	st	X, r1
				step_m12 = 3;
    18d2:	83 e0       	ldi	r24, 0x03	; 3
    18d4:	84 83       	std	Z+4, r24	; 0x04
    18d6:	11 c0       	rjmp	.+34     	; 0x18fa <_ZN10CargaState3runEv+0x328>
			}
			else if (step_m12 == 3 && status->sw1->getState() == M1_IS_UP) {
    18d8:	93 30       	cpi	r25, 0x03	; 3
    18da:	59 f4       	brne	.+22     	; 0x18f2 <_ZN10CargaState3runEv+0x320>
    18dc:	a2 81       	ldd	r26, Z+2	; 0x02
    18de:	b3 81       	ldd	r27, Z+3	; 0x03
    18e0:	1a 96       	adiw	r26, 0x0a	; 10
    18e2:	0d 90       	ld	r0, X+
    18e4:	bc 91       	ld	r27, X
    18e6:	a0 2d       	mov	r26, r0
		/* 
		 * ==== getState() ====
		 * Devuelve el estado acutal del actuador tras el filtrado.
		 *  - return: [SwState] Estado relativo en el que está el actuador.
		 */
		return currentState;
    18e8:	17 96       	adiw	r26, 0x07	; 7
    18ea:	9c 91       	ld	r25, X
    18ec:	91 30       	cpi	r25, 0x01	; 1
    18ee:	09 f4       	brne	.+2      	; 0x18f2 <_ZN10CargaState3runEv+0x320>
    18f0:	81 e0       	ldi	r24, 0x01	; 1
    18f2:	88 23       	and	r24, r24
    18f4:	11 f0       	breq	.+4      	; 0x18fa <_ZN10CargaState3runEv+0x328>
				step_m12 = 4;
    18f6:	84 e0       	ldi	r24, 0x04	; 4
    18f8:	84 83       	std	Z+4, r24	; 0x04
			}
			
			if (step_m34 == 0 && status->sw4->getState() == M4_IS_OPEN) {
    18fa:	85 81       	ldd	r24, Z+5	; 0x05
    18fc:	81 11       	cpse	r24, r1
    18fe:	0b c0       	rjmp	.+22     	; 0x1916 <_ZN10CargaState3runEv+0x344>
    1900:	a2 81       	ldd	r26, Z+2	; 0x02
    1902:	b3 81       	ldd	r27, Z+3	; 0x03
    1904:	50 96       	adiw	r26, 0x10	; 16
    1906:	0d 90       	ld	r0, X+
    1908:	bc 91       	ld	r27, X
    190a:	a0 2d       	mov	r26, r0
    190c:	17 96       	adiw	r26, 0x07	; 7
    190e:	9c 91       	ld	r25, X
    1910:	91 30       	cpi	r25, 0x01	; 1
    1912:	19 f4       	brne	.+6      	; 0x191a <_ZN10CargaState3runEv+0x348>
    1914:	03 c0       	rjmp	.+6      	; 0x191c <_ZN10CargaState3runEv+0x34a>
    1916:	90 e0       	ldi	r25, 0x00	; 0
    1918:	01 c0       	rjmp	.+2      	; 0x191c <_ZN10CargaState3runEv+0x34a>
    191a:	90 e0       	ldi	r25, 0x00	; 0
    191c:	99 23       	and	r25, r25
    191e:	09 f4       	brne	.+2      	; 0x1922 <_ZN10CargaState3runEv+0x350>
    1920:	60 c0       	rjmp	.+192    	; 0x19e2 <_ZN10CargaState3runEv+0x410>
				status->m3->startMoving(M3_GO_FORWARD, status->current_time);
    1922:	a2 81       	ldd	r26, Z+2	; 0x02
    1924:	b3 81       	ldd	r27, Z+3	; 0x03
    1926:	95 96       	adiw	r26, 0x25	; 37
    1928:	4d 91       	ld	r20, X+
    192a:	5d 91       	ld	r21, X+
    192c:	6d 91       	ld	r22, X+
    192e:	7c 91       	ld	r23, X
    1930:	98 97       	sbiw	r26, 0x28	; 40
    1932:	14 96       	adiw	r26, 0x04	; 4
    1934:	0d 90       	ld	r0, X+
    1936:	bc 91       	ld	r27, X
    1938:	a0 2d       	mov	r26, r0
		 *  - direction: [bool] Dirección de giro.
		 *  - currentTime: [uint32_t] Tiempo actual en ms.
		 */
		bool startFromSide = false;
	
		if (eorSwitch != 0) {
    193a:	1c 96       	adiw	r26, 0x0c	; 12
    193c:	cd 91       	ld	r28, X+
    193e:	dc 91       	ld	r29, X
    1940:	1d 97       	sbiw	r26, 0x0d	; 13
    1942:	20 97       	sbiw	r28, 0x00	; 0
    1944:	99 f0       	breq	.+38     	; 0x196c <_ZN10CargaState3runEv+0x39a>
    1946:	8f 81       	ldd	r24, Y+7	; 0x07
			SwitchMotor::SwState state = eorSwitch->getState();
			
			// No moverse si ya está en posición de destino.
			if ((direction && state == SwitchMotor::SIDE_1) ||
    1948:	81 30       	cpi	r24, 0x01	; 1
    194a:	09 f4       	brne	.+2      	; 0x194e <_ZN10CargaState3runEv+0x37c>
    194c:	47 c0       	rjmp	.+142    	; 0x19dc <_ZN10CargaState3runEv+0x40a>
				(!direction && state == SwitchMotor::SIDE_2)) {
				return;
			}
			if (state != SwitchMotor::MOVING) {
    194e:	81 11       	cpse	r24, r1
    1950:	02 c0       	rjmp	.+4      	; 0x1956 <_ZN10CargaState3runEv+0x384>
		 * ==== startMoving(bool direction, uint32_t currentTime) ====
		 * Ordena el arranque del motor en una dirección determinada.
		 *  - direction: [bool] Dirección de giro.
		 *  - currentTime: [uint32_t] Tiempo actual en ms.
		 */
		bool startFromSide = false;
    1952:	30 e0       	ldi	r19, 0x00	; 0
    1954:	01 c0       	rjmp	.+2      	; 0x1958 <_ZN10CargaState3runEv+0x386>
			if ((direction && state == SwitchMotor::SIDE_1) ||
				(!direction && state == SwitchMotor::SIDE_2)) {
				return;
			}
			if (state != SwitchMotor::MOVING) {
				startFromSide = true;
    1956:	31 e0       	ldi	r19, 0x01	; 1
		/* 
		 * ==== forceState(SwState s) ====
		 * Establece el estado del actuador. Debe ser usado tras la calibración.
		 *  - s: [SwState] Estado actual del actuador.
		 */
		currentState = s;
    1958:	1f 82       	std	Y+7, r1	; 0x07
		flagPressed = false;
    195a:	18 86       	std	Y+8, r1	; 0x08
			}
			
			// Prepara el switch para escuchar la colisión.
			eorSwitch->forceState(SwitchMotor::MOVING);
			eorSwitch->setExpectedDirection(direction);
    195c:	1c 96       	adiw	r26, 0x0c	; 12
    195e:	cd 91       	ld	r28, X+
    1960:	dc 91       	ld	r29, X
    1962:	1d 97       	sbiw	r26, 0x0d	; 13
		/* 
		 * ==== setExpectedDirection(bool direction) ====
		 * Establece la dirección a la que se mueve el motor.
		 *  - direction: [bool] true si la dirección es hacia SIDE_1, false en caso contrario.
		 */
		expectedDirection = direction;
    1964:	81 e0       	ldi	r24, 0x01	; 1
    1966:	89 87       	std	Y+9, r24	; 0x09
		flagPressed = false;
    1968:	18 86       	std	Y+8, r1	; 0x08
    196a:	01 c0       	rjmp	.+2      	; 0x196e <_ZN10CargaState3runEv+0x39c>
		 * ==== startMoving(bool direction, uint32_t currentTime) ====
		 * Ordena el arranque del motor en una dirección determinada.
		 *  - direction: [bool] Dirección de giro.
		 *  - currentTime: [uint32_t] Tiempo actual en ms.
		 */
		bool startFromSide = false;
    196c:	30 e0       	ldi	r19, 0x00	; 0
		/* 
		 * ==== setDirection(bool forward) ====
		 * Establece la dirección de giro del motor.
		 *  - forward: [bool] Dirección de giro.
		 */
		if (forward)	*portDIR |= maskDIR;
    196e:	cd 91       	ld	r28, X+
    1970:	dc 91       	ld	r29, X
    1972:	11 97       	sbiw	r26, 0x01	; 1
    1974:	28 81       	ld	r18, Y
    1976:	14 96       	adiw	r26, 0x04	; 4
    1978:	8c 91       	ld	r24, X
    197a:	14 97       	sbiw	r26, 0x04	; 4
    197c:	82 2b       	or	r24, r18
    197e:	88 83       	st	Y, r24
		/* 
		 * ==== setSpeed(bool speed) ====
		 * Establece la velociad de rotación del motor.
		 *  - speed: [uint8_t] Velocidad (PWM) de rotación.
		 */
		*ocrPWM = speed;
    1980:	1a 96       	adiw	r26, 0x0a	; 10
    1982:	cd 91       	ld	r28, X+
    1984:	dc 91       	ld	r29, X
    1986:	1b 97       	sbiw	r26, 0x0b	; 11
    1988:	8c ec       	ldi	r24, 0xCC	; 204
    198a:	88 83       	st	Y, r24
			eorSwitch->setExpectedDirection(direction);
		}
		
		setDirection(direction);
		setSpeed(204); // 80% PWM
		isMoving = true;
    198c:	81 e0       	ldi	r24, 0x01	; 1
    198e:	1e 96       	adiw	r26, 0x0e	; 14
    1990:	8c 93       	st	X, r24
    1992:	1e 97       	sbiw	r26, 0x0e	; 14
		
		// Si arranca en sensor, activar escape.
		if (startFromSide || (eorSwitch != 0 && eorSwitch->isPressed())) {	
    1994:	31 11       	cpse	r19, r1
    1996:	13 c0       	rjmp	.+38     	; 0x19be <_ZN10CargaState3runEv+0x3ec>
    1998:	1c 96       	adiw	r26, 0x0c	; 12
    199a:	ed 90       	ld	r14, X+
    199c:	fc 90       	ld	r15, X
    199e:	1d 97       	sbiw	r26, 0x0d	; 13
    19a0:	e1 14       	cp	r14, r1
    19a2:	f1 04       	cpc	r15, r1
    19a4:	59 f0       	breq	.+22     	; 0x19bc <_ZN10CargaState3runEv+0x3ea>
		/* 
		 * ==== isPressed() ====
		 * Devuelve el estado acutal de la seńal del switch.
		 *  - return: [bool] true si el switch está presionado. flase en caso contrario.
		 */
		return !(*pinReg & mask);	// Lógica invertida (Pull-up)
    19a6:	e7 01       	movw	r28, r14
    19a8:	28 81       	ld	r18, Y
    19aa:	39 81       	ldd	r19, Y+1	; 0x01
    19ac:	e9 01       	movw	r28, r18
    19ae:	28 81       	ld	r18, Y
    19b0:	e7 01       	movw	r28, r14
    19b2:	8e 81       	ldd	r24, Y+6	; 0x06
    19b4:	82 23       	and	r24, r18
    19b6:	19 f0       	breq	.+6      	; 0x19be <_ZN10CargaState3runEv+0x3ec>
    19b8:	90 e0       	ldi	r25, 0x00	; 0
    19ba:	01 c0       	rjmp	.+2      	; 0x19be <_ZN10CargaState3runEv+0x3ec>
    19bc:	90 e0       	ldi	r25, 0x00	; 0
    19be:	99 23       	and	r25, r25
    19c0:	59 f0       	breq	.+22     	; 0x19d8 <_ZN10CargaState3runEv+0x406>
			isEscaping = true;
    19c2:	81 e0       	ldi	r24, 0x01	; 1
    19c4:	1f 96       	adiw	r26, 0x0f	; 15
    19c6:	8c 93       	st	X, r24
    19c8:	1f 97       	sbiw	r26, 0x0f	; 15
			escapeStartTimestamp = currentTime;
    19ca:	50 96       	adiw	r26, 0x10	; 16
    19cc:	4d 93       	st	X+, r20
    19ce:	5d 93       	st	X+, r21
    19d0:	6d 93       	st	X+, r22
    19d2:	7c 93       	st	X, r23
    19d4:	53 97       	sbiw	r26, 0x13	; 19
    19d6:	02 c0       	rjmp	.+4      	; 0x19dc <_ZN10CargaState3runEv+0x40a>
		} else {
			isEscaping = false;
    19d8:	1f 96       	adiw	r26, 0x0f	; 15
    19da:	1c 92       	st	X, r1
				step_m34 = 1;
    19dc:	81 e0       	ldi	r24, 0x01	; 1
    19de:	85 83       	std	Z+5, r24	; 0x05
    19e0:	f8 c0       	rjmp	.+496    	; 0x1bd2 <_ZN10CargaState3runEv+0x600>
			}
			else if (step_m34 == 1 && status->sw3->getState() == M3_IS_FORWARD) {
    19e2:	81 30       	cpi	r24, 0x01	; 1
    19e4:	59 f4       	brne	.+22     	; 0x19fc <_ZN10CargaState3runEv+0x42a>
    19e6:	a2 81       	ldd	r26, Z+2	; 0x02
    19e8:	b3 81       	ldd	r27, Z+3	; 0x03
    19ea:	1e 96       	adiw	r26, 0x0e	; 14
    19ec:	0d 90       	ld	r0, X+
    19ee:	bc 91       	ld	r27, X
    19f0:	a0 2d       	mov	r26, r0
		/* 
		 * ==== getState() ====
		 * Devuelve el estado acutal del actuador tras el filtrado.
		 *  - return: [SwState] Estado relativo en el que está el actuador.
		 */
		return currentState;
    19f2:	17 96       	adiw	r26, 0x07	; 7
    19f4:	2c 91       	ld	r18, X
    19f6:	21 30       	cpi	r18, 0x01	; 1
    19f8:	19 f4       	brne	.+6      	; 0x1a00 <_ZN10CargaState3runEv+0x42e>
    19fa:	03 c0       	rjmp	.+6      	; 0x1a02 <_ZN10CargaState3runEv+0x430>
    19fc:	29 2f       	mov	r18, r25
    19fe:	01 c0       	rjmp	.+2      	; 0x1a02 <_ZN10CargaState3runEv+0x430>
    1a00:	29 2f       	mov	r18, r25
    1a02:	22 23       	and	r18, r18
    1a04:	09 f4       	brne	.+2      	; 0x1a08 <_ZN10CargaState3runEv+0x436>
    1a06:	60 c0       	rjmp	.+192    	; 0x1ac8 <_ZN10CargaState3runEv+0x4f6>
				status->m4->startMoving(M4_GO_CLOSE, status->current_time);
    1a08:	a2 81       	ldd	r26, Z+2	; 0x02
    1a0a:	b3 81       	ldd	r27, Z+3	; 0x03
    1a0c:	95 96       	adiw	r26, 0x25	; 37
    1a0e:	4d 91       	ld	r20, X+
    1a10:	5d 91       	ld	r21, X+
    1a12:	6d 91       	ld	r22, X+
    1a14:	7c 91       	ld	r23, X
    1a16:	98 97       	sbiw	r26, 0x28	; 40
    1a18:	16 96       	adiw	r26, 0x06	; 6
    1a1a:	0d 90       	ld	r0, X+
    1a1c:	bc 91       	ld	r27, X
    1a1e:	a0 2d       	mov	r26, r0
		 *  - direction: [bool] Dirección de giro.
		 *  - currentTime: [uint32_t] Tiempo actual en ms.
		 */
		bool startFromSide = false;
	
		if (eorSwitch != 0) {
    1a20:	1c 96       	adiw	r26, 0x0c	; 12
    1a22:	cd 91       	ld	r28, X+
    1a24:	dc 91       	ld	r29, X
    1a26:	1d 97       	sbiw	r26, 0x0d	; 13
    1a28:	20 97       	sbiw	r28, 0x00	; 0
    1a2a:	91 f0       	breq	.+36     	; 0x1a50 <_ZN10CargaState3runEv+0x47e>
    1a2c:	8f 81       	ldd	r24, Y+7	; 0x07
			SwitchMotor::SwState state = eorSwitch->getState();
			
			// No moverse si ya está en posición de destino.
			if ((direction && state == SwitchMotor::SIDE_1) ||
				(!direction && state == SwitchMotor::SIDE_2)) {
    1a2e:	82 30       	cpi	r24, 0x02	; 2
    1a30:	09 f4       	brne	.+2      	; 0x1a34 <_ZN10CargaState3runEv+0x462>
    1a32:	47 c0       	rjmp	.+142    	; 0x1ac2 <_ZN10CargaState3runEv+0x4f0>
				return;
			}
			if (state != SwitchMotor::MOVING) {
    1a34:	81 11       	cpse	r24, r1
    1a36:	02 c0       	rjmp	.+4      	; 0x1a3c <_ZN10CargaState3runEv+0x46a>
		 * ==== startMoving(bool direction, uint32_t currentTime) ====
		 * Ordena el arranque del motor en una dirección determinada.
		 *  - direction: [bool] Dirección de giro.
		 *  - currentTime: [uint32_t] Tiempo actual en ms.
		 */
		bool startFromSide = false;
    1a38:	10 e0       	ldi	r17, 0x00	; 0
    1a3a:	01 c0       	rjmp	.+2      	; 0x1a3e <_ZN10CargaState3runEv+0x46c>
			if ((direction && state == SwitchMotor::SIDE_1) ||
				(!direction && state == SwitchMotor::SIDE_2)) {
				return;
			}
			if (state != SwitchMotor::MOVING) {
				startFromSide = true;
    1a3c:	11 e0       	ldi	r17, 0x01	; 1
		/* 
		 * ==== forceState(SwState s) ====
		 * Establece el estado del actuador. Debe ser usado tras la calibración.
		 *  - s: [SwState] Estado actual del actuador.
		 */
		currentState = s;
    1a3e:	1f 82       	std	Y+7, r1	; 0x07
		flagPressed = false;
    1a40:	18 86       	std	Y+8, r1	; 0x08
			}
			
			// Prepara el switch para escuchar la colisión.
			eorSwitch->forceState(SwitchMotor::MOVING);
			eorSwitch->setExpectedDirection(direction);
    1a42:	1c 96       	adiw	r26, 0x0c	; 12
    1a44:	cd 91       	ld	r28, X+
    1a46:	dc 91       	ld	r29, X
    1a48:	1d 97       	sbiw	r26, 0x0d	; 13
		/* 
		 * ==== setExpectedDirection(bool direction) ====
		 * Establece la dirección a la que se mueve el motor.
		 *  - direction: [bool] true si la dirección es hacia SIDE_1, false en caso contrario.
		 */
		expectedDirection = direction;
    1a4a:	19 86       	std	Y+9, r1	; 0x09
		flagPressed = false;
    1a4c:	18 86       	std	Y+8, r1	; 0x08
    1a4e:	01 c0       	rjmp	.+2      	; 0x1a52 <_ZN10CargaState3runEv+0x480>
		 * ==== startMoving(bool direction, uint32_t currentTime) ====
		 * Ordena el arranque del motor en una dirección determinada.
		 *  - direction: [bool] Dirección de giro.
		 *  - currentTime: [uint32_t] Tiempo actual en ms.
		 */
		bool startFromSide = false;
    1a50:	10 e0       	ldi	r17, 0x00	; 0
		 * ==== setDirection(bool forward) ====
		 * Establece la dirección de giro del motor.
		 *  - forward: [bool] Dirección de giro.
		 */
		if (forward)	*portDIR |= maskDIR;
		else			*portDIR &= ~maskDIR;
    1a52:	cd 91       	ld	r28, X+
    1a54:	dc 91       	ld	r29, X
    1a56:	11 97       	sbiw	r26, 0x01	; 1
    1a58:	38 81       	ld	r19, Y
    1a5a:	14 96       	adiw	r26, 0x04	; 4
    1a5c:	8c 91       	ld	r24, X
    1a5e:	14 97       	sbiw	r26, 0x04	; 4
    1a60:	80 95       	com	r24
    1a62:	83 23       	and	r24, r19
    1a64:	88 83       	st	Y, r24
		/* 
		 * ==== setSpeed(bool speed) ====
		 * Establece la velociad de rotación del motor.
		 *  - speed: [uint8_t] Velocidad (PWM) de rotación.
		 */
		*ocrPWM = speed;
    1a66:	1a 96       	adiw	r26, 0x0a	; 10
    1a68:	cd 91       	ld	r28, X+
    1a6a:	dc 91       	ld	r29, X
    1a6c:	1b 97       	sbiw	r26, 0x0b	; 11
    1a6e:	8c ec       	ldi	r24, 0xCC	; 204
    1a70:	88 83       	st	Y, r24
			eorSwitch->setExpectedDirection(direction);
		}
		
		setDirection(direction);
		setSpeed(204); // 80% PWM
		isMoving = true;
    1a72:	81 e0       	ldi	r24, 0x01	; 1
    1a74:	1e 96       	adiw	r26, 0x0e	; 14
    1a76:	8c 93       	st	X, r24
    1a78:	1e 97       	sbiw	r26, 0x0e	; 14
		
		// Si arranca en sensor, activar escape.
		if (startFromSide || (eorSwitch != 0 && eorSwitch->isPressed())) {	
    1a7a:	11 11       	cpse	r17, r1
    1a7c:	13 c0       	rjmp	.+38     	; 0x1aa4 <_ZN10CargaState3runEv+0x4d2>
    1a7e:	1c 96       	adiw	r26, 0x0c	; 12
    1a80:	cd 90       	ld	r12, X+
    1a82:	dc 90       	ld	r13, X
    1a84:	1d 97       	sbiw	r26, 0x0d	; 13
    1a86:	c1 14       	cp	r12, r1
    1a88:	d1 04       	cpc	r13, r1
    1a8a:	59 f0       	breq	.+22     	; 0x1aa2 <_ZN10CargaState3runEv+0x4d0>
		/* 
		 * ==== isPressed() ====
		 * Devuelve el estado acutal de la seńal del switch.
		 *  - return: [bool] true si el switch está presionado. flase en caso contrario.
		 */
		return !(*pinReg & mask);	// Lógica invertida (Pull-up)
    1a8c:	e6 01       	movw	r28, r12
    1a8e:	e8 80       	ld	r14, Y
    1a90:	f9 80       	ldd	r15, Y+1	; 0x01
    1a92:	e7 01       	movw	r28, r14
    1a94:	38 81       	ld	r19, Y
    1a96:	e6 01       	movw	r28, r12
    1a98:	8e 81       	ldd	r24, Y+6	; 0x06
    1a9a:	83 23       	and	r24, r19
    1a9c:	19 f0       	breq	.+6      	; 0x1aa4 <_ZN10CargaState3runEv+0x4d2>
    1a9e:	29 2f       	mov	r18, r25
    1aa0:	01 c0       	rjmp	.+2      	; 0x1aa4 <_ZN10CargaState3runEv+0x4d2>
    1aa2:	29 2f       	mov	r18, r25
    1aa4:	22 23       	and	r18, r18
    1aa6:	59 f0       	breq	.+22     	; 0x1abe <_ZN10CargaState3runEv+0x4ec>
			isEscaping = true;
    1aa8:	81 e0       	ldi	r24, 0x01	; 1
    1aaa:	1f 96       	adiw	r26, 0x0f	; 15
    1aac:	8c 93       	st	X, r24
    1aae:	1f 97       	sbiw	r26, 0x0f	; 15
			escapeStartTimestamp = currentTime;
    1ab0:	50 96       	adiw	r26, 0x10	; 16
    1ab2:	4d 93       	st	X+, r20
    1ab4:	5d 93       	st	X+, r21
    1ab6:	6d 93       	st	X+, r22
    1ab8:	7c 93       	st	X, r23
    1aba:	53 97       	sbiw	r26, 0x13	; 19
    1abc:	02 c0       	rjmp	.+4      	; 0x1ac2 <_ZN10CargaState3runEv+0x4f0>
		} else {
			isEscaping = false;
    1abe:	1f 96       	adiw	r26, 0x0f	; 15
    1ac0:	1c 92       	st	X, r1
				step_m34 = 2;
    1ac2:	82 e0       	ldi	r24, 0x02	; 2
    1ac4:	85 83       	std	Z+5, r24	; 0x05
    1ac6:	85 c0       	rjmp	.+266    	; 0x1bd2 <_ZN10CargaState3runEv+0x600>
			}
			else if (step_m34 == 2 && status->sw4->getState() == M4_IS_CLOSE) {
    1ac8:	82 30       	cpi	r24, 0x02	; 2
    1aca:	61 f4       	brne	.+24     	; 0x1ae4 <_ZN10CargaState3runEv+0x512>
    1acc:	a2 81       	ldd	r26, Z+2	; 0x02
    1ace:	b3 81       	ldd	r27, Z+3	; 0x03
    1ad0:	50 96       	adiw	r26, 0x10	; 16
    1ad2:	0d 90       	ld	r0, X+
    1ad4:	bc 91       	ld	r27, X
    1ad6:	a0 2d       	mov	r26, r0
		/* 
		 * ==== getState() ====
		 * Devuelve el estado acutal del actuador tras el filtrado.
		 *  - return: [SwState] Estado relativo en el que está el actuador.
		 */
		return currentState;
    1ad8:	17 96       	adiw	r26, 0x07	; 7
    1ada:	9c 91       	ld	r25, X
    1adc:	92 30       	cpi	r25, 0x02	; 2
    1ade:	21 f4       	brne	.+8      	; 0x1ae8 <_ZN10CargaState3runEv+0x516>
    1ae0:	91 e0       	ldi	r25, 0x01	; 1
    1ae2:	03 c0       	rjmp	.+6      	; 0x1aea <_ZN10CargaState3runEv+0x518>
    1ae4:	92 2f       	mov	r25, r18
    1ae6:	01 c0       	rjmp	.+2      	; 0x1aea <_ZN10CargaState3runEv+0x518>
    1ae8:	92 2f       	mov	r25, r18
    1aea:	99 23       	and	r25, r25
    1aec:	09 f4       	brne	.+2      	; 0x1af0 <_ZN10CargaState3runEv+0x51e>
    1aee:	60 c0       	rjmp	.+192    	; 0x1bb0 <_ZN10CargaState3runEv+0x5de>
				status->m3->startMoving(M3_GO_BACKWARD, status->current_time);
    1af0:	a2 81       	ldd	r26, Z+2	; 0x02
    1af2:	b3 81       	ldd	r27, Z+3	; 0x03
    1af4:	95 96       	adiw	r26, 0x25	; 37
    1af6:	4d 91       	ld	r20, X+
    1af8:	5d 91       	ld	r21, X+
    1afa:	6d 91       	ld	r22, X+
    1afc:	7c 91       	ld	r23, X
    1afe:	98 97       	sbiw	r26, 0x28	; 40
    1b00:	14 96       	adiw	r26, 0x04	; 4
    1b02:	0d 90       	ld	r0, X+
    1b04:	bc 91       	ld	r27, X
    1b06:	a0 2d       	mov	r26, r0
		 *  - direction: [bool] Dirección de giro.
		 *  - currentTime: [uint32_t] Tiempo actual en ms.
		 */
		bool startFromSide = false;
	
		if (eorSwitch != 0) {
    1b08:	1c 96       	adiw	r26, 0x0c	; 12
    1b0a:	cd 91       	ld	r28, X+
    1b0c:	dc 91       	ld	r29, X
    1b0e:	1d 97       	sbiw	r26, 0x0d	; 13
    1b10:	20 97       	sbiw	r28, 0x00	; 0
    1b12:	91 f0       	breq	.+36     	; 0x1b38 <_ZN10CargaState3runEv+0x566>
    1b14:	8f 81       	ldd	r24, Y+7	; 0x07
			SwitchMotor::SwState state = eorSwitch->getState();
			
			// No moverse si ya está en posición de destino.
			if ((direction && state == SwitchMotor::SIDE_1) ||
				(!direction && state == SwitchMotor::SIDE_2)) {
    1b16:	82 30       	cpi	r24, 0x02	; 2
    1b18:	09 f4       	brne	.+2      	; 0x1b1c <_ZN10CargaState3runEv+0x54a>
    1b1a:	47 c0       	rjmp	.+142    	; 0x1baa <_ZN10CargaState3runEv+0x5d8>
				return;
			}
			if (state != SwitchMotor::MOVING) {
    1b1c:	81 11       	cpse	r24, r1
    1b1e:	02 c0       	rjmp	.+4      	; 0x1b24 <_ZN10CargaState3runEv+0x552>
		 * ==== startMoving(bool direction, uint32_t currentTime) ====
		 * Ordena el arranque del motor en una dirección determinada.
		 *  - direction: [bool] Dirección de giro.
		 *  - currentTime: [uint32_t] Tiempo actual en ms.
		 */
		bool startFromSide = false;
    1b20:	10 e0       	ldi	r17, 0x00	; 0
    1b22:	01 c0       	rjmp	.+2      	; 0x1b26 <_ZN10CargaState3runEv+0x554>
			if ((direction && state == SwitchMotor::SIDE_1) ||
				(!direction && state == SwitchMotor::SIDE_2)) {
				return;
			}
			if (state != SwitchMotor::MOVING) {
				startFromSide = true;
    1b24:	11 e0       	ldi	r17, 0x01	; 1
		/* 
		 * ==== forceState(SwState s) ====
		 * Establece el estado del actuador. Debe ser usado tras la calibración.
		 *  - s: [SwState] Estado actual del actuador.
		 */
		currentState = s;
    1b26:	1f 82       	std	Y+7, r1	; 0x07
		flagPressed = false;
    1b28:	18 86       	std	Y+8, r1	; 0x08
			}
			
			// Prepara el switch para escuchar la colisión.
			eorSwitch->forceState(SwitchMotor::MOVING);
			eorSwitch->setExpectedDirection(direction);
    1b2a:	1c 96       	adiw	r26, 0x0c	; 12
    1b2c:	cd 91       	ld	r28, X+
    1b2e:	dc 91       	ld	r29, X
    1b30:	1d 97       	sbiw	r26, 0x0d	; 13
		/* 
		 * ==== setExpectedDirection(bool direction) ====
		 * Establece la dirección a la que se mueve el motor.
		 *  - direction: [bool] true si la dirección es hacia SIDE_1, false en caso contrario.
		 */
		expectedDirection = direction;
    1b32:	19 86       	std	Y+9, r1	; 0x09
		flagPressed = false;
    1b34:	18 86       	std	Y+8, r1	; 0x08
    1b36:	01 c0       	rjmp	.+2      	; 0x1b3a <_ZN10CargaState3runEv+0x568>
		 * ==== startMoving(bool direction, uint32_t currentTime) ====
		 * Ordena el arranque del motor en una dirección determinada.
		 *  - direction: [bool] Dirección de giro.
		 *  - currentTime: [uint32_t] Tiempo actual en ms.
		 */
		bool startFromSide = false;
    1b38:	10 e0       	ldi	r17, 0x00	; 0
		 * ==== setDirection(bool forward) ====
		 * Establece la dirección de giro del motor.
		 *  - forward: [bool] Dirección de giro.
		 */
		if (forward)	*portDIR |= maskDIR;
		else			*portDIR &= ~maskDIR;
    1b3a:	cd 91       	ld	r28, X+
    1b3c:	dc 91       	ld	r29, X
    1b3e:	11 97       	sbiw	r26, 0x01	; 1
    1b40:	38 81       	ld	r19, Y
    1b42:	14 96       	adiw	r26, 0x04	; 4
    1b44:	8c 91       	ld	r24, X
    1b46:	14 97       	sbiw	r26, 0x04	; 4
    1b48:	80 95       	com	r24
    1b4a:	83 23       	and	r24, r19
    1b4c:	88 83       	st	Y, r24
		/* 
		 * ==== setSpeed(bool speed) ====
		 * Establece la velociad de rotación del motor.
		 *  - speed: [uint8_t] Velocidad (PWM) de rotación.
		 */
		*ocrPWM = speed;
    1b4e:	1a 96       	adiw	r26, 0x0a	; 10
    1b50:	cd 91       	ld	r28, X+
    1b52:	dc 91       	ld	r29, X
    1b54:	1b 97       	sbiw	r26, 0x0b	; 11
    1b56:	8c ec       	ldi	r24, 0xCC	; 204
    1b58:	88 83       	st	Y, r24
			eorSwitch->setExpectedDirection(direction);
		}
		
		setDirection(direction);
		setSpeed(204); // 80% PWM
		isMoving = true;
    1b5a:	81 e0       	ldi	r24, 0x01	; 1
    1b5c:	1e 96       	adiw	r26, 0x0e	; 14
    1b5e:	8c 93       	st	X, r24
    1b60:	1e 97       	sbiw	r26, 0x0e	; 14
		
		// Si arranca en sensor, activar escape.
		if (startFromSide || (eorSwitch != 0 && eorSwitch->isPressed())) {	
    1b62:	11 11       	cpse	r17, r1
    1b64:	13 c0       	rjmp	.+38     	; 0x1b8c <_ZN10CargaState3runEv+0x5ba>
    1b66:	1c 96       	adiw	r26, 0x0c	; 12
    1b68:	cd 90       	ld	r12, X+
    1b6a:	dc 90       	ld	r13, X
    1b6c:	1d 97       	sbiw	r26, 0x0d	; 13
    1b6e:	c1 14       	cp	r12, r1
    1b70:	d1 04       	cpc	r13, r1
    1b72:	59 f0       	breq	.+22     	; 0x1b8a <_ZN10CargaState3runEv+0x5b8>
		/* 
		 * ==== isPressed() ====
		 * Devuelve el estado acutal de la seńal del switch.
		 *  - return: [bool] true si el switch está presionado. flase en caso contrario.
		 */
		return !(*pinReg & mask);	// Lógica invertida (Pull-up)
    1b74:	e6 01       	movw	r28, r12
    1b76:	e8 80       	ld	r14, Y
    1b78:	f9 80       	ldd	r15, Y+1	; 0x01
    1b7a:	e7 01       	movw	r28, r14
    1b7c:	38 81       	ld	r19, Y
    1b7e:	e6 01       	movw	r28, r12
    1b80:	8e 81       	ldd	r24, Y+6	; 0x06
    1b82:	83 23       	and	r24, r19
    1b84:	19 f0       	breq	.+6      	; 0x1b8c <_ZN10CargaState3runEv+0x5ba>
    1b86:	92 2f       	mov	r25, r18
    1b88:	01 c0       	rjmp	.+2      	; 0x1b8c <_ZN10CargaState3runEv+0x5ba>
    1b8a:	92 2f       	mov	r25, r18
    1b8c:	99 23       	and	r25, r25
    1b8e:	59 f0       	breq	.+22     	; 0x1ba6 <_ZN10CargaState3runEv+0x5d4>
			isEscaping = true;
    1b90:	81 e0       	ldi	r24, 0x01	; 1
    1b92:	1f 96       	adiw	r26, 0x0f	; 15
    1b94:	8c 93       	st	X, r24
    1b96:	1f 97       	sbiw	r26, 0x0f	; 15
			escapeStartTimestamp = currentTime;
    1b98:	50 96       	adiw	r26, 0x10	; 16
    1b9a:	4d 93       	st	X+, r20
    1b9c:	5d 93       	st	X+, r21
    1b9e:	6d 93       	st	X+, r22
    1ba0:	7c 93       	st	X, r23
    1ba2:	53 97       	sbiw	r26, 0x13	; 19
    1ba4:	02 c0       	rjmp	.+4      	; 0x1baa <_ZN10CargaState3runEv+0x5d8>
		} else {
			isEscaping = false;
    1ba6:	1f 96       	adiw	r26, 0x0f	; 15
    1ba8:	1c 92       	st	X, r1
				step_m34 = 3;
    1baa:	83 e0       	ldi	r24, 0x03	; 3
    1bac:	85 83       	std	Z+5, r24	; 0x05
    1bae:	11 c0       	rjmp	.+34     	; 0x1bd2 <_ZN10CargaState3runEv+0x600>
			}
			else if (step_m34 == 3 && status->sw3->getState() == M3_IS_BACKWARD) {
    1bb0:	83 30       	cpi	r24, 0x03	; 3
    1bb2:	59 f4       	brne	.+22     	; 0x1bca <_ZN10CargaState3runEv+0x5f8>
    1bb4:	a2 81       	ldd	r26, Z+2	; 0x02
    1bb6:	b3 81       	ldd	r27, Z+3	; 0x03
    1bb8:	1e 96       	adiw	r26, 0x0e	; 14
    1bba:	0d 90       	ld	r0, X+
    1bbc:	bc 91       	ld	r27, X
    1bbe:	a0 2d       	mov	r26, r0
		/* 
		 * ==== getState() ====
		 * Devuelve el estado acutal del actuador tras el filtrado.
		 *  - return: [SwState] Estado relativo en el que está el actuador.
		 */
		return currentState;
    1bc0:	17 96       	adiw	r26, 0x07	; 7
    1bc2:	8c 91       	ld	r24, X
    1bc4:	82 30       	cpi	r24, 0x02	; 2
    1bc6:	09 f4       	brne	.+2      	; 0x1bca <_ZN10CargaState3runEv+0x5f8>
    1bc8:	91 e0       	ldi	r25, 0x01	; 1
    1bca:	99 23       	and	r25, r25
    1bcc:	11 f0       	breq	.+4      	; 0x1bd2 <_ZN10CargaState3runEv+0x600>
				step_m34 = 4;
    1bce:	84 e0       	ldi	r24, 0x04	; 4
    1bd0:	85 83       	std	Z+5, r24	; 0x05
			}
		}
    1bd2:	df 91       	pop	r29
    1bd4:	cf 91       	pop	r28
    1bd6:	1f 91       	pop	r17
    1bd8:	0f 91       	pop	r16
    1bda:	ff 90       	pop	r15
    1bdc:	ef 90       	pop	r14
    1bde:	df 90       	pop	r13
    1be0:	cf 90       	pop	r12
    1be2:	08 95       	ret

00001be4 <_ZN12DisparoState3runEv>:
		m2_finished = false;
		
		status->m4->startMoving(M4_GO_OPEN, status->current_time);
	}

	void run() override {
    1be4:	ef 92       	push	r14
    1be6:	ff 92       	push	r15
    1be8:	0f 93       	push	r16
    1bea:	1f 93       	push	r17
    1bec:	cf 93       	push	r28
    1bee:	df 93       	push	r29
    1bf0:	fc 01       	movw	r30, r24
		if (step_m34 == 0 && status->sw4->getState() == M4_IS_OPEN) {
    1bf2:	80 85       	ldd	r24, Z+8	; 0x08
    1bf4:	81 11       	cpse	r24, r1
    1bf6:	0b c0       	rjmp	.+22     	; 0x1c0e <_ZN12DisparoState3runEv+0x2a>
    1bf8:	a2 81       	ldd	r26, Z+2	; 0x02
    1bfa:	b3 81       	ldd	r27, Z+3	; 0x03
    1bfc:	50 96       	adiw	r26, 0x10	; 16
    1bfe:	0d 90       	ld	r0, X+
    1c00:	bc 91       	ld	r27, X
    1c02:	a0 2d       	mov	r26, r0
    1c04:	17 96       	adiw	r26, 0x07	; 7
    1c06:	8c 91       	ld	r24, X
    1c08:	81 30       	cpi	r24, 0x01	; 1
    1c0a:	19 f4       	brne	.+6      	; 0x1c12 <_ZN12DisparoState3runEv+0x2e>
    1c0c:	03 c0       	rjmp	.+6      	; 0x1c14 <_ZN12DisparoState3runEv+0x30>
    1c0e:	80 e0       	ldi	r24, 0x00	; 0
    1c10:	01 c0       	rjmp	.+2      	; 0x1c14 <_ZN12DisparoState3runEv+0x30>
    1c12:	80 e0       	ldi	r24, 0x00	; 0
    1c14:	88 23       	and	r24, r24
    1c16:	09 f4       	brne	.+2      	; 0x1c1a <_ZN12DisparoState3runEv+0x36>
    1c18:	c9 c0       	rjmp	.+402    	; 0x1dac <_ZN12DisparoState3runEv+0x1c8>
			status->m2->startMoving(M2_GO_RIGHT, status->current_time);
    1c1a:	a2 81       	ldd	r26, Z+2	; 0x02
    1c1c:	b3 81       	ldd	r27, Z+3	; 0x03
    1c1e:	95 96       	adiw	r26, 0x25	; 37
    1c20:	4d 91       	ld	r20, X+
    1c22:	5d 91       	ld	r21, X+
    1c24:	6d 91       	ld	r22, X+
    1c26:	7c 91       	ld	r23, X
    1c28:	98 97       	sbiw	r26, 0x28	; 40
    1c2a:	12 96       	adiw	r26, 0x02	; 2
    1c2c:	0d 90       	ld	r0, X+
    1c2e:	bc 91       	ld	r27, X
    1c30:	a0 2d       	mov	r26, r0
		 *  - direction: [bool] Dirección de giro.
		 *  - currentTime: [uint32_t] Tiempo actual en ms.
		 */
		bool startFromSide = false;
	
		if (eorSwitch != 0) {
    1c32:	1c 96       	adiw	r26, 0x0c	; 12
    1c34:	cd 91       	ld	r28, X+
    1c36:	dc 91       	ld	r29, X
    1c38:	1d 97       	sbiw	r26, 0x0d	; 13
    1c3a:	20 97       	sbiw	r28, 0x00	; 0
    1c3c:	d9 f0       	breq	.+54     	; 0x1c74 <_ZN12DisparoState3runEv+0x90>
		/* 
		 * ==== getState() ====
		 * Devuelve el estado acutal del actuador tras el filtrado.
		 *  - return: [SwState] Estado relativo en el que está el actuador.
		 */
		return currentState;
    1c3e:	9f 81       	ldd	r25, Y+7	; 0x07
			SwitchMotor2::SwState state = eorSwitch->getState();
			
			// No moverse si ya está en posición de destino (extremos).
			if ((direction && state == SwitchMotor2::SIDE_1) ||
				(!direction && state == SwitchMotor2::SIDE_2)) {
    1c40:	92 30       	cpi	r25, 0x02	; 2
    1c42:	09 f4       	brne	.+2      	; 0x1c46 <_ZN12DisparoState3runEv+0x62>
    1c44:	54 c0       	rjmp	.+168    	; 0x1cee <_ZN12DisparoState3runEv+0x10a>
				return;
			}
			if (state != SwitchMotor2::MOVING) {
    1c46:	91 11       	cpse	r25, r1
    1c48:	02 c0       	rjmp	.+4      	; 0x1c4e <_ZN12DisparoState3runEv+0x6a>
		 * ==== startMoving(bool direction, uint32_t currentTime) ====
		 * Ordena el arranque del motor en una dirección determinada. Parará en la siguiente posición encontrada.
		 *  - direction: [bool] Dirección de giro.
		 *  - currentTime: [uint32_t] Tiempo actual en ms.
		 */
		bool startFromSide = false;
    1c4a:	30 e0       	ldi	r19, 0x00	; 0
    1c4c:	01 c0       	rjmp	.+2      	; 0x1c50 <_ZN12DisparoState3runEv+0x6c>
			if ((direction && state == SwitchMotor2::SIDE_1) ||
				(!direction && state == SwitchMotor2::SIDE_2)) {
				return;
			}
			if (state != SwitchMotor2::MOVING) {
				startFromSide = true;
    1c4e:	31 e0       	ldi	r19, 0x01	; 1
		/* 
		 * ==== setExpectedDirection(bool direction) ====
		 * Establece la dirección y prepara el próximo estado lógico a alcanzar.
		 *  - direction: [bool] true si la dirección es hacia SIDE_1, false en caso contrario.
		 */
		expectedDirection = direction;
    1c50:	1a 86       	std	Y+10, r1	; 0x0a
		flagPressed = false;
    1c52:	19 86       	std	Y+9, r1	; 0x09
		if (direction) { // hacia SIDE_1
			if (currentState == SIDE_2) nextExpectedState = SIDE_MIDDLE;
			else if (currentState == SIDE_MIDDLE) nextExpectedState = SIDE_1;
			else nextExpectedState = SIDE_1;
		} else {
			if (currentState == SIDE_1) nextExpectedState = SIDE_MIDDLE;
    1c54:	9f 81       	ldd	r25, Y+7	; 0x07
    1c56:	91 30       	cpi	r25, 0x01	; 1
    1c58:	19 f4       	brne	.+6      	; 0x1c60 <_ZN12DisparoState3runEv+0x7c>
    1c5a:	93 e0       	ldi	r25, 0x03	; 3
    1c5c:	98 87       	std	Y+8, r25	; 0x08
    1c5e:	08 c0       	rjmp	.+16     	; 0x1c70 <_ZN12DisparoState3runEv+0x8c>
			else if (currentState == SIDE_MIDDLE) nextExpectedState = SIDE_2;
    1c60:	9f 81       	ldd	r25, Y+7	; 0x07
    1c62:	93 30       	cpi	r25, 0x03	; 3
    1c64:	19 f4       	brne	.+6      	; 0x1c6c <_ZN12DisparoState3runEv+0x88>
    1c66:	92 e0       	ldi	r25, 0x02	; 2
    1c68:	98 87       	std	Y+8, r25	; 0x08
    1c6a:	02 c0       	rjmp	.+4      	; 0x1c70 <_ZN12DisparoState3runEv+0x8c>
			else nextExpectedState = SIDE_2;
    1c6c:	92 e0       	ldi	r25, 0x02	; 2
    1c6e:	98 87       	std	Y+8, r25	; 0x08
		}
		
		currentState = MOVING;
    1c70:	1f 82       	std	Y+7, r1	; 0x07
    1c72:	01 c0       	rjmp	.+2      	; 0x1c76 <_ZN12DisparoState3runEv+0x92>
		 * ==== startMoving(bool direction, uint32_t currentTime) ====
		 * Ordena el arranque del motor en una dirección determinada. Parará en la siguiente posición encontrada.
		 *  - direction: [bool] Dirección de giro.
		 *  - currentTime: [uint32_t] Tiempo actual en ms.
		 */
		bool startFromSide = false;
    1c74:	30 e0       	ldi	r19, 0x00	; 0
		 * ==== setDirection(bool forward) ====
		 * Establece la dirección de giro del motor.
		 *  - forward: [bool] Dirección de giro.
		 */
		if (forward)	*portDIR |= maskDIR;
		else			*portDIR &= ~maskDIR;
    1c76:	cd 91       	ld	r28, X+
    1c78:	dc 91       	ld	r29, X
    1c7a:	11 97       	sbiw	r26, 0x01	; 1
    1c7c:	28 81       	ld	r18, Y
    1c7e:	14 96       	adiw	r26, 0x04	; 4
    1c80:	9c 91       	ld	r25, X
    1c82:	14 97       	sbiw	r26, 0x04	; 4
    1c84:	90 95       	com	r25
    1c86:	92 23       	and	r25, r18
    1c88:	98 83       	st	Y, r25
		/* 
		 * ==== setSpeed(bool speed) ====
		 * Establece la velociad de rotación del motor.
		 *  - speed: [uint8_t] Velocidad (PWM) de rotación.
		 */
		*ocrPWM = speed;
    1c8a:	1a 96       	adiw	r26, 0x0a	; 10
    1c8c:	cd 91       	ld	r28, X+
    1c8e:	dc 91       	ld	r29, X
    1c90:	1b 97       	sbiw	r26, 0x0b	; 11
    1c92:	9c ec       	ldi	r25, 0xCC	; 204
    1c94:	98 83       	st	Y, r25
			eorSwitch->setExpectedDirection(direction);
		}
		
		setDirection(direction);
		setSpeed(204); // 80% PWM
		isMoving = true;
    1c96:	91 e0       	ldi	r25, 0x01	; 1
    1c98:	1e 96       	adiw	r26, 0x0e	; 14
    1c9a:	9c 93       	st	X, r25
    1c9c:	1e 97       	sbiw	r26, 0x0e	; 14
		
		// Si arranca en CUALQUIER sensor, activar escape temporal.
		if (startFromSide || (eorSwitch != 0 && eorSwitch->isPressed())) {	
    1c9e:	31 11       	cpse	r19, r1
    1ca0:	12 c0       	rjmp	.+36     	; 0x1cc6 <_ZN12DisparoState3runEv+0xe2>
    1ca2:	1c 96       	adiw	r26, 0x0c	; 12
    1ca4:	0d 91       	ld	r16, X+
    1ca6:	1c 91       	ld	r17, X
    1ca8:	1d 97       	sbiw	r26, 0x0d	; 13
    1caa:	01 15       	cp	r16, r1
    1cac:	11 05       	cpc	r17, r1
    1cae:	69 f0       	breq	.+26     	; 0x1cca <_ZN12DisparoState3runEv+0xe6>
		/* 
		 * ==== isPressed() ====
		 * Devuelve el estado acutal de la seńal del switch.
		 *  - return: [bool] true si el switch está presionado. flase en caso contrario.
		 */
		return !(*pinReg & mask);	// Lógica invertida (Pull-up)
    1cb0:	e8 01       	movw	r28, r16
    1cb2:	28 81       	ld	r18, Y
    1cb4:	39 81       	ldd	r19, Y+1	; 0x01
    1cb6:	e9 01       	movw	r28, r18
    1cb8:	28 81       	ld	r18, Y
    1cba:	e8 01       	movw	r28, r16
    1cbc:	9e 81       	ldd	r25, Y+6	; 0x06
    1cbe:	92 23       	and	r25, r18
    1cc0:	31 f0       	breq	.+12     	; 0x1cce <_ZN12DisparoState3runEv+0xea>
    1cc2:	90 e0       	ldi	r25, 0x00	; 0
    1cc4:	05 c0       	rjmp	.+10     	; 0x1cd0 <_ZN12DisparoState3runEv+0xec>
    1cc6:	98 2f       	mov	r25, r24
    1cc8:	03 c0       	rjmp	.+6      	; 0x1cd0 <_ZN12DisparoState3runEv+0xec>
    1cca:	90 e0       	ldi	r25, 0x00	; 0
    1ccc:	01 c0       	rjmp	.+2      	; 0x1cd0 <_ZN12DisparoState3runEv+0xec>
    1cce:	98 2f       	mov	r25, r24
    1cd0:	99 23       	and	r25, r25
    1cd2:	59 f0       	breq	.+22     	; 0x1cea <_ZN12DisparoState3runEv+0x106>
			isEscaping = true;
    1cd4:	91 e0       	ldi	r25, 0x01	; 1
    1cd6:	1f 96       	adiw	r26, 0x0f	; 15
    1cd8:	9c 93       	st	X, r25
    1cda:	1f 97       	sbiw	r26, 0x0f	; 15
			escapeStartTimestamp = currentTime;
    1cdc:	50 96       	adiw	r26, 0x10	; 16
    1cde:	4d 93       	st	X+, r20
    1ce0:	5d 93       	st	X+, r21
    1ce2:	6d 93       	st	X+, r22
    1ce4:	7c 93       	st	X, r23
    1ce6:	53 97       	sbiw	r26, 0x13	; 19
    1ce8:	02 c0       	rjmp	.+4      	; 0x1cee <_ZN12DisparoState3runEv+0x10a>
		} else {
			isEscaping = false;
    1cea:	1f 96       	adiw	r26, 0x0f	; 15
    1cec:	1c 92       	st	X, r1
			status->m3->startMoving(M3_GO_FORWARD, status->current_time);
    1cee:	a2 81       	ldd	r26, Z+2	; 0x02
    1cf0:	b3 81       	ldd	r27, Z+3	; 0x03
    1cf2:	95 96       	adiw	r26, 0x25	; 37
    1cf4:	4d 91       	ld	r20, X+
    1cf6:	5d 91       	ld	r21, X+
    1cf8:	6d 91       	ld	r22, X+
    1cfa:	7c 91       	ld	r23, X
    1cfc:	98 97       	sbiw	r26, 0x28	; 40
    1cfe:	14 96       	adiw	r26, 0x04	; 4
    1d00:	0d 90       	ld	r0, X+
    1d02:	bc 91       	ld	r27, X
    1d04:	a0 2d       	mov	r26, r0
		 *  - direction: [bool] Dirección de giro.
		 *  - currentTime: [uint32_t] Tiempo actual en ms.
		 */
		bool startFromSide = false;
	
		if (eorSwitch != 0) {
    1d06:	1c 96       	adiw	r26, 0x0c	; 12
    1d08:	cd 91       	ld	r28, X+
    1d0a:	dc 91       	ld	r29, X
    1d0c:	1d 97       	sbiw	r26, 0x0d	; 13
    1d0e:	20 97       	sbiw	r28, 0x00	; 0
    1d10:	99 f0       	breq	.+38     	; 0x1d38 <_ZN12DisparoState3runEv+0x154>
    1d12:	9f 81       	ldd	r25, Y+7	; 0x07
			SwitchMotor::SwState state = eorSwitch->getState();
			
			// No moverse si ya está en posición de destino.
			if ((direction && state == SwitchMotor::SIDE_1) ||
    1d14:	91 30       	cpi	r25, 0x01	; 1
    1d16:	09 f4       	brne	.+2      	; 0x1d1a <_ZN12DisparoState3runEv+0x136>
    1d18:	47 c0       	rjmp	.+142    	; 0x1da8 <_ZN12DisparoState3runEv+0x1c4>
				(!direction && state == SwitchMotor::SIDE_2)) {
				return;
			}
			if (state != SwitchMotor::MOVING) {
    1d1a:	91 11       	cpse	r25, r1
    1d1c:	02 c0       	rjmp	.+4      	; 0x1d22 <_ZN12DisparoState3runEv+0x13e>
		 * ==== startMoving(bool direction, uint32_t currentTime) ====
		 * Ordena el arranque del motor en una dirección determinada.
		 *  - direction: [bool] Dirección de giro.
		 *  - currentTime: [uint32_t] Tiempo actual en ms.
		 */
		bool startFromSide = false;
    1d1e:	30 e0       	ldi	r19, 0x00	; 0
    1d20:	01 c0       	rjmp	.+2      	; 0x1d24 <_ZN12DisparoState3runEv+0x140>
			if ((direction && state == SwitchMotor::SIDE_1) ||
				(!direction && state == SwitchMotor::SIDE_2)) {
				return;
			}
			if (state != SwitchMotor::MOVING) {
				startFromSide = true;
    1d22:	31 e0       	ldi	r19, 0x01	; 1
		/* 
		 * ==== forceState(SwState s) ====
		 * Establece el estado del actuador. Debe ser usado tras la calibración.
		 *  - s: [SwState] Estado actual del actuador.
		 */
		currentState = s;
    1d24:	1f 82       	std	Y+7, r1	; 0x07
		flagPressed = false;
    1d26:	18 86       	std	Y+8, r1	; 0x08
			}
			
			// Prepara el switch para escuchar la colisión.
			eorSwitch->forceState(SwitchMotor::MOVING);
			eorSwitch->setExpectedDirection(direction);
    1d28:	1c 96       	adiw	r26, 0x0c	; 12
    1d2a:	cd 91       	ld	r28, X+
    1d2c:	dc 91       	ld	r29, X
    1d2e:	1d 97       	sbiw	r26, 0x0d	; 13
		/* 
		 * ==== setExpectedDirection(bool direction) ====
		 * Establece la dirección a la que se mueve el motor.
		 *  - direction: [bool] true si la dirección es hacia SIDE_1, false en caso contrario.
		 */
		expectedDirection = direction;
    1d30:	91 e0       	ldi	r25, 0x01	; 1
    1d32:	99 87       	std	Y+9, r25	; 0x09
		flagPressed = false;
    1d34:	18 86       	std	Y+8, r1	; 0x08
    1d36:	01 c0       	rjmp	.+2      	; 0x1d3a <_ZN12DisparoState3runEv+0x156>
		 * ==== startMoving(bool direction, uint32_t currentTime) ====
		 * Ordena el arranque del motor en una dirección determinada.
		 *  - direction: [bool] Dirección de giro.
		 *  - currentTime: [uint32_t] Tiempo actual en ms.
		 */
		bool startFromSide = false;
    1d38:	30 e0       	ldi	r19, 0x00	; 0
		/* 
		 * ==== setDirection(bool forward) ====
		 * Establece la dirección de giro del motor.
		 *  - forward: [bool] Dirección de giro.
		 */
		if (forward)	*portDIR |= maskDIR;
    1d3a:	cd 91       	ld	r28, X+
    1d3c:	dc 91       	ld	r29, X
    1d3e:	11 97       	sbiw	r26, 0x01	; 1
    1d40:	28 81       	ld	r18, Y
    1d42:	14 96       	adiw	r26, 0x04	; 4
    1d44:	9c 91       	ld	r25, X
    1d46:	14 97       	sbiw	r26, 0x04	; 4
    1d48:	92 2b       	or	r25, r18
    1d4a:	98 83       	st	Y, r25
		/* 
		 * ==== setSpeed(bool speed) ====
		 * Establece la velociad de rotación del motor.
		 *  - speed: [uint8_t] Velocidad (PWM) de rotación.
		 */
		*ocrPWM = speed;
    1d4c:	1a 96       	adiw	r26, 0x0a	; 10
    1d4e:	cd 91       	ld	r28, X+
    1d50:	dc 91       	ld	r29, X
    1d52:	1b 97       	sbiw	r26, 0x0b	; 11
    1d54:	9c ec       	ldi	r25, 0xCC	; 204
    1d56:	98 83       	st	Y, r25
			eorSwitch->setExpectedDirection(direction);
		}
		
		setDirection(direction);
		setSpeed(204); // 80% PWM
		isMoving = true;
    1d58:	91 e0       	ldi	r25, 0x01	; 1
    1d5a:	1e 96       	adiw	r26, 0x0e	; 14
    1d5c:	9c 93       	st	X, r25
    1d5e:	1e 97       	sbiw	r26, 0x0e	; 14
		
		// Si arranca en sensor, activar escape.
		if (startFromSide || (eorSwitch != 0 && eorSwitch->isPressed())) {	
    1d60:	31 11       	cpse	r19, r1
    1d62:	13 c0       	rjmp	.+38     	; 0x1d8a <_ZN12DisparoState3runEv+0x1a6>
    1d64:	1c 96       	adiw	r26, 0x0c	; 12
    1d66:	0d 91       	ld	r16, X+
    1d68:	1c 91       	ld	r17, X
    1d6a:	1d 97       	sbiw	r26, 0x0d	; 13
    1d6c:	01 15       	cp	r16, r1
    1d6e:	11 05       	cpc	r17, r1
    1d70:	59 f0       	breq	.+22     	; 0x1d88 <_ZN12DisparoState3runEv+0x1a4>
		/* 
		 * ==== isPressed() ====
		 * Devuelve el estado acutal de la seńal del switch.
		 *  - return: [bool] true si el switch está presionado. flase en caso contrario.
		 */
		return !(*pinReg & mask);	// Lógica invertida (Pull-up)
    1d72:	e8 01       	movw	r28, r16
    1d74:	28 81       	ld	r18, Y
    1d76:	39 81       	ldd	r19, Y+1	; 0x01
    1d78:	e9 01       	movw	r28, r18
    1d7a:	28 81       	ld	r18, Y
    1d7c:	e8 01       	movw	r28, r16
    1d7e:	9e 81       	ldd	r25, Y+6	; 0x06
    1d80:	92 23       	and	r25, r18
    1d82:	19 f0       	breq	.+6      	; 0x1d8a <_ZN12DisparoState3runEv+0x1a6>
    1d84:	80 e0       	ldi	r24, 0x00	; 0
    1d86:	01 c0       	rjmp	.+2      	; 0x1d8a <_ZN12DisparoState3runEv+0x1a6>
    1d88:	80 e0       	ldi	r24, 0x00	; 0
    1d8a:	88 23       	and	r24, r24
    1d8c:	59 f0       	breq	.+22     	; 0x1da4 <_ZN12DisparoState3runEv+0x1c0>
			isEscaping = true;
    1d8e:	81 e0       	ldi	r24, 0x01	; 1
    1d90:	1f 96       	adiw	r26, 0x0f	; 15
    1d92:	8c 93       	st	X, r24
    1d94:	1f 97       	sbiw	r26, 0x0f	; 15
			escapeStartTimestamp = currentTime;
    1d96:	50 96       	adiw	r26, 0x10	; 16
    1d98:	4d 93       	st	X+, r20
    1d9a:	5d 93       	st	X+, r21
    1d9c:	6d 93       	st	X+, r22
    1d9e:	7c 93       	st	X, r23
    1da0:	53 97       	sbiw	r26, 0x13	; 19
    1da2:	02 c0       	rjmp	.+4      	; 0x1da8 <_ZN12DisparoState3runEv+0x1c4>
		} else {
			isEscaping = false;
    1da4:	1f 96       	adiw	r26, 0x0f	; 15
    1da6:	1c 92       	st	X, r1
			step_m34 = 1;
    1da8:	81 e0       	ldi	r24, 0x01	; 1
    1daa:	80 87       	std	Z+8, r24	; 0x08
		}
		
		if (step_m34 >= 1 && !m2_finished) {
    1dac:	80 85       	ldd	r24, Z+8	; 0x08
    1dae:	88 23       	and	r24, r24
    1db0:	09 f4       	brne	.+2      	; 0x1db4 <_ZN12DisparoState3runEv+0x1d0>
    1db2:	79 c0       	rjmp	.+242    	; 0x1ea6 <_ZN12DisparoState3runEv+0x2c2>
    1db4:	81 85       	ldd	r24, Z+9	; 0x09
    1db6:	81 11       	cpse	r24, r1
    1db8:	76 c0       	rjmp	.+236    	; 0x1ea6 <_ZN12DisparoState3runEv+0x2c2>
			if (status->sw2->getState() == M2_IS_RIGHT) {
    1dba:	a2 81       	ldd	r26, Z+2	; 0x02
    1dbc:	b3 81       	ldd	r27, Z+3	; 0x03
    1dbe:	1c 96       	adiw	r26, 0x0c	; 12
    1dc0:	cd 91       	ld	r28, X+
    1dc2:	dc 91       	ld	r29, X
    1dc4:	1d 97       	sbiw	r26, 0x0d	; 13
		/* 
		 * ==== getState() ====
		 * Devuelve el estado acutal del actuador tras el filtrado.
		 *  - return: [SwState] Estado relativo en el que está el actuador.
		 */
		return currentState;
    1dc6:	8f 81       	ldd	r24, Y+7	; 0x07
    1dc8:	82 30       	cpi	r24, 0x02	; 2
    1dca:	19 f4       	brne	.+6      	; 0x1dd2 <_ZN12DisparoState3runEv+0x1ee>
				m2_finished = true;
    1dcc:	81 e0       	ldi	r24, 0x01	; 1
    1dce:	81 87       	std	Z+9, r24	; 0x09
    1dd0:	6a c0       	rjmp	.+212    	; 0x1ea6 <_ZN12DisparoState3runEv+0x2c2>
			}
			else if (!status->m2->getIsMoving()) {
    1dd2:	12 96       	adiw	r26, 0x02	; 2
    1dd4:	cd 91       	ld	r28, X+
    1dd6:	dc 91       	ld	r29, X
    1dd8:	13 97       	sbiw	r26, 0x03	; 3
	bool getIsMoving() {
		/*
		 * ==== getIsMoving() ====
		 * Devuelve si el motor se está moviendo.
		 */
		return isMoving;
    1dda:	8e 85       	ldd	r24, Y+14	; 0x0e
    1ddc:	81 11       	cpse	r24, r1
    1dde:	63 c0       	rjmp	.+198    	; 0x1ea6 <_ZN12DisparoState3runEv+0x2c2>
				status->m2->startMoving(M2_GO_RIGHT, status->current_time);
    1de0:	95 96       	adiw	r26, 0x25	; 37
    1de2:	4d 91       	ld	r20, X+
    1de4:	5d 91       	ld	r21, X+
    1de6:	6d 91       	ld	r22, X+
    1de8:	7c 91       	ld	r23, X
    1dea:	98 97       	sbiw	r26, 0x28	; 40
		 *  - direction: [bool] Dirección de giro.
		 *  - currentTime: [uint32_t] Tiempo actual en ms.
		 */
		bool startFromSide = false;
	
		if (eorSwitch != 0) {
    1dec:	ac 85       	ldd	r26, Y+12	; 0x0c
    1dee:	bd 85       	ldd	r27, Y+13	; 0x0d
    1df0:	10 97       	sbiw	r26, 0x00	; 0
    1df2:	61 f1       	breq	.+88     	; 0x1e4c <_ZN12DisparoState3runEv+0x268>
    1df4:	17 96       	adiw	r26, 0x07	; 7
    1df6:	9c 91       	ld	r25, X
    1df8:	17 97       	sbiw	r26, 0x07	; 7
			SwitchMotor2::SwState state = eorSwitch->getState();
			
			// No moverse si ya está en posición de destino (extremos).
			if ((direction && state == SwitchMotor2::SIDE_1) ||
				(!direction && state == SwitchMotor2::SIDE_2)) {
    1dfa:	92 30       	cpi	r25, 0x02	; 2
    1dfc:	09 f4       	brne	.+2      	; 0x1e00 <_ZN12DisparoState3runEv+0x21c>
    1dfe:	53 c0       	rjmp	.+166    	; 0x1ea6 <_ZN12DisparoState3runEv+0x2c2>
				return;
			}
			if (state != SwitchMotor2::MOVING) {
    1e00:	91 11       	cpse	r25, r1
    1e02:	02 c0       	rjmp	.+4      	; 0x1e08 <_ZN12DisparoState3runEv+0x224>
		 * ==== startMoving(bool direction, uint32_t currentTime) ====
		 * Ordena el arranque del motor en una dirección determinada. Parará en la siguiente posición encontrada.
		 *  - direction: [bool] Dirección de giro.
		 *  - currentTime: [uint32_t] Tiempo actual en ms.
		 */
		bool startFromSide = false;
    1e04:	30 e0       	ldi	r19, 0x00	; 0
    1e06:	01 c0       	rjmp	.+2      	; 0x1e0a <_ZN12DisparoState3runEv+0x226>
			if ((direction && state == SwitchMotor2::SIDE_1) ||
				(!direction && state == SwitchMotor2::SIDE_2)) {
				return;
			}
			if (state != SwitchMotor2::MOVING) {
				startFromSide = true;
    1e08:	31 e0       	ldi	r19, 0x01	; 1
		/* 
		 * ==== setExpectedDirection(bool direction) ====
		 * Establece la dirección y prepara el próximo estado lógico a alcanzar.
		 *  - direction: [bool] true si la dirección es hacia SIDE_1, false en caso contrario.
		 */
		expectedDirection = direction;
    1e0a:	1a 96       	adiw	r26, 0x0a	; 10
    1e0c:	1c 92       	st	X, r1
    1e0e:	1a 97       	sbiw	r26, 0x0a	; 10
		flagPressed = false;
    1e10:	19 96       	adiw	r26, 0x09	; 9
    1e12:	1c 92       	st	X, r1
    1e14:	19 97       	sbiw	r26, 0x09	; 9
		if (direction) { // hacia SIDE_1
			if (currentState == SIDE_2) nextExpectedState = SIDE_MIDDLE;
			else if (currentState == SIDE_MIDDLE) nextExpectedState = SIDE_1;
			else nextExpectedState = SIDE_1;
		} else {
			if (currentState == SIDE_1) nextExpectedState = SIDE_MIDDLE;
    1e16:	17 96       	adiw	r26, 0x07	; 7
    1e18:	9c 91       	ld	r25, X
    1e1a:	17 97       	sbiw	r26, 0x07	; 7
    1e1c:	91 30       	cpi	r25, 0x01	; 1
    1e1e:	29 f4       	brne	.+10     	; 0x1e2a <_ZN12DisparoState3runEv+0x246>
    1e20:	93 e0       	ldi	r25, 0x03	; 3
    1e22:	18 96       	adiw	r26, 0x08	; 8
    1e24:	9c 93       	st	X, r25
    1e26:	18 97       	sbiw	r26, 0x08	; 8
    1e28:	0e c0       	rjmp	.+28     	; 0x1e46 <_ZN12DisparoState3runEv+0x262>
			else if (currentState == SIDE_MIDDLE) nextExpectedState = SIDE_2;
    1e2a:	17 96       	adiw	r26, 0x07	; 7
    1e2c:	9c 91       	ld	r25, X
    1e2e:	17 97       	sbiw	r26, 0x07	; 7
    1e30:	93 30       	cpi	r25, 0x03	; 3
    1e32:	29 f4       	brne	.+10     	; 0x1e3e <_ZN12DisparoState3runEv+0x25a>
    1e34:	92 e0       	ldi	r25, 0x02	; 2
    1e36:	18 96       	adiw	r26, 0x08	; 8
    1e38:	9c 93       	st	X, r25
    1e3a:	18 97       	sbiw	r26, 0x08	; 8
    1e3c:	04 c0       	rjmp	.+8      	; 0x1e46 <_ZN12DisparoState3runEv+0x262>
			else nextExpectedState = SIDE_2;
    1e3e:	92 e0       	ldi	r25, 0x02	; 2
    1e40:	18 96       	adiw	r26, 0x08	; 8
    1e42:	9c 93       	st	X, r25
    1e44:	18 97       	sbiw	r26, 0x08	; 8
		}
		
		currentState = MOVING;
    1e46:	17 96       	adiw	r26, 0x07	; 7
    1e48:	1c 92       	st	X, r1
    1e4a:	01 c0       	rjmp	.+2      	; 0x1e4e <_ZN12DisparoState3runEv+0x26a>
		 * ==== startMoving(bool direction, uint32_t currentTime) ====
		 * Ordena el arranque del motor en una dirección determinada. Parará en la siguiente posición encontrada.
		 *  - direction: [bool] Dirección de giro.
		 *  - currentTime: [uint32_t] Tiempo actual en ms.
		 */
		bool startFromSide = false;
    1e4c:	30 e0       	ldi	r19, 0x00	; 0
		 * ==== setDirection(bool forward) ====
		 * Establece la dirección de giro del motor.
		 *  - forward: [bool] Dirección de giro.
		 */
		if (forward)	*portDIR |= maskDIR;
		else			*portDIR &= ~maskDIR;
    1e4e:	a8 81       	ld	r26, Y
    1e50:	b9 81       	ldd	r27, Y+1	; 0x01
    1e52:	2c 91       	ld	r18, X
    1e54:	9c 81       	ldd	r25, Y+4	; 0x04
    1e56:	90 95       	com	r25
    1e58:	92 23       	and	r25, r18
    1e5a:	9c 93       	st	X, r25
		/* 
		 * ==== setSpeed(bool speed) ====
		 * Establece la velociad de rotación del motor.
		 *  - speed: [uint8_t] Velocidad (PWM) de rotación.
		 */
		*ocrPWM = speed;
    1e5c:	aa 85       	ldd	r26, Y+10	; 0x0a
    1e5e:	bb 85       	ldd	r27, Y+11	; 0x0b
    1e60:	9c ec       	ldi	r25, 0xCC	; 204
    1e62:	9c 93       	st	X, r25
			eorSwitch->setExpectedDirection(direction);
		}
		
		setDirection(direction);
		setSpeed(204); // 80% PWM
		isMoving = true;
    1e64:	91 e0       	ldi	r25, 0x01	; 1
    1e66:	9e 87       	std	Y+14, r25	; 0x0e
		
		// Si arranca en CUALQUIER sensor, activar escape temporal.
		if (startFromSide || (eorSwitch != 0 && eorSwitch->isPressed())) {	
    1e68:	31 11       	cpse	r19, r1
    1e6a:	10 c0       	rjmp	.+32     	; 0x1e8c <_ZN12DisparoState3runEv+0x2a8>
    1e6c:	0c 85       	ldd	r16, Y+12	; 0x0c
    1e6e:	1d 85       	ldd	r17, Y+13	; 0x0d
    1e70:	01 15       	cp	r16, r1
    1e72:	11 05       	cpc	r17, r1
    1e74:	71 f0       	breq	.+28     	; 0x1e92 <_ZN12DisparoState3runEv+0x2ae>
		/* 
		 * ==== isPressed() ====
		 * Devuelve el estado acutal de la seńal del switch.
		 *  - return: [bool] true si el switch está presionado. flase en caso contrario.
		 */
		return !(*pinReg & mask);	// Lógica invertida (Pull-up)
    1e76:	d8 01       	movw	r26, r16
    1e78:	2d 91       	ld	r18, X+
    1e7a:	3c 91       	ld	r19, X
    1e7c:	d9 01       	movw	r26, r18
    1e7e:	2c 91       	ld	r18, X
    1e80:	d8 01       	movw	r26, r16
    1e82:	16 96       	adiw	r26, 0x06	; 6
    1e84:	9c 91       	ld	r25, X
    1e86:	92 23       	and	r25, r18
    1e88:	19 f0       	breq	.+6      	; 0x1e90 <_ZN12DisparoState3runEv+0x2ac>
    1e8a:	03 c0       	rjmp	.+6      	; 0x1e92 <_ZN12DisparoState3runEv+0x2ae>
    1e8c:	81 e0       	ldi	r24, 0x01	; 1
    1e8e:	01 c0       	rjmp	.+2      	; 0x1e92 <_ZN12DisparoState3runEv+0x2ae>
    1e90:	81 e0       	ldi	r24, 0x01	; 1
    1e92:	88 23       	and	r24, r24
    1e94:	39 f0       	breq	.+14     	; 0x1ea4 <_ZN12DisparoState3runEv+0x2c0>
			isEscaping = true;
    1e96:	81 e0       	ldi	r24, 0x01	; 1
    1e98:	8f 87       	std	Y+15, r24	; 0x0f
			escapeStartTimestamp = currentTime;
    1e9a:	48 8b       	std	Y+16, r20	; 0x10
    1e9c:	59 8b       	std	Y+17, r21	; 0x11
    1e9e:	6a 8b       	std	Y+18, r22	; 0x12
    1ea0:	7b 8b       	std	Y+19, r23	; 0x13
    1ea2:	01 c0       	rjmp	.+2      	; 0x1ea6 <_ZN12DisparoState3runEv+0x2c2>
		} else {
			isEscaping = false;
    1ea4:	1f 86       	std	Y+15, r1	; 0x0f
			}
		}

		if (step_m34 == 1 && status->sw3->getState() == M3_IS_FORWARD) {
    1ea6:	80 85       	ldd	r24, Z+8	; 0x08
    1ea8:	81 30       	cpi	r24, 0x01	; 1
    1eaa:	59 f4       	brne	.+22     	; 0x1ec2 <_ZN12DisparoState3runEv+0x2de>
    1eac:	a2 81       	ldd	r26, Z+2	; 0x02
    1eae:	b3 81       	ldd	r27, Z+3	; 0x03
    1eb0:	1e 96       	adiw	r26, 0x0e	; 14
    1eb2:	0d 90       	ld	r0, X+
    1eb4:	bc 91       	ld	r27, X
    1eb6:	a0 2d       	mov	r26, r0
		/* 
		 * ==== getState() ====
		 * Devuelve el estado acutal del actuador tras el filtrado.
		 *  - return: [SwState] Estado relativo en el que está el actuador.
		 */
		return currentState;
    1eb8:	17 96       	adiw	r26, 0x07	; 7
    1eba:	9c 91       	ld	r25, X
    1ebc:	91 30       	cpi	r25, 0x01	; 1
    1ebe:	19 f4       	brne	.+6      	; 0x1ec6 <_ZN12DisparoState3runEv+0x2e2>
    1ec0:	03 c0       	rjmp	.+6      	; 0x1ec8 <_ZN12DisparoState3runEv+0x2e4>
    1ec2:	90 e0       	ldi	r25, 0x00	; 0
    1ec4:	01 c0       	rjmp	.+2      	; 0x1ec8 <_ZN12DisparoState3runEv+0x2e4>
    1ec6:	90 e0       	ldi	r25, 0x00	; 0
    1ec8:	99 23       	and	r25, r25
    1eca:	09 f4       	brne	.+2      	; 0x1ece <_ZN12DisparoState3runEv+0x2ea>
    1ecc:	60 c0       	rjmp	.+192    	; 0x1f8e <_ZN12DisparoState3runEv+0x3aa>
			status->m4->startMoving(M4_GO_CLOSE, status->current_time);
    1ece:	a2 81       	ldd	r26, Z+2	; 0x02
    1ed0:	b3 81       	ldd	r27, Z+3	; 0x03
    1ed2:	95 96       	adiw	r26, 0x25	; 37
    1ed4:	4d 91       	ld	r20, X+
    1ed6:	5d 91       	ld	r21, X+
    1ed8:	6d 91       	ld	r22, X+
    1eda:	7c 91       	ld	r23, X
    1edc:	98 97       	sbiw	r26, 0x28	; 40
    1ede:	16 96       	adiw	r26, 0x06	; 6
    1ee0:	0d 90       	ld	r0, X+
    1ee2:	bc 91       	ld	r27, X
    1ee4:	a0 2d       	mov	r26, r0
		 *  - direction: [bool] Dirección de giro.
		 *  - currentTime: [uint32_t] Tiempo actual en ms.
		 */
		bool startFromSide = false;
	
		if (eorSwitch != 0) {
    1ee6:	1c 96       	adiw	r26, 0x0c	; 12
    1ee8:	cd 91       	ld	r28, X+
    1eea:	dc 91       	ld	r29, X
    1eec:	1d 97       	sbiw	r26, 0x0d	; 13
    1eee:	20 97       	sbiw	r28, 0x00	; 0
    1ef0:	91 f0       	breq	.+36     	; 0x1f16 <_ZN12DisparoState3runEv+0x332>
    1ef2:	8f 81       	ldd	r24, Y+7	; 0x07
			SwitchMotor::SwState state = eorSwitch->getState();
			
			// No moverse si ya está en posición de destino.
			if ((direction && state == SwitchMotor::SIDE_1) ||
				(!direction && state == SwitchMotor::SIDE_2)) {
    1ef4:	82 30       	cpi	r24, 0x02	; 2
    1ef6:	09 f4       	brne	.+2      	; 0x1efa <_ZN12DisparoState3runEv+0x316>
    1ef8:	47 c0       	rjmp	.+142    	; 0x1f88 <_ZN12DisparoState3runEv+0x3a4>
				return;
			}
			if (state != SwitchMotor::MOVING) {
    1efa:	81 11       	cpse	r24, r1
    1efc:	02 c0       	rjmp	.+4      	; 0x1f02 <_ZN12DisparoState3runEv+0x31e>
		 * ==== startMoving(bool direction, uint32_t currentTime) ====
		 * Ordena el arranque del motor en una dirección determinada.
		 *  - direction: [bool] Dirección de giro.
		 *  - currentTime: [uint32_t] Tiempo actual en ms.
		 */
		bool startFromSide = false;
    1efe:	30 e0       	ldi	r19, 0x00	; 0
    1f00:	01 c0       	rjmp	.+2      	; 0x1f04 <_ZN12DisparoState3runEv+0x320>
			if ((direction && state == SwitchMotor::SIDE_1) ||
				(!direction && state == SwitchMotor::SIDE_2)) {
				return;
			}
			if (state != SwitchMotor::MOVING) {
				startFromSide = true;
    1f02:	31 e0       	ldi	r19, 0x01	; 1
		/* 
		 * ==== forceState(SwState s) ====
		 * Establece el estado del actuador. Debe ser usado tras la calibración.
		 *  - s: [SwState] Estado actual del actuador.
		 */
		currentState = s;
    1f04:	1f 82       	std	Y+7, r1	; 0x07
		flagPressed = false;
    1f06:	18 86       	std	Y+8, r1	; 0x08
			}
			
			// Prepara el switch para escuchar la colisión.
			eorSwitch->forceState(SwitchMotor::MOVING);
			eorSwitch->setExpectedDirection(direction);
    1f08:	1c 96       	adiw	r26, 0x0c	; 12
    1f0a:	cd 91       	ld	r28, X+
    1f0c:	dc 91       	ld	r29, X
    1f0e:	1d 97       	sbiw	r26, 0x0d	; 13
		/* 
		 * ==== setExpectedDirection(bool direction) ====
		 * Establece la dirección a la que se mueve el motor.
		 *  - direction: [bool] true si la dirección es hacia SIDE_1, false en caso contrario.
		 */
		expectedDirection = direction;
    1f10:	19 86       	std	Y+9, r1	; 0x09
		flagPressed = false;
    1f12:	18 86       	std	Y+8, r1	; 0x08
    1f14:	01 c0       	rjmp	.+2      	; 0x1f18 <_ZN12DisparoState3runEv+0x334>
		 * ==== startMoving(bool direction, uint32_t currentTime) ====
		 * Ordena el arranque del motor en una dirección determinada.
		 *  - direction: [bool] Dirección de giro.
		 *  - currentTime: [uint32_t] Tiempo actual en ms.
		 */
		bool startFromSide = false;
    1f16:	30 e0       	ldi	r19, 0x00	; 0
		 * ==== setDirection(bool forward) ====
		 * Establece la dirección de giro del motor.
		 *  - forward: [bool] Dirección de giro.
		 */
		if (forward)	*portDIR |= maskDIR;
		else			*portDIR &= ~maskDIR;
    1f18:	cd 91       	ld	r28, X+
    1f1a:	dc 91       	ld	r29, X
    1f1c:	11 97       	sbiw	r26, 0x01	; 1
    1f1e:	28 81       	ld	r18, Y
    1f20:	14 96       	adiw	r26, 0x04	; 4
    1f22:	8c 91       	ld	r24, X
    1f24:	14 97       	sbiw	r26, 0x04	; 4
    1f26:	80 95       	com	r24
    1f28:	82 23       	and	r24, r18
    1f2a:	88 83       	st	Y, r24
		/* 
		 * ==== setSpeed(bool speed) ====
		 * Establece la velociad de rotación del motor.
		 *  - speed: [uint8_t] Velocidad (PWM) de rotación.
		 */
		*ocrPWM = speed;
    1f2c:	1a 96       	adiw	r26, 0x0a	; 10
    1f2e:	cd 91       	ld	r28, X+
    1f30:	dc 91       	ld	r29, X
    1f32:	1b 97       	sbiw	r26, 0x0b	; 11
    1f34:	8c ec       	ldi	r24, 0xCC	; 204
    1f36:	88 83       	st	Y, r24
			eorSwitch->setExpectedDirection(direction);
		}
		
		setDirection(direction);
		setSpeed(204); // 80% PWM
		isMoving = true;
    1f38:	81 e0       	ldi	r24, 0x01	; 1
    1f3a:	1e 96       	adiw	r26, 0x0e	; 14
    1f3c:	8c 93       	st	X, r24
    1f3e:	1e 97       	sbiw	r26, 0x0e	; 14
		
		// Si arranca en sensor, activar escape.
		if (startFromSide || (eorSwitch != 0 && eorSwitch->isPressed())) {	
    1f40:	31 11       	cpse	r19, r1
    1f42:	13 c0       	rjmp	.+38     	; 0x1f6a <_ZN12DisparoState3runEv+0x386>
    1f44:	1c 96       	adiw	r26, 0x0c	; 12
    1f46:	0d 91       	ld	r16, X+
    1f48:	1c 91       	ld	r17, X
    1f4a:	1d 97       	sbiw	r26, 0x0d	; 13
    1f4c:	01 15       	cp	r16, r1
    1f4e:	11 05       	cpc	r17, r1
    1f50:	59 f0       	breq	.+22     	; 0x1f68 <_ZN12DisparoState3runEv+0x384>
		/* 
		 * ==== isPressed() ====
		 * Devuelve el estado acutal de la seńal del switch.
		 *  - return: [bool] true si el switch está presionado. flase en caso contrario.
		 */
		return !(*pinReg & mask);	// Lógica invertida (Pull-up)
    1f52:	e8 01       	movw	r28, r16
    1f54:	28 81       	ld	r18, Y
    1f56:	39 81       	ldd	r19, Y+1	; 0x01
    1f58:	e9 01       	movw	r28, r18
    1f5a:	28 81       	ld	r18, Y
    1f5c:	e8 01       	movw	r28, r16
    1f5e:	8e 81       	ldd	r24, Y+6	; 0x06
    1f60:	82 23       	and	r24, r18
    1f62:	19 f0       	breq	.+6      	; 0x1f6a <_ZN12DisparoState3runEv+0x386>
    1f64:	90 e0       	ldi	r25, 0x00	; 0
    1f66:	01 c0       	rjmp	.+2      	; 0x1f6a <_ZN12DisparoState3runEv+0x386>
    1f68:	90 e0       	ldi	r25, 0x00	; 0
    1f6a:	99 23       	and	r25, r25
    1f6c:	59 f0       	breq	.+22     	; 0x1f84 <_ZN12DisparoState3runEv+0x3a0>
			isEscaping = true;
    1f6e:	81 e0       	ldi	r24, 0x01	; 1
    1f70:	1f 96       	adiw	r26, 0x0f	; 15
    1f72:	8c 93       	st	X, r24
    1f74:	1f 97       	sbiw	r26, 0x0f	; 15
			escapeStartTimestamp = currentTime;
    1f76:	50 96       	adiw	r26, 0x10	; 16
    1f78:	4d 93       	st	X+, r20
    1f7a:	5d 93       	st	X+, r21
    1f7c:	6d 93       	st	X+, r22
    1f7e:	7c 93       	st	X, r23
    1f80:	53 97       	sbiw	r26, 0x13	; 19
    1f82:	02 c0       	rjmp	.+4      	; 0x1f88 <_ZN12DisparoState3runEv+0x3a4>
		} else {
			isEscaping = false;
    1f84:	1f 96       	adiw	r26, 0x0f	; 15
    1f86:	1c 92       	st	X, r1
			step_m34 = 2;
    1f88:	82 e0       	ldi	r24, 0x02	; 2
    1f8a:	80 87       	std	Z+8, r24	; 0x08
    1f8c:	85 c0       	rjmp	.+266    	; 0x2098 <__DATA_REGION_LENGTH__+0x98>
		}
		else if (step_m34 == 2 && status->sw4->getState() == M4_IS_CLOSE) {
    1f8e:	82 30       	cpi	r24, 0x02	; 2
    1f90:	61 f4       	brne	.+24     	; 0x1faa <_ZN12DisparoState3runEv+0x3c6>
    1f92:	a2 81       	ldd	r26, Z+2	; 0x02
    1f94:	b3 81       	ldd	r27, Z+3	; 0x03
    1f96:	50 96       	adiw	r26, 0x10	; 16
    1f98:	0d 90       	ld	r0, X+
    1f9a:	bc 91       	ld	r27, X
    1f9c:	a0 2d       	mov	r26, r0
		/* 
		 * ==== getState() ====
		 * Devuelve el estado acutal del actuador tras el filtrado.
		 *  - return: [SwState] Estado relativo en el que está el actuador.
		 */
		return currentState;
    1f9e:	17 96       	adiw	r26, 0x07	; 7
    1fa0:	2c 91       	ld	r18, X
    1fa2:	22 30       	cpi	r18, 0x02	; 2
    1fa4:	21 f4       	brne	.+8      	; 0x1fae <_ZN12DisparoState3runEv+0x3ca>
    1fa6:	21 e0       	ldi	r18, 0x01	; 1
    1fa8:	03 c0       	rjmp	.+6      	; 0x1fb0 <_ZN12DisparoState3runEv+0x3cc>
    1faa:	29 2f       	mov	r18, r25
    1fac:	01 c0       	rjmp	.+2      	; 0x1fb0 <_ZN12DisparoState3runEv+0x3cc>
    1fae:	29 2f       	mov	r18, r25
    1fb0:	22 23       	and	r18, r18
    1fb2:	09 f4       	brne	.+2      	; 0x1fb6 <_ZN12DisparoState3runEv+0x3d2>
    1fb4:	60 c0       	rjmp	.+192    	; 0x2076 <__DATA_REGION_LENGTH__+0x76>
			status->m3->startMoving(M3_GO_BACKWARD, status->current_time);
    1fb6:	a2 81       	ldd	r26, Z+2	; 0x02
    1fb8:	b3 81       	ldd	r27, Z+3	; 0x03
    1fba:	95 96       	adiw	r26, 0x25	; 37
    1fbc:	4d 91       	ld	r20, X+
    1fbe:	5d 91       	ld	r21, X+
    1fc0:	6d 91       	ld	r22, X+
    1fc2:	7c 91       	ld	r23, X
    1fc4:	98 97       	sbiw	r26, 0x28	; 40
    1fc6:	14 96       	adiw	r26, 0x04	; 4
    1fc8:	0d 90       	ld	r0, X+
    1fca:	bc 91       	ld	r27, X
    1fcc:	a0 2d       	mov	r26, r0
		 *  - direction: [bool] Dirección de giro.
		 *  - currentTime: [uint32_t] Tiempo actual en ms.
		 */
		bool startFromSide = false;
	
		if (eorSwitch != 0) {
    1fce:	1c 96       	adiw	r26, 0x0c	; 12
    1fd0:	cd 91       	ld	r28, X+
    1fd2:	dc 91       	ld	r29, X
    1fd4:	1d 97       	sbiw	r26, 0x0d	; 13
    1fd6:	20 97       	sbiw	r28, 0x00	; 0
    1fd8:	91 f0       	breq	.+36     	; 0x1ffe <_ZN12DisparoState3runEv+0x41a>
    1fda:	8f 81       	ldd	r24, Y+7	; 0x07
			SwitchMotor::SwState state = eorSwitch->getState();
			
			// No moverse si ya está en posición de destino.
			if ((direction && state == SwitchMotor::SIDE_1) ||
				(!direction && state == SwitchMotor::SIDE_2)) {
    1fdc:	82 30       	cpi	r24, 0x02	; 2
    1fde:	09 f4       	brne	.+2      	; 0x1fe2 <_ZN12DisparoState3runEv+0x3fe>
    1fe0:	47 c0       	rjmp	.+142    	; 0x2070 <__DATA_REGION_LENGTH__+0x70>
				return;
			}
			if (state != SwitchMotor::MOVING) {
    1fe2:	81 11       	cpse	r24, r1
    1fe4:	02 c0       	rjmp	.+4      	; 0x1fea <_ZN12DisparoState3runEv+0x406>
		 * ==== startMoving(bool direction, uint32_t currentTime) ====
		 * Ordena el arranque del motor en una dirección determinada.
		 *  - direction: [bool] Dirección de giro.
		 *  - currentTime: [uint32_t] Tiempo actual en ms.
		 */
		bool startFromSide = false;
    1fe6:	10 e0       	ldi	r17, 0x00	; 0
    1fe8:	01 c0       	rjmp	.+2      	; 0x1fec <_ZN12DisparoState3runEv+0x408>
			if ((direction && state == SwitchMotor::SIDE_1) ||
				(!direction && state == SwitchMotor::SIDE_2)) {
				return;
			}
			if (state != SwitchMotor::MOVING) {
				startFromSide = true;
    1fea:	11 e0       	ldi	r17, 0x01	; 1
		/* 
		 * ==== forceState(SwState s) ====
		 * Establece el estado del actuador. Debe ser usado tras la calibración.
		 *  - s: [SwState] Estado actual del actuador.
		 */
		currentState = s;
    1fec:	1f 82       	std	Y+7, r1	; 0x07
		flagPressed = false;
    1fee:	18 86       	std	Y+8, r1	; 0x08
			}
			
			// Prepara el switch para escuchar la colisión.
			eorSwitch->forceState(SwitchMotor::MOVING);
			eorSwitch->setExpectedDirection(direction);
    1ff0:	1c 96       	adiw	r26, 0x0c	; 12
    1ff2:	cd 91       	ld	r28, X+
    1ff4:	dc 91       	ld	r29, X
    1ff6:	1d 97       	sbiw	r26, 0x0d	; 13
		/* 
		 * ==== setExpectedDirection(bool direction) ====
		 * Establece la dirección a la que se mueve el motor.
		 *  - direction: [bool] true si la dirección es hacia SIDE_1, false en caso contrario.
		 */
		expectedDirection = direction;
    1ff8:	19 86       	std	Y+9, r1	; 0x09
		flagPressed = false;
    1ffa:	18 86       	std	Y+8, r1	; 0x08
    1ffc:	01 c0       	rjmp	.+2      	; 0x2000 <__DATA_REGION_LENGTH__>
		 * ==== startMoving(bool direction, uint32_t currentTime) ====
		 * Ordena el arranque del motor en una dirección determinada.
		 *  - direction: [bool] Dirección de giro.
		 *  - currentTime: [uint32_t] Tiempo actual en ms.
		 */
		bool startFromSide = false;
    1ffe:	10 e0       	ldi	r17, 0x00	; 0
		 * ==== setDirection(bool forward) ====
		 * Establece la dirección de giro del motor.
		 *  - forward: [bool] Dirección de giro.
		 */
		if (forward)	*portDIR |= maskDIR;
		else			*portDIR &= ~maskDIR;
    2000:	cd 91       	ld	r28, X+
    2002:	dc 91       	ld	r29, X
    2004:	11 97       	sbiw	r26, 0x01	; 1
    2006:	38 81       	ld	r19, Y
    2008:	14 96       	adiw	r26, 0x04	; 4
    200a:	8c 91       	ld	r24, X
    200c:	14 97       	sbiw	r26, 0x04	; 4
    200e:	80 95       	com	r24
    2010:	83 23       	and	r24, r19
    2012:	88 83       	st	Y, r24
		/* 
		 * ==== setSpeed(bool speed) ====
		 * Establece la velociad de rotación del motor.
		 *  - speed: [uint8_t] Velocidad (PWM) de rotación.
		 */
		*ocrPWM = speed;
    2014:	1a 96       	adiw	r26, 0x0a	; 10
    2016:	cd 91       	ld	r28, X+
    2018:	dc 91       	ld	r29, X
    201a:	1b 97       	sbiw	r26, 0x0b	; 11
    201c:	8c ec       	ldi	r24, 0xCC	; 204
    201e:	88 83       	st	Y, r24
			eorSwitch->setExpectedDirection(direction);
		}
		
		setDirection(direction);
		setSpeed(204); // 80% PWM
		isMoving = true;
    2020:	81 e0       	ldi	r24, 0x01	; 1
    2022:	1e 96       	adiw	r26, 0x0e	; 14
    2024:	8c 93       	st	X, r24
    2026:	1e 97       	sbiw	r26, 0x0e	; 14
		
		// Si arranca en sensor, activar escape.
		if (startFromSide || (eorSwitch != 0 && eorSwitch->isPressed())) {	
    2028:	11 11       	cpse	r17, r1
    202a:	13 c0       	rjmp	.+38     	; 0x2052 <__DATA_REGION_LENGTH__+0x52>
    202c:	1c 96       	adiw	r26, 0x0c	; 12
    202e:	ed 90       	ld	r14, X+
    2030:	fc 90       	ld	r15, X
    2032:	1d 97       	sbiw	r26, 0x0d	; 13
    2034:	e1 14       	cp	r14, r1
    2036:	f1 04       	cpc	r15, r1
    2038:	59 f0       	breq	.+22     	; 0x2050 <__DATA_REGION_LENGTH__+0x50>
		/* 
		 * ==== isPressed() ====
		 * Devuelve el estado acutal de la seńal del switch.
		 *  - return: [bool] true si el switch está presionado. flase en caso contrario.
		 */
		return !(*pinReg & mask);	// Lógica invertida (Pull-up)
    203a:	e7 01       	movw	r28, r14
    203c:	08 81       	ld	r16, Y
    203e:	19 81       	ldd	r17, Y+1	; 0x01
    2040:	e8 01       	movw	r28, r16
    2042:	38 81       	ld	r19, Y
    2044:	e7 01       	movw	r28, r14
    2046:	8e 81       	ldd	r24, Y+6	; 0x06
    2048:	83 23       	and	r24, r19
    204a:	19 f0       	breq	.+6      	; 0x2052 <__DATA_REGION_LENGTH__+0x52>
    204c:	29 2f       	mov	r18, r25
    204e:	01 c0       	rjmp	.+2      	; 0x2052 <__DATA_REGION_LENGTH__+0x52>
    2050:	29 2f       	mov	r18, r25
    2052:	22 23       	and	r18, r18
    2054:	59 f0       	breq	.+22     	; 0x206c <__DATA_REGION_LENGTH__+0x6c>
			isEscaping = true;
    2056:	81 e0       	ldi	r24, 0x01	; 1
    2058:	1f 96       	adiw	r26, 0x0f	; 15
    205a:	8c 93       	st	X, r24
    205c:	1f 97       	sbiw	r26, 0x0f	; 15
			escapeStartTimestamp = currentTime;
    205e:	50 96       	adiw	r26, 0x10	; 16
    2060:	4d 93       	st	X+, r20
    2062:	5d 93       	st	X+, r21
    2064:	6d 93       	st	X+, r22
    2066:	7c 93       	st	X, r23
    2068:	53 97       	sbiw	r26, 0x13	; 19
    206a:	02 c0       	rjmp	.+4      	; 0x2070 <__DATA_REGION_LENGTH__+0x70>
		} else {
			isEscaping = false;
    206c:	1f 96       	adiw	r26, 0x0f	; 15
    206e:	1c 92       	st	X, r1
			step_m34 = 3;
    2070:	83 e0       	ldi	r24, 0x03	; 3
    2072:	80 87       	std	Z+8, r24	; 0x08
    2074:	11 c0       	rjmp	.+34     	; 0x2098 <__DATA_REGION_LENGTH__+0x98>
		}
		else if (step_m34 == 3 && status->sw3->getState() == M3_IS_BACKWARD) {
    2076:	83 30       	cpi	r24, 0x03	; 3
    2078:	59 f4       	brne	.+22     	; 0x2090 <__DATA_REGION_LENGTH__+0x90>
    207a:	a2 81       	ldd	r26, Z+2	; 0x02
    207c:	b3 81       	ldd	r27, Z+3	; 0x03
    207e:	1e 96       	adiw	r26, 0x0e	; 14
    2080:	0d 90       	ld	r0, X+
    2082:	bc 91       	ld	r27, X
    2084:	a0 2d       	mov	r26, r0
		/* 
		 * ==== getState() ====
		 * Devuelve el estado acutal del actuador tras el filtrado.
		 *  - return: [SwState] Estado relativo en el que está el actuador.
		 */
		return currentState;
    2086:	17 96       	adiw	r26, 0x07	; 7
    2088:	8c 91       	ld	r24, X
    208a:	82 30       	cpi	r24, 0x02	; 2
    208c:	09 f4       	brne	.+2      	; 0x2090 <__DATA_REGION_LENGTH__+0x90>
    208e:	21 e0       	ldi	r18, 0x01	; 1
    2090:	22 23       	and	r18, r18
    2092:	11 f0       	breq	.+4      	; 0x2098 <__DATA_REGION_LENGTH__+0x98>
			step_m34 = 4;
    2094:	84 e0       	ldi	r24, 0x04	; 4
    2096:	80 87       	std	Z+8, r24	; 0x08
		}
	}
    2098:	df 91       	pop	r29
    209a:	cf 91       	pop	r28
    209c:	1f 91       	pop	r17
    209e:	0f 91       	pop	r16
    20a0:	ff 90       	pop	r15
    20a2:	ef 90       	pop	r14
    20a4:	08 95       	ret

000020a6 <_ZN12StateMachine5startEv>:

		// 3. Perform action of the (potentially new) current state
		state_actions[static_cast<uint8_t>(status.getState())]->run();
	}

	void start() {
    20a6:	ec 01       	movw	r28, r24
		Status() : current_state(States::Init) {}
			
		~Status() = default;
		
		void setState(States new_state) { current_state = new_state; }
		States getState() {return current_state; }
    20a8:	e9 a5       	ldd	r30, Y+41	; 0x29
		// 1. Trigger initial state entry
		state_actions[static_cast<uint8_t>(status.getState())]->entry();
    20aa:	f0 e0       	ldi	r31, 0x00	; 0
    20ac:	bc 96       	adiw	r30, 0x2c	; 44
    20ae:	ee 0f       	add	r30, r30
    20b0:	ff 1f       	adc	r31, r31
    20b2:	e8 0f       	add	r30, r24
    20b4:	f9 1f       	adc	r31, r25
    20b6:	80 81       	ld	r24, Z
    20b8:	91 81       	ldd	r25, Z+1	; 0x01
    20ba:	dc 01       	movw	r26, r24
    20bc:	ed 91       	ld	r30, X+
    20be:	fc 91       	ld	r31, X
    20c0:	02 80       	ldd	r0, Z+2	; 0x02
    20c2:	f3 81       	ldd	r31, Z+3	; 0x03
    20c4:	e0 2d       	mov	r30, r0
    20c6:	09 95       	icall
							
		void update_sensors() {
			current_time = timer->millis();
    20c8:	ec 8d       	ldd	r30, Y+28	; 0x1c
    20ca:	fd 8d       	ldd	r31, Y+29	; 0x1d
		 * ==== millis() ====
		 * Devuelve el tiempo actual en ms.
		 *  - return: [uint32_t] Milisegundos transcurridos desde inicio.
		 */
		uint32_t time;
		uint8_t oldSREG = SREG;		// Guarda estado acutal de las interrupciones
    20cc:	2f b7       	in	r18, 0x3f	; 63
		cli();						// Deshabilita interrupciones para lectura
    20ce:	f8 94       	cli
		time = system_millis;
    20d0:	c0 80       	ld	r12, Z
    20d2:	d1 80       	ldd	r13, Z+1	; 0x01
    20d4:	e2 80       	ldd	r14, Z+2	; 0x02
    20d6:	f3 80       	ldd	r15, Z+3	; 0x03
		SREG = oldSREG;				// Restaura el registro de estado original
    20d8:	2f bf       	out	0x3f, r18	; 63
    20da:	cd a2       	std	Y+37, r12	; 0x25
    20dc:	de a2       	std	Y+38, r13	; 0x26
    20de:	ef a2       	std	Y+39, r14	; 0x27
    20e0:	f8 a6       	std	Y+40, r15	; 0x28
			
			sw1->update(current_time);
    20e2:	ea 85       	ldd	r30, Y+10	; 0x0a
    20e4:	fb 85       	ldd	r31, Y+11	; 0x0b
		/* 
		 * ==== isPressed() ====
		 * Devuelve el estado acutal de la seńal del switch.
		 *  - return: [bool] true si el switch está presionado. flase en caso contrario.
		 */
		return !(*pinReg & mask);	// Lógica invertida (Pull-up)
    20e6:	20 81       	ld	r18, Z
    20e8:	31 81       	ldd	r19, Z+1	; 0x01
    20ea:	d9 01       	movw	r26, r18
    20ec:	3c 91       	ld	r19, X
    20ee:	26 81       	ldd	r18, Z+6	; 0x06
    20f0:	32 23       	and	r19, r18
    20f2:	21 e0       	ldi	r18, 0x01	; 1
    20f4:	09 f0       	breq	.+2      	; 0x20f8 <_ZN12StateMachine5startEv+0x52>
    20f6:	20 e0       	ldi	r18, 0x00	; 0
		 *  - currentTime: [uint32_t] Tiempo actual en ms.
		 */
		
		bool reading = isPressed();
		
        if (reading != lastReading) {
    20f8:	36 85       	ldd	r19, Z+14	; 0x0e
    20fa:	23 17       	cp	r18, r19
    20fc:	21 f0       	breq	.+8      	; 0x2106 <_ZN12StateMachine5startEv+0x60>
			lastDebounceTimestamp = currentTime;
    20fe:	c2 86       	std	Z+10, r12	; 0x0a
    2100:	d3 86       	std	Z+11, r13	; 0x0b
    2102:	e4 86       	std	Z+12, r14	; 0x0c
    2104:	f5 86       	std	Z+13, r15	; 0x0d
		}
		
		if ((currentTime - lastDebounceTimestamp) > debounceDelay) {
    2106:	42 85       	ldd	r20, Z+10	; 0x0a
    2108:	53 85       	ldd	r21, Z+11	; 0x0b
    210a:	64 85       	ldd	r22, Z+12	; 0x0c
    210c:	75 85       	ldd	r23, Z+13	; 0x0d
    210e:	d7 01       	movw	r26, r14
    2110:	c6 01       	movw	r24, r12
    2112:	84 1b       	sub	r24, r20
    2114:	95 0b       	sbc	r25, r21
    2116:	a6 0b       	sbc	r26, r22
    2118:	b7 0b       	sbc	r27, r23
    211a:	40 89       	ldd	r20, Z+16	; 0x10
    211c:	51 89       	ldd	r21, Z+17	; 0x11
    211e:	62 89       	ldd	r22, Z+18	; 0x12
    2120:	73 89       	ldd	r23, Z+19	; 0x13
    2122:	48 17       	cp	r20, r24
    2124:	59 07       	cpc	r21, r25
    2126:	6a 07       	cpc	r22, r26
    2128:	7b 07       	cpc	r23, r27
    212a:	80 f4       	brcc	.+32     	; 0x214c <_ZN12StateMachine5startEv+0xa6>
			if (reading != stableState) {
    212c:	87 85       	ldd	r24, Z+15	; 0x0f
    212e:	28 17       	cp	r18, r24
    2130:	69 f0       	breq	.+26     	; 0x214c <_ZN12StateMachine5startEv+0xa6>
				stableState = reading;
    2132:	27 87       	std	Z+15, r18	; 0x0f
				
				if (stableState) {
    2134:	22 23       	and	r18, r18
    2136:	51 f0       	breq	.+20     	; 0x214c <_ZN12StateMachine5startEv+0xa6>
					flagPressed = true;
    2138:	81 e0       	ldi	r24, 0x01	; 1
    213a:	80 87       	std	Z+8, r24	; 0x08
					if (expectedDirection) {
    213c:	81 85       	ldd	r24, Z+9	; 0x09
    213e:	88 23       	and	r24, r24
    2140:	19 f0       	breq	.+6      	; 0x2148 <_ZN12StateMachine5startEv+0xa2>
						currentState = SIDE_1;
    2142:	81 e0       	ldi	r24, 0x01	; 1
    2144:	87 83       	std	Z+7, r24	; 0x07
    2146:	02 c0       	rjmp	.+4      	; 0x214c <_ZN12StateMachine5startEv+0xa6>
					} else {
						currentState = SIDE_2;
    2148:	82 e0       	ldi	r24, 0x02	; 2
    214a:	87 83       	std	Z+7, r24	; 0x07
					}
				}
			}
		}
		lastReading = reading;
    214c:	26 87       	std	Z+14, r18	; 0x0e
			sw2->update(current_time);
    214e:	4d a1       	ldd	r20, Y+37	; 0x25
    2150:	5e a1       	ldd	r21, Y+38	; 0x26
    2152:	6f a1       	ldd	r22, Y+39	; 0x27
    2154:	78 a5       	ldd	r23, Y+40	; 0x28
    2156:	ec 85       	ldd	r30, Y+12	; 0x0c
    2158:	fd 85       	ldd	r31, Y+13	; 0x0d
    215a:	a0 81       	ld	r26, Z
    215c:	b1 81       	ldd	r27, Z+1	; 0x01
    215e:	9c 91       	ld	r25, X
    2160:	86 81       	ldd	r24, Z+6	; 0x06
    2162:	98 23       	and	r25, r24
    2164:	81 e0       	ldi	r24, 0x01	; 1
    2166:	09 f0       	breq	.+2      	; 0x216a <_ZN12StateMachine5startEv+0xc4>
    2168:	80 e0       	ldi	r24, 0x00	; 0
		 *  - currentTime: [uint32_t] Tiempo actual en ms.
		 */
		
		bool reading = isPressed();
		
        if (reading != lastReading) {
    216a:	97 85       	ldd	r25, Z+15	; 0x0f
    216c:	89 17       	cp	r24, r25
    216e:	21 f0       	breq	.+8      	; 0x2178 <_ZN12StateMachine5startEv+0xd2>
			lastDebounceTimestamp = currentTime;
    2170:	43 87       	std	Z+11, r20	; 0x0b
    2172:	54 87       	std	Z+12, r21	; 0x0c
    2174:	65 87       	std	Z+13, r22	; 0x0d
    2176:	76 87       	std	Z+14, r23	; 0x0e
		}
		
		if ((currentTime - lastDebounceTimestamp) > debounceDelay) {
    2178:	03 85       	ldd	r16, Z+11	; 0x0b
    217a:	14 85       	ldd	r17, Z+12	; 0x0c
    217c:	25 85       	ldd	r18, Z+13	; 0x0d
    217e:	36 85       	ldd	r19, Z+14	; 0x0e
    2180:	40 1b       	sub	r20, r16
    2182:	51 0b       	sbc	r21, r17
    2184:	62 0b       	sbc	r22, r18
    2186:	73 0b       	sbc	r23, r19
    2188:	01 89       	ldd	r16, Z+17	; 0x11
    218a:	12 89       	ldd	r17, Z+18	; 0x12
    218c:	23 89       	ldd	r18, Z+19	; 0x13
    218e:	34 89       	ldd	r19, Z+20	; 0x14
    2190:	04 17       	cp	r16, r20
    2192:	15 07       	cpc	r17, r21
    2194:	26 07       	cpc	r18, r22
    2196:	37 07       	cpc	r19, r23
    2198:	50 f4       	brcc	.+20     	; 0x21ae <_ZN12StateMachine5startEv+0x108>
			if (reading != stableState) {
    219a:	90 89       	ldd	r25, Z+16	; 0x10
    219c:	89 17       	cp	r24, r25
    219e:	39 f0       	breq	.+14     	; 0x21ae <_ZN12StateMachine5startEv+0x108>
				stableState = reading;
    21a0:	80 8b       	std	Z+16, r24	; 0x10
				
				if (stableState) {
    21a2:	88 23       	and	r24, r24
    21a4:	21 f0       	breq	.+8      	; 0x21ae <_ZN12StateMachine5startEv+0x108>
					flagPressed = true;
    21a6:	91 e0       	ldi	r25, 0x01	; 1
    21a8:	91 87       	std	Z+9, r25	; 0x09
					currentState = nextExpectedState;
    21aa:	90 85       	ldd	r25, Z+8	; 0x08
    21ac:	97 83       	std	Z+7, r25	; 0x07
				}
			}
		}
		lastReading = reading;
    21ae:	87 87       	std	Z+15, r24	; 0x0f
			sw3->update(current_time);
    21b0:	4d a1       	ldd	r20, Y+37	; 0x25
    21b2:	5e a1       	ldd	r21, Y+38	; 0x26
    21b4:	6f a1       	ldd	r22, Y+39	; 0x27
    21b6:	78 a5       	ldd	r23, Y+40	; 0x28
    21b8:	ee 85       	ldd	r30, Y+14	; 0x0e
    21ba:	ff 85       	ldd	r31, Y+15	; 0x0f
		/* 
		 * ==== isPressed() ====
		 * Devuelve el estado acutal de la seńal del switch.
		 *  - return: [bool] true si el switch está presionado. flase en caso contrario.
		 */
		return !(*pinReg & mask);	// Lógica invertida (Pull-up)
    21bc:	a0 81       	ld	r26, Z
    21be:	b1 81       	ldd	r27, Z+1	; 0x01
    21c0:	9c 91       	ld	r25, X
    21c2:	86 81       	ldd	r24, Z+6	; 0x06
    21c4:	98 23       	and	r25, r24
    21c6:	81 e0       	ldi	r24, 0x01	; 1
    21c8:	09 f0       	breq	.+2      	; 0x21cc <_ZN12StateMachine5startEv+0x126>
    21ca:	80 e0       	ldi	r24, 0x00	; 0
		 *  - currentTime: [uint32_t] Tiempo actual en ms.
		 */
		
		bool reading = isPressed();
		
        if (reading != lastReading) {
    21cc:	96 85       	ldd	r25, Z+14	; 0x0e
    21ce:	89 17       	cp	r24, r25
    21d0:	21 f0       	breq	.+8      	; 0x21da <_ZN12StateMachine5startEv+0x134>
			lastDebounceTimestamp = currentTime;
    21d2:	42 87       	std	Z+10, r20	; 0x0a
    21d4:	53 87       	std	Z+11, r21	; 0x0b
    21d6:	64 87       	std	Z+12, r22	; 0x0c
    21d8:	75 87       	std	Z+13, r23	; 0x0d
		}
		
		if ((currentTime - lastDebounceTimestamp) > debounceDelay) {
    21da:	02 85       	ldd	r16, Z+10	; 0x0a
    21dc:	13 85       	ldd	r17, Z+11	; 0x0b
    21de:	24 85       	ldd	r18, Z+12	; 0x0c
    21e0:	35 85       	ldd	r19, Z+13	; 0x0d
    21e2:	40 1b       	sub	r20, r16
    21e4:	51 0b       	sbc	r21, r17
    21e6:	62 0b       	sbc	r22, r18
    21e8:	73 0b       	sbc	r23, r19
    21ea:	00 89       	ldd	r16, Z+16	; 0x10
    21ec:	11 89       	ldd	r17, Z+17	; 0x11
    21ee:	22 89       	ldd	r18, Z+18	; 0x12
    21f0:	33 89       	ldd	r19, Z+19	; 0x13
    21f2:	04 17       	cp	r16, r20
    21f4:	15 07       	cpc	r17, r21
    21f6:	26 07       	cpc	r18, r22
    21f8:	37 07       	cpc	r19, r23
    21fa:	80 f4       	brcc	.+32     	; 0x221c <__stack+0x1d>
			if (reading != stableState) {
    21fc:	97 85       	ldd	r25, Z+15	; 0x0f
    21fe:	89 17       	cp	r24, r25
    2200:	69 f0       	breq	.+26     	; 0x221c <__stack+0x1d>
				stableState = reading;
    2202:	87 87       	std	Z+15, r24	; 0x0f
				
				if (stableState) {
    2204:	88 23       	and	r24, r24
    2206:	51 f0       	breq	.+20     	; 0x221c <__stack+0x1d>
					flagPressed = true;
    2208:	91 e0       	ldi	r25, 0x01	; 1
    220a:	90 87       	std	Z+8, r25	; 0x08
					if (expectedDirection) {
    220c:	91 85       	ldd	r25, Z+9	; 0x09
    220e:	99 23       	and	r25, r25
    2210:	19 f0       	breq	.+6      	; 0x2218 <__stack+0x19>
						currentState = SIDE_1;
    2212:	91 e0       	ldi	r25, 0x01	; 1
    2214:	97 83       	std	Z+7, r25	; 0x07
    2216:	02 c0       	rjmp	.+4      	; 0x221c <__stack+0x1d>
					} else {
						currentState = SIDE_2;
    2218:	92 e0       	ldi	r25, 0x02	; 2
    221a:	97 83       	std	Z+7, r25	; 0x07
					}
				}
			}
		}
		lastReading = reading;
    221c:	86 87       	std	Z+14, r24	; 0x0e
			sw4->update(current_time);
    221e:	4d a1       	ldd	r20, Y+37	; 0x25
    2220:	5e a1       	ldd	r21, Y+38	; 0x26
    2222:	6f a1       	ldd	r22, Y+39	; 0x27
    2224:	78 a5       	ldd	r23, Y+40	; 0x28
    2226:	e8 89       	ldd	r30, Y+16	; 0x10
    2228:	f9 89       	ldd	r31, Y+17	; 0x11
		/* 
		 * ==== isPressed() ====
		 * Devuelve el estado acutal de la seńal del switch.
		 *  - return: [bool] true si el switch está presionado. flase en caso contrario.
		 */
		return !(*pinReg & mask);	// Lógica invertida (Pull-up)
    222a:	a0 81       	ld	r26, Z
    222c:	b1 81       	ldd	r27, Z+1	; 0x01
    222e:	9c 91       	ld	r25, X
    2230:	86 81       	ldd	r24, Z+6	; 0x06
    2232:	98 23       	and	r25, r24
    2234:	81 e0       	ldi	r24, 0x01	; 1
    2236:	09 f0       	breq	.+2      	; 0x223a <__stack+0x3b>
    2238:	80 e0       	ldi	r24, 0x00	; 0
		 *  - currentTime: [uint32_t] Tiempo actual en ms.
		 */
		
		bool reading = isPressed();
		
        if (reading != lastReading) {
    223a:	96 85       	ldd	r25, Z+14	; 0x0e
    223c:	89 17       	cp	r24, r25
    223e:	21 f0       	breq	.+8      	; 0x2248 <__stack+0x49>
			lastDebounceTimestamp = currentTime;
    2240:	42 87       	std	Z+10, r20	; 0x0a
    2242:	53 87       	std	Z+11, r21	; 0x0b
    2244:	64 87       	std	Z+12, r22	; 0x0c
    2246:	75 87       	std	Z+13, r23	; 0x0d
		}
		
		if ((currentTime - lastDebounceTimestamp) > debounceDelay) {
    2248:	02 85       	ldd	r16, Z+10	; 0x0a
    224a:	13 85       	ldd	r17, Z+11	; 0x0b
    224c:	24 85       	ldd	r18, Z+12	; 0x0c
    224e:	35 85       	ldd	r19, Z+13	; 0x0d
    2250:	40 1b       	sub	r20, r16
    2252:	51 0b       	sbc	r21, r17
    2254:	62 0b       	sbc	r22, r18
    2256:	73 0b       	sbc	r23, r19
    2258:	00 89       	ldd	r16, Z+16	; 0x10
    225a:	11 89       	ldd	r17, Z+17	; 0x11
    225c:	22 89       	ldd	r18, Z+18	; 0x12
    225e:	33 89       	ldd	r19, Z+19	; 0x13
    2260:	04 17       	cp	r16, r20
    2262:	15 07       	cpc	r17, r21
    2264:	26 07       	cpc	r18, r22
    2266:	37 07       	cpc	r19, r23
    2268:	80 f4       	brcc	.+32     	; 0x228a <__stack+0x8b>
			if (reading != stableState) {
    226a:	97 85       	ldd	r25, Z+15	; 0x0f
    226c:	89 17       	cp	r24, r25
    226e:	69 f0       	breq	.+26     	; 0x228a <__stack+0x8b>
				stableState = reading;
    2270:	87 87       	std	Z+15, r24	; 0x0f
				
				if (stableState) {
    2272:	88 23       	and	r24, r24
    2274:	51 f0       	breq	.+20     	; 0x228a <__stack+0x8b>
					flagPressed = true;
    2276:	91 e0       	ldi	r25, 0x01	; 1
    2278:	90 87       	std	Z+8, r25	; 0x08
					if (expectedDirection) {
    227a:	91 85       	ldd	r25, Z+9	; 0x09
    227c:	99 23       	and	r25, r25
    227e:	19 f0       	breq	.+6      	; 0x2286 <__stack+0x87>
						currentState = SIDE_1;
    2280:	91 e0       	ldi	r25, 0x01	; 1
    2282:	97 83       	std	Z+7, r25	; 0x07
    2284:	02 c0       	rjmp	.+4      	; 0x228a <__stack+0x8b>
					} else {
						currentState = SIDE_2;
    2286:	92 e0       	ldi	r25, 0x02	; 2
    2288:	97 83       	std	Z+7, r25	; 0x07
					}
				}
			}
		}
		lastReading = reading;
    228a:	86 87       	std	Z+14, r24	; 0x0e
			sw5->update(current_time);
    228c:	4d a1       	ldd	r20, Y+37	; 0x25
    228e:	5e a1       	ldd	r21, Y+38	; 0x26
    2290:	6f a1       	ldd	r22, Y+39	; 0x27
    2292:	78 a5       	ldd	r23, Y+40	; 0x28
    2294:	ea 89       	ldd	r30, Y+18	; 0x12
    2296:	fb 89       	ldd	r31, Y+19	; 0x13
		/* 
		 * ==== isPressed() ====
		 * Devuelve el estado acutal de la seńal del switch.
		 *  - return: [bool] true si el switch está presionado. flase en caso contrario.
		 */
		return !(*pinReg & mask);	// Lógica invertida (Pull-up)
    2298:	a0 81       	ld	r26, Z
    229a:	b1 81       	ldd	r27, Z+1	; 0x01
    229c:	9c 91       	ld	r25, X
    229e:	86 81       	ldd	r24, Z+6	; 0x06
    22a0:	98 23       	and	r25, r24
    22a2:	81 e0       	ldi	r24, 0x01	; 1
    22a4:	09 f0       	breq	.+2      	; 0x22a8 <__stack+0xa9>
    22a6:	80 e0       	ldi	r24, 0x00	; 0
		 *  - currentTime: [uint32_t] Tiempo actual en ms.
		 */
		
		bool reading = isPressed();
		
        if (reading != lastReading) {
    22a8:	96 85       	ldd	r25, Z+14	; 0x0e
    22aa:	89 17       	cp	r24, r25
    22ac:	21 f0       	breq	.+8      	; 0x22b6 <__stack+0xb7>
			lastDebounceTimestamp = currentTime;
    22ae:	42 87       	std	Z+10, r20	; 0x0a
    22b0:	53 87       	std	Z+11, r21	; 0x0b
    22b2:	64 87       	std	Z+12, r22	; 0x0c
    22b4:	75 87       	std	Z+13, r23	; 0x0d
		}
		
		if ((currentTime - lastDebounceTimestamp) > debounceDelay) {
    22b6:	02 85       	ldd	r16, Z+10	; 0x0a
    22b8:	13 85       	ldd	r17, Z+11	; 0x0b
    22ba:	24 85       	ldd	r18, Z+12	; 0x0c
    22bc:	35 85       	ldd	r19, Z+13	; 0x0d
    22be:	40 1b       	sub	r20, r16
    22c0:	51 0b       	sbc	r21, r17
    22c2:	62 0b       	sbc	r22, r18
    22c4:	73 0b       	sbc	r23, r19
    22c6:	00 89       	ldd	r16, Z+16	; 0x10
    22c8:	11 89       	ldd	r17, Z+17	; 0x11
    22ca:	22 89       	ldd	r18, Z+18	; 0x12
    22cc:	33 89       	ldd	r19, Z+19	; 0x13
    22ce:	04 17       	cp	r16, r20
    22d0:	15 07       	cpc	r17, r21
    22d2:	26 07       	cpc	r18, r22
    22d4:	37 07       	cpc	r19, r23
    22d6:	80 f4       	brcc	.+32     	; 0x22f8 <__stack+0xf9>
			if (reading != stableState) {
    22d8:	97 85       	ldd	r25, Z+15	; 0x0f
    22da:	89 17       	cp	r24, r25
    22dc:	69 f0       	breq	.+26     	; 0x22f8 <__stack+0xf9>
				stableState = reading;
    22de:	87 87       	std	Z+15, r24	; 0x0f
				
				if (stableState) {
    22e0:	88 23       	and	r24, r24
    22e2:	51 f0       	breq	.+20     	; 0x22f8 <__stack+0xf9>
					flagPressed = true;
    22e4:	91 e0       	ldi	r25, 0x01	; 1
    22e6:	90 87       	std	Z+8, r25	; 0x08
					if (expectedDirection) {
    22e8:	91 85       	ldd	r25, Z+9	; 0x09
    22ea:	99 23       	and	r25, r25
    22ec:	19 f0       	breq	.+6      	; 0x22f4 <__stack+0xf5>
						currentState = SIDE_1;
    22ee:	91 e0       	ldi	r25, 0x01	; 1
    22f0:	97 83       	std	Z+7, r25	; 0x07
    22f2:	02 c0       	rjmp	.+4      	; 0x22f8 <__stack+0xf9>
					} else {
						currentState = SIDE_2;
    22f4:	92 e0       	ldi	r25, 0x02	; 2
    22f6:	97 83       	std	Z+7, r25	; 0x07
					}
				}
			}
		}
		lastReading = reading;
    22f8:	86 87       	std	Z+14, r24	; 0x0e
			
			m1->update(current_time);
    22fa:	cd a0       	ldd	r12, Y+37	; 0x25
    22fc:	de a0       	ldd	r13, Y+38	; 0x26
    22fe:	ef a0       	ldd	r14, Y+39	; 0x27
    2300:	f8 a4       	ldd	r15, Y+40	; 0x28
    2302:	e8 81       	ld	r30, Y
    2304:	f9 81       	ldd	r31, Y+1	; 0x01
		 * Revisa colisiones y timeouts.
		 *  - currentTime: [uint32_t] Tiempo actual en ms.
		 */
		
		// 1. Pausa post-calibración
		if (isWaitingAfterCalib) {
    2306:	21 8d       	ldd	r18, Z+25	; 0x19
    2308:	22 23       	and	r18, r18
    230a:	39 f1       	breq	.+78     	; 0x235a <__stack+0x15b>
			if ((currentTime - stateTimer) >= 200) {
    230c:	42 8d       	ldd	r20, Z+26	; 0x1a
    230e:	53 8d       	ldd	r21, Z+27	; 0x1b
    2310:	64 8d       	ldd	r22, Z+28	; 0x1c
    2312:	75 8d       	ldd	r23, Z+29	; 0x1d
    2314:	d7 01       	movw	r26, r14
    2316:	c6 01       	movw	r24, r12
    2318:	84 1b       	sub	r24, r20
    231a:	95 0b       	sbc	r25, r21
    231c:	a6 0b       	sbc	r26, r22
    231e:	b7 0b       	sbc	r27, r23
    2320:	88 3c       	cpi	r24, 0xC8	; 200
    2322:	91 05       	cpc	r25, r1
    2324:	a1 05       	cpc	r26, r1
    2326:	b1 05       	cpc	r27, r1
    2328:	08 f4       	brcc	.+2      	; 0x232c <__stack+0x12d>
    232a:	8f c0       	rjmp	.+286    	; 0x244a <__stack+0x24b>
				isWaitingAfterCalib = false;
    232c:	11 8e       	std	Z+25, r1	; 0x19
				if (eorSwitch != 0) {
    232e:	a4 85       	ldd	r26, Z+12	; 0x0c
    2330:	b5 85       	ldd	r27, Z+13	; 0x0d
    2332:	10 97       	sbiw	r26, 0x00	; 0
    2334:	09 f4       	brne	.+2      	; 0x2338 <__stack+0x139>
    2336:	89 c0       	rjmp	.+274    	; 0x244a <__stack+0x24b>
					if (calibDirection)	eorSwitch->forceState(SwitchMotor::SIDE_1);
    2338:	86 8d       	ldd	r24, Z+30	; 0x1e
    233a:	88 23       	and	r24, r24
    233c:	39 f0       	breq	.+14     	; 0x234c <__stack+0x14d>
		/* 
		 * ==== forceState(SwState s) ====
		 * Establece el estado del actuador. Debe ser usado tras la calibración.
		 *  - s: [SwState] Estado actual del actuador.
		 */
		currentState = s;
    233e:	81 e0       	ldi	r24, 0x01	; 1
    2340:	17 96       	adiw	r26, 0x07	; 7
    2342:	8c 93       	st	X, r24
    2344:	17 97       	sbiw	r26, 0x07	; 7
		flagPressed = false;
    2346:	18 96       	adiw	r26, 0x08	; 8
    2348:	1c 92       	st	X, r1
    234a:	7f c0       	rjmp	.+254    	; 0x244a <__stack+0x24b>
		/* 
		 * ==== forceState(SwState s) ====
		 * Establece el estado del actuador. Debe ser usado tras la calibración.
		 *  - s: [SwState] Estado actual del actuador.
		 */
		currentState = s;
    234c:	82 e0       	ldi	r24, 0x02	; 2
    234e:	17 96       	adiw	r26, 0x07	; 7
    2350:	8c 93       	st	X, r24
    2352:	17 97       	sbiw	r26, 0x07	; 7
		flagPressed = false;
    2354:	18 96       	adiw	r26, 0x08	; 8
    2356:	1c 92       	st	X, r1
    2358:	78 c0       	rjmp	.+240    	; 0x244a <__stack+0x24b>
			}
			return;
		}
		
		// 2. Control del movimiento general
		if (eorSwitch != 0 && isMoving) {
    235a:	24 85       	ldd	r18, Z+12	; 0x0c
    235c:	35 85       	ldd	r19, Z+13	; 0x0d
    235e:	21 15       	cp	r18, r1
    2360:	31 05       	cpc	r19, r1
    2362:	09 f4       	brne	.+2      	; 0x2366 <__stack+0x167>
    2364:	72 c0       	rjmp	.+228    	; 0x244a <__stack+0x24b>
    2366:	46 85       	ldd	r20, Z+14	; 0x0e
    2368:	44 23       	and	r20, r20
    236a:	09 f4       	brne	.+2      	; 0x236e <__stack+0x16f>
    236c:	6e c0       	rjmp	.+220    	; 0x244a <__stack+0x24b>
			if (isEscaping) {
    236e:	47 85       	ldd	r20, Z+15	; 0x0f
    2370:	44 23       	and	r20, r20
    2372:	59 f1       	breq	.+86     	; 0x23ca <__stack+0x1cb>
		/* 
		 * ==== isPressed() ====
		 * Devuelve el estado acutal de la seńal del switch.
		 *  - return: [bool] true si el switch está presionado. flase en caso contrario.
		 */
		return !(*pinReg & mask);	// Lógica invertida (Pull-up)
    2374:	d9 01       	movw	r26, r18
    2376:	4d 91       	ld	r20, X+
    2378:	5c 91       	ld	r21, X
    237a:	da 01       	movw	r26, r20
    237c:	5c 91       	ld	r21, X
    237e:	d9 01       	movw	r26, r18
    2380:	16 96       	adiw	r26, 0x06	; 6
    2382:	4c 91       	ld	r20, X
    2384:	45 23       	and	r20, r21
				// Ignora colisiones hasta salir de zona de switch
				if (!eorSwitch->isPressed()) {
    2386:	e1 f0       	breq	.+56     	; 0x23c0 <__stack+0x1c1>
					if((currentTime - escapeStartTimestamp) > escapeDelay) {
    2388:	40 89       	ldd	r20, Z+16	; 0x10
    238a:	51 89       	ldd	r21, Z+17	; 0x11
    238c:	62 89       	ldd	r22, Z+18	; 0x12
    238e:	73 89       	ldd	r23, Z+19	; 0x13
    2390:	d7 01       	movw	r26, r14
    2392:	c6 01       	movw	r24, r12
    2394:	84 1b       	sub	r24, r20
    2396:	95 0b       	sbc	r25, r21
    2398:	a6 0b       	sbc	r26, r22
    239a:	b7 0b       	sbc	r27, r23
    239c:	44 89       	ldd	r20, Z+20	; 0x14
    239e:	55 89       	ldd	r21, Z+21	; 0x15
    23a0:	66 89       	ldd	r22, Z+22	; 0x16
    23a2:	77 89       	ldd	r23, Z+23	; 0x17
    23a4:	48 17       	cp	r20, r24
    23a6:	59 07       	cpc	r21, r25
    23a8:	6a 07       	cpc	r22, r26
    23aa:	7b 07       	cpc	r23, r27
    23ac:	08 f0       	brcs	.+2      	; 0x23b0 <__stack+0x1b1>
    23ae:	4d c0       	rjmp	.+154    	; 0x244a <__stack+0x24b>
						isEscaping = false;
    23b0:	17 86       	std	Z+15, r1	; 0x0f
		/* 
		 * ==== consumePressedFlag() ====
		 * Comprueba si se pulsó el switch y limpia la bandera.
		 *  - return: [bool] true si hubo un click no procesado, false en caso contrario.
		 */
		if (flagPressed) {
    23b2:	f9 01       	movw	r30, r18
    23b4:	80 85       	ldd	r24, Z+8	; 0x08
    23b6:	88 23       	and	r24, r24
    23b8:	09 f4       	brne	.+2      	; 0x23bc <__stack+0x1bd>
    23ba:	47 c0       	rjmp	.+142    	; 0x244a <__stack+0x24b>
			flagPressed = false;
    23bc:	10 86       	std	Z+8, r1	; 0x08
    23be:	45 c0       	rjmp	.+138    	; 0x244a <__stack+0x24b>
						eorSwitch->consumePressedFlag(); 
					}
				} else {
					escapeStartTimestamp = currentTime;
    23c0:	c0 8a       	std	Z+16, r12	; 0x10
    23c2:	d1 8a       	std	Z+17, r13	; 0x11
    23c4:	e2 8a       	std	Z+18, r14	; 0x12
    23c6:	f3 8a       	std	Z+19, r15	; 0x13
    23c8:	40 c0       	rjmp	.+128    	; 0x244a <__stack+0x24b>
		/* 
		 * ==== consumePressedFlag() ====
		 * Comprueba si se pulsó el switch y limpia la bandera.
		 *  - return: [bool] true si hubo un click no procesado, false en caso contrario.
		 */
		if (flagPressed) {
    23ca:	d9 01       	movw	r26, r18
    23cc:	18 96       	adiw	r26, 0x08	; 8
    23ce:	4c 91       	ld	r20, X
    23d0:	18 97       	sbiw	r26, 0x08	; 8
    23d2:	44 23       	and	r20, r20
    23d4:	11 f0       	breq	.+4      	; 0x23da <__stack+0x1db>
			flagPressed = false;
    23d6:	18 96       	adiw	r26, 0x08	; 8
    23d8:	1c 92       	st	X, r1
				}
			} else {
				// Si se pulsa el switch:
				if(eorSwitch->consumePressedFlag()) {
    23da:	44 23       	and	r20, r20
    23dc:	c1 f0       	breq	.+48     	; 0x240e <__stack+0x20f>
		/* 
		 * ==== setSpeed(bool speed) ====
		 * Establece la velociad de rotación del motor.
		 *  - speed: [uint8_t] Velocidad (PWM) de rotación.
		 */
		*ocrPWM = speed;
    23de:	22 85       	ldd	r18, Z+10	; 0x0a
    23e0:	33 85       	ldd	r19, Z+11	; 0x0b
    23e2:	d9 01       	movw	r26, r18
    23e4:	1c 92       	st	X, r1
		/* 
		 * ==== stop() ====
		 * Para el motor, y resetea las variables de estado.
		 */
		setSpeed(0);
		*portEN &= ~maskEN;
    23e6:	45 81       	ldd	r20, Z+5	; 0x05
    23e8:	56 81       	ldd	r21, Z+6	; 0x06
    23ea:	da 01       	movw	r26, r20
    23ec:	3c 91       	ld	r19, X
    23ee:	21 85       	ldd	r18, Z+9	; 0x09
    23f0:	20 95       	com	r18
    23f2:	23 23       	and	r18, r19
    23f4:	2c 93       	st	X, r18
		isMoving = false;
    23f6:	16 86       	std	Z+14, r1	; 0x0e
			} else {
				// Si se pulsa el switch:
				if(eorSwitch->consumePressedFlag()) {
					stop();
				
					if (isCalibrating) {
    23f8:	20 8d       	ldd	r18, Z+24	; 0x18
    23fa:	22 23       	and	r18, r18
    23fc:	31 f1       	breq	.+76     	; 0x244a <__stack+0x24b>
						isCalibrating = false;
    23fe:	10 8e       	std	Z+24, r1	; 0x18
						isWaitingAfterCalib = true;
    2400:	21 e0       	ldi	r18, 0x01	; 1
    2402:	21 8f       	std	Z+25, r18	; 0x19
						stateTimer = currentTime;
    2404:	c2 8e       	std	Z+26, r12	; 0x1a
    2406:	d3 8e       	std	Z+27, r13	; 0x1b
    2408:	e4 8e       	std	Z+28, r14	; 0x1c
    240a:	f5 8e       	std	Z+29, r15	; 0x1d
    240c:	1e c0       	rjmp	.+60     	; 0x244a <__stack+0x24b>
					}
				}
				// Timeout de seguridad para calibración.
				else if (isCalibrating && (currentTime - stateTimer) > 10000) {
    240e:	20 8d       	ldd	r18, Z+24	; 0x18
    2410:	22 23       	and	r18, r18
    2412:	d9 f0       	breq	.+54     	; 0x244a <__stack+0x24b>
    2414:	42 8d       	ldd	r20, Z+26	; 0x1a
    2416:	53 8d       	ldd	r21, Z+27	; 0x1b
    2418:	64 8d       	ldd	r22, Z+28	; 0x1c
    241a:	75 8d       	ldd	r23, Z+29	; 0x1d
    241c:	d7 01       	movw	r26, r14
    241e:	c6 01       	movw	r24, r12
    2420:	84 1b       	sub	r24, r20
    2422:	95 0b       	sbc	r25, r21
    2424:	a6 0b       	sbc	r26, r22
    2426:	b7 0b       	sbc	r27, r23
    2428:	81 31       	cpi	r24, 0x11	; 17
    242a:	97 42       	sbci	r25, 0x27	; 39
    242c:	a1 05       	cpc	r26, r1
    242e:	b1 05       	cpc	r27, r1
    2430:	60 f0       	brcs	.+24     	; 0x244a <__stack+0x24b>
		/* 
		 * ==== setSpeed(bool speed) ====
		 * Establece la velociad de rotación del motor.
		 *  - speed: [uint8_t] Velocidad (PWM) de rotación.
		 */
		*ocrPWM = speed;
    2432:	a2 85       	ldd	r26, Z+10	; 0x0a
    2434:	b3 85       	ldd	r27, Z+11	; 0x0b
    2436:	1c 92       	st	X, r1
		/* 
		 * ==== stop() ====
		 * Para el motor, y resetea las variables de estado.
		 */
		setSpeed(0);
		*portEN &= ~maskEN;
    2438:	a5 81       	ldd	r26, Z+5	; 0x05
    243a:	b6 81       	ldd	r27, Z+6	; 0x06
    243c:	9c 91       	ld	r25, X
    243e:	81 85       	ldd	r24, Z+9	; 0x09
    2440:	80 95       	com	r24
    2442:	89 23       	and	r24, r25
    2444:	8c 93       	st	X, r24
		isMoving = false;
    2446:	16 86       	std	Z+14, r1	; 0x0e
					}
				}
				// Timeout de seguridad para calibración.
				else if (isCalibrating && (currentTime - stateTimer) > 10000) {
					stop();
					isCalibrating = false;
    2448:	10 8e       	std	Z+24, r1	; 0x18
			m2->update(current_time);
    244a:	cd a0       	ldd	r12, Y+37	; 0x25
    244c:	de a0       	ldd	r13, Y+38	; 0x26
    244e:	ef a0       	ldd	r14, Y+39	; 0x27
    2450:	f8 a4       	ldd	r15, Y+40	; 0x28
    2452:	ea 81       	ldd	r30, Y+2	; 0x02
    2454:	fb 81       	ldd	r31, Y+3	; 0x03
		 * Revisa colisiones y timeouts.
		 *  - currentTime: [uint32_t] Tiempo actual en ms.
		 */
		
		// 1. Pausa post-calibración
		if (isWaitingAfterCalib) {
    2456:	21 8d       	ldd	r18, Z+25	; 0x19
    2458:	22 23       	and	r18, r18
    245a:	39 f1       	breq	.+78     	; 0x24aa <__stack+0x2ab>
			if ((currentTime - stateTimer) >= 200) {
    245c:	42 8d       	ldd	r20, Z+26	; 0x1a
    245e:	53 8d       	ldd	r21, Z+27	; 0x1b
    2460:	64 8d       	ldd	r22, Z+28	; 0x1c
    2462:	75 8d       	ldd	r23, Z+29	; 0x1d
    2464:	d7 01       	movw	r26, r14
    2466:	c6 01       	movw	r24, r12
    2468:	84 1b       	sub	r24, r20
    246a:	95 0b       	sbc	r25, r21
    246c:	a6 0b       	sbc	r26, r22
    246e:	b7 0b       	sbc	r27, r23
    2470:	88 3c       	cpi	r24, 0xC8	; 200
    2472:	91 05       	cpc	r25, r1
    2474:	a1 05       	cpc	r26, r1
    2476:	b1 05       	cpc	r27, r1
    2478:	08 f4       	brcc	.+2      	; 0x247c <__stack+0x27d>
    247a:	8f c0       	rjmp	.+286    	; 0x259a <__stack+0x39b>
				isWaitingAfterCalib = false;
    247c:	11 8e       	std	Z+25, r1	; 0x19
				if (eorSwitch != 0) {
    247e:	a4 85       	ldd	r26, Z+12	; 0x0c
    2480:	b5 85       	ldd	r27, Z+13	; 0x0d
    2482:	10 97       	sbiw	r26, 0x00	; 0
    2484:	09 f4       	brne	.+2      	; 0x2488 <__stack+0x289>
    2486:	89 c0       	rjmp	.+274    	; 0x259a <__stack+0x39b>
					// Asumimos calibración a algún extremo (no en SIDE_MIDDLE)
					if (calibDirection)	eorSwitch->forceState(SwitchMotor2::SIDE_1);
    2488:	86 8d       	ldd	r24, Z+30	; 0x1e
    248a:	88 23       	and	r24, r24
    248c:	39 f0       	breq	.+14     	; 0x249c <__stack+0x29d>
		/* 
		 * ==== forceState(SwState s) ====
		 * Establece el estado del actuador. Debe ser usado tras la calibración.
		 *  - s: [SwState] Estado actual del actuador.
		 */
		currentState = s;
    248e:	81 e0       	ldi	r24, 0x01	; 1
    2490:	17 96       	adiw	r26, 0x07	; 7
    2492:	8c 93       	st	X, r24
    2494:	17 97       	sbiw	r26, 0x07	; 7
		flagPressed = false;
    2496:	19 96       	adiw	r26, 0x09	; 9
    2498:	1c 92       	st	X, r1
    249a:	7f c0       	rjmp	.+254    	; 0x259a <__stack+0x39b>
		/* 
		 * ==== forceState(SwState s) ====
		 * Establece el estado del actuador. Debe ser usado tras la calibración.
		 *  - s: [SwState] Estado actual del actuador.
		 */
		currentState = s;
    249c:	82 e0       	ldi	r24, 0x02	; 2
    249e:	17 96       	adiw	r26, 0x07	; 7
    24a0:	8c 93       	st	X, r24
    24a2:	17 97       	sbiw	r26, 0x07	; 7
		flagPressed = false;
    24a4:	19 96       	adiw	r26, 0x09	; 9
    24a6:	1c 92       	st	X, r1
    24a8:	78 c0       	rjmp	.+240    	; 0x259a <__stack+0x39b>
			}
			return;
		}
		
		// 2. Control del movimiento general
		if (eorSwitch != 0 && isMoving) {
    24aa:	24 85       	ldd	r18, Z+12	; 0x0c
    24ac:	35 85       	ldd	r19, Z+13	; 0x0d
    24ae:	21 15       	cp	r18, r1
    24b0:	31 05       	cpc	r19, r1
    24b2:	09 f4       	brne	.+2      	; 0x24b6 <__stack+0x2b7>
    24b4:	72 c0       	rjmp	.+228    	; 0x259a <__stack+0x39b>
    24b6:	46 85       	ldd	r20, Z+14	; 0x0e
    24b8:	44 23       	and	r20, r20
    24ba:	09 f4       	brne	.+2      	; 0x24be <__stack+0x2bf>
    24bc:	6e c0       	rjmp	.+220    	; 0x259a <__stack+0x39b>
			if (isEscaping) {
    24be:	47 85       	ldd	r20, Z+15	; 0x0f
    24c0:	44 23       	and	r20, r20
    24c2:	59 f1       	breq	.+86     	; 0x251a <__stack+0x31b>
		/* 
		 * ==== isPressed() ====
		 * Devuelve el estado acutal de la seńal del switch.
		 *  - return: [bool] true si el switch está presionado. flase en caso contrario.
		 */
		return !(*pinReg & mask);	// Lógica invertida (Pull-up)
    24c4:	d9 01       	movw	r26, r18
    24c6:	4d 91       	ld	r20, X+
    24c8:	5c 91       	ld	r21, X
    24ca:	da 01       	movw	r26, r20
    24cc:	5c 91       	ld	r21, X
    24ce:	d9 01       	movw	r26, r18
    24d0:	16 96       	adiw	r26, 0x06	; 6
    24d2:	4c 91       	ld	r20, X
    24d4:	45 23       	and	r20, r21
				// Ignora colisiones hasta salir de zona de switch
				if (!eorSwitch->isPressed()) {
    24d6:	e1 f0       	breq	.+56     	; 0x2510 <__stack+0x311>
					if((currentTime - escapeStartTimestamp) > escapeDelay) {
    24d8:	40 89       	ldd	r20, Z+16	; 0x10
    24da:	51 89       	ldd	r21, Z+17	; 0x11
    24dc:	62 89       	ldd	r22, Z+18	; 0x12
    24de:	73 89       	ldd	r23, Z+19	; 0x13
    24e0:	d7 01       	movw	r26, r14
    24e2:	c6 01       	movw	r24, r12
    24e4:	84 1b       	sub	r24, r20
    24e6:	95 0b       	sbc	r25, r21
    24e8:	a6 0b       	sbc	r26, r22
    24ea:	b7 0b       	sbc	r27, r23
    24ec:	44 89       	ldd	r20, Z+20	; 0x14
    24ee:	55 89       	ldd	r21, Z+21	; 0x15
    24f0:	66 89       	ldd	r22, Z+22	; 0x16
    24f2:	77 89       	ldd	r23, Z+23	; 0x17
    24f4:	48 17       	cp	r20, r24
    24f6:	59 07       	cpc	r21, r25
    24f8:	6a 07       	cpc	r22, r26
    24fa:	7b 07       	cpc	r23, r27
    24fc:	08 f0       	brcs	.+2      	; 0x2500 <__stack+0x301>
    24fe:	4d c0       	rjmp	.+154    	; 0x259a <__stack+0x39b>
						isEscaping = false;
    2500:	17 86       	std	Z+15, r1	; 0x0f
		/* 
		 * ==== consumePressedFlag() ====
		 * Comprueba si se pulsó el switch y limpia la bandera.
		 *  - return: [bool] true si hubo un click no procesado, false en caso contrario.
		 */
		if (flagPressed) {
    2502:	f9 01       	movw	r30, r18
    2504:	81 85       	ldd	r24, Z+9	; 0x09
    2506:	88 23       	and	r24, r24
    2508:	09 f4       	brne	.+2      	; 0x250c <__stack+0x30d>
    250a:	47 c0       	rjmp	.+142    	; 0x259a <__stack+0x39b>
			flagPressed = false;
    250c:	11 86       	std	Z+9, r1	; 0x09
    250e:	45 c0       	rjmp	.+138    	; 0x259a <__stack+0x39b>
						eorSwitch->consumePressedFlag(); 
					}
				} else {
					escapeStartTimestamp = currentTime;
    2510:	c0 8a       	std	Z+16, r12	; 0x10
    2512:	d1 8a       	std	Z+17, r13	; 0x11
    2514:	e2 8a       	std	Z+18, r14	; 0x12
    2516:	f3 8a       	std	Z+19, r15	; 0x13
    2518:	40 c0       	rjmp	.+128    	; 0x259a <__stack+0x39b>
		/* 
		 * ==== consumePressedFlag() ====
		 * Comprueba si se pulsó el switch y limpia la bandera.
		 *  - return: [bool] true si hubo un click no procesado, false en caso contrario.
		 */
		if (flagPressed) {
    251a:	d9 01       	movw	r26, r18
    251c:	19 96       	adiw	r26, 0x09	; 9
    251e:	4c 91       	ld	r20, X
    2520:	19 97       	sbiw	r26, 0x09	; 9
    2522:	44 23       	and	r20, r20
    2524:	11 f0       	breq	.+4      	; 0x252a <__stack+0x32b>
			flagPressed = false;
    2526:	19 96       	adiw	r26, 0x09	; 9
    2528:	1c 92       	st	X, r1
				}
			} else {
				// Si se pulsa el switch (a SIDE_MIDDLE o un extremo):
				if(eorSwitch->consumePressedFlag()) {
    252a:	44 23       	and	r20, r20
    252c:	c1 f0       	breq	.+48     	; 0x255e <__stack+0x35f>
		/* 
		 * ==== setSpeed(bool speed) ====
		 * Establece la velociad de rotación del motor.
		 *  - speed: [uint8_t] Velocidad (PWM) de rotación.
		 */
		*ocrPWM = speed;
    252e:	22 85       	ldd	r18, Z+10	; 0x0a
    2530:	33 85       	ldd	r19, Z+11	; 0x0b
    2532:	d9 01       	movw	r26, r18
    2534:	1c 92       	st	X, r1
		/* 
		 * ==== stop() ====
		 * Para el motor, y resetea las variables de estado.
		 */
		setSpeed(0);
		*portEN &= ~maskEN;
    2536:	45 81       	ldd	r20, Z+5	; 0x05
    2538:	56 81       	ldd	r21, Z+6	; 0x06
    253a:	da 01       	movw	r26, r20
    253c:	3c 91       	ld	r19, X
    253e:	21 85       	ldd	r18, Z+9	; 0x09
    2540:	20 95       	com	r18
    2542:	23 23       	and	r18, r19
    2544:	2c 93       	st	X, r18
		isMoving = false;
    2546:	16 86       	std	Z+14, r1	; 0x0e
			} else {
				// Si se pulsa el switch (a SIDE_MIDDLE o un extremo):
				if(eorSwitch->consumePressedFlag()) {
					stop();
				
					if (isCalibrating) {
    2548:	20 8d       	ldd	r18, Z+24	; 0x18
    254a:	22 23       	and	r18, r18
    254c:	31 f1       	breq	.+76     	; 0x259a <__stack+0x39b>
						isCalibrating = false;
    254e:	10 8e       	std	Z+24, r1	; 0x18
						isWaitingAfterCalib = true;
    2550:	21 e0       	ldi	r18, 0x01	; 1
    2552:	21 8f       	std	Z+25, r18	; 0x19
						stateTimer = currentTime;
    2554:	c2 8e       	std	Z+26, r12	; 0x1a
    2556:	d3 8e       	std	Z+27, r13	; 0x1b
    2558:	e4 8e       	std	Z+28, r14	; 0x1c
    255a:	f5 8e       	std	Z+29, r15	; 0x1d
    255c:	1e c0       	rjmp	.+60     	; 0x259a <__stack+0x39b>
					}
				}
				// Timeout de seguridad para calibración.
				else if (isCalibrating && (currentTime - stateTimer) > 10000) {
    255e:	20 8d       	ldd	r18, Z+24	; 0x18
    2560:	22 23       	and	r18, r18
    2562:	d9 f0       	breq	.+54     	; 0x259a <__stack+0x39b>
    2564:	42 8d       	ldd	r20, Z+26	; 0x1a
    2566:	53 8d       	ldd	r21, Z+27	; 0x1b
    2568:	64 8d       	ldd	r22, Z+28	; 0x1c
    256a:	75 8d       	ldd	r23, Z+29	; 0x1d
    256c:	d7 01       	movw	r26, r14
    256e:	c6 01       	movw	r24, r12
    2570:	84 1b       	sub	r24, r20
    2572:	95 0b       	sbc	r25, r21
    2574:	a6 0b       	sbc	r26, r22
    2576:	b7 0b       	sbc	r27, r23
    2578:	81 31       	cpi	r24, 0x11	; 17
    257a:	97 42       	sbci	r25, 0x27	; 39
    257c:	a1 05       	cpc	r26, r1
    257e:	b1 05       	cpc	r27, r1
    2580:	60 f0       	brcs	.+24     	; 0x259a <__stack+0x39b>
		/* 
		 * ==== setSpeed(bool speed) ====
		 * Establece la velociad de rotación del motor.
		 *  - speed: [uint8_t] Velocidad (PWM) de rotación.
		 */
		*ocrPWM = speed;
    2582:	a2 85       	ldd	r26, Z+10	; 0x0a
    2584:	b3 85       	ldd	r27, Z+11	; 0x0b
    2586:	1c 92       	st	X, r1
		/* 
		 * ==== stop() ====
		 * Para el motor, y resetea las variables de estado.
		 */
		setSpeed(0);
		*portEN &= ~maskEN;
    2588:	a5 81       	ldd	r26, Z+5	; 0x05
    258a:	b6 81       	ldd	r27, Z+6	; 0x06
    258c:	9c 91       	ld	r25, X
    258e:	81 85       	ldd	r24, Z+9	; 0x09
    2590:	80 95       	com	r24
    2592:	89 23       	and	r24, r25
    2594:	8c 93       	st	X, r24
		isMoving = false;
    2596:	16 86       	std	Z+14, r1	; 0x0e
					}
				}
				// Timeout de seguridad para calibración.
				else if (isCalibrating && (currentTime - stateTimer) > 10000) {
					stop();
					isCalibrating = false;
    2598:	10 8e       	std	Z+24, r1	; 0x18
			m3->update(current_time);
    259a:	cd a0       	ldd	r12, Y+37	; 0x25
    259c:	de a0       	ldd	r13, Y+38	; 0x26
    259e:	ef a0       	ldd	r14, Y+39	; 0x27
    25a0:	f8 a4       	ldd	r15, Y+40	; 0x28
    25a2:	ec 81       	ldd	r30, Y+4	; 0x04
    25a4:	fd 81       	ldd	r31, Y+5	; 0x05
		 * Revisa colisiones y timeouts.
		 *  - currentTime: [uint32_t] Tiempo actual en ms.
		 */
		
		// 1. Pausa post-calibración
		if (isWaitingAfterCalib) {
    25a6:	21 8d       	ldd	r18, Z+25	; 0x19
    25a8:	22 23       	and	r18, r18
    25aa:	39 f1       	breq	.+78     	; 0x25fa <__stack+0x3fb>
			if ((currentTime - stateTimer) >= 200) {
    25ac:	42 8d       	ldd	r20, Z+26	; 0x1a
    25ae:	53 8d       	ldd	r21, Z+27	; 0x1b
    25b0:	64 8d       	ldd	r22, Z+28	; 0x1c
    25b2:	75 8d       	ldd	r23, Z+29	; 0x1d
    25b4:	d7 01       	movw	r26, r14
    25b6:	c6 01       	movw	r24, r12
    25b8:	84 1b       	sub	r24, r20
    25ba:	95 0b       	sbc	r25, r21
    25bc:	a6 0b       	sbc	r26, r22
    25be:	b7 0b       	sbc	r27, r23
    25c0:	88 3c       	cpi	r24, 0xC8	; 200
    25c2:	91 05       	cpc	r25, r1
    25c4:	a1 05       	cpc	r26, r1
    25c6:	b1 05       	cpc	r27, r1
    25c8:	08 f4       	brcc	.+2      	; 0x25cc <__stack+0x3cd>
    25ca:	8f c0       	rjmp	.+286    	; 0x26ea <__stack+0x4eb>
				isWaitingAfterCalib = false;
    25cc:	11 8e       	std	Z+25, r1	; 0x19
				if (eorSwitch != 0) {
    25ce:	a4 85       	ldd	r26, Z+12	; 0x0c
    25d0:	b5 85       	ldd	r27, Z+13	; 0x0d
    25d2:	10 97       	sbiw	r26, 0x00	; 0
    25d4:	09 f4       	brne	.+2      	; 0x25d8 <__stack+0x3d9>
    25d6:	89 c0       	rjmp	.+274    	; 0x26ea <__stack+0x4eb>
					if (calibDirection)	eorSwitch->forceState(SwitchMotor::SIDE_1);
    25d8:	86 8d       	ldd	r24, Z+30	; 0x1e
    25da:	88 23       	and	r24, r24
    25dc:	39 f0       	breq	.+14     	; 0x25ec <__stack+0x3ed>
		/* 
		 * ==== forceState(SwState s) ====
		 * Establece el estado del actuador. Debe ser usado tras la calibración.
		 *  - s: [SwState] Estado actual del actuador.
		 */
		currentState = s;
    25de:	81 e0       	ldi	r24, 0x01	; 1
    25e0:	17 96       	adiw	r26, 0x07	; 7
    25e2:	8c 93       	st	X, r24
    25e4:	17 97       	sbiw	r26, 0x07	; 7
		flagPressed = false;
    25e6:	18 96       	adiw	r26, 0x08	; 8
    25e8:	1c 92       	st	X, r1
    25ea:	7f c0       	rjmp	.+254    	; 0x26ea <__stack+0x4eb>
		/* 
		 * ==== forceState(SwState s) ====
		 * Establece el estado del actuador. Debe ser usado tras la calibración.
		 *  - s: [SwState] Estado actual del actuador.
		 */
		currentState = s;
    25ec:	82 e0       	ldi	r24, 0x02	; 2
    25ee:	17 96       	adiw	r26, 0x07	; 7
    25f0:	8c 93       	st	X, r24
    25f2:	17 97       	sbiw	r26, 0x07	; 7
		flagPressed = false;
    25f4:	18 96       	adiw	r26, 0x08	; 8
    25f6:	1c 92       	st	X, r1
    25f8:	78 c0       	rjmp	.+240    	; 0x26ea <__stack+0x4eb>
			}
			return;
		}
		
		// 2. Control del movimiento general
		if (eorSwitch != 0 && isMoving) {
    25fa:	24 85       	ldd	r18, Z+12	; 0x0c
    25fc:	35 85       	ldd	r19, Z+13	; 0x0d
    25fe:	21 15       	cp	r18, r1
    2600:	31 05       	cpc	r19, r1
    2602:	09 f4       	brne	.+2      	; 0x2606 <__stack+0x407>
    2604:	72 c0       	rjmp	.+228    	; 0x26ea <__stack+0x4eb>
    2606:	46 85       	ldd	r20, Z+14	; 0x0e
    2608:	44 23       	and	r20, r20
    260a:	09 f4       	brne	.+2      	; 0x260e <__stack+0x40f>
    260c:	6e c0       	rjmp	.+220    	; 0x26ea <__stack+0x4eb>
			if (isEscaping) {
    260e:	47 85       	ldd	r20, Z+15	; 0x0f
    2610:	44 23       	and	r20, r20
    2612:	59 f1       	breq	.+86     	; 0x266a <__stack+0x46b>
		/* 
		 * ==== isPressed() ====
		 * Devuelve el estado acutal de la seńal del switch.
		 *  - return: [bool] true si el switch está presionado. flase en caso contrario.
		 */
		return !(*pinReg & mask);	// Lógica invertida (Pull-up)
    2614:	d9 01       	movw	r26, r18
    2616:	4d 91       	ld	r20, X+
    2618:	5c 91       	ld	r21, X
    261a:	da 01       	movw	r26, r20
    261c:	5c 91       	ld	r21, X
    261e:	d9 01       	movw	r26, r18
    2620:	16 96       	adiw	r26, 0x06	; 6
    2622:	4c 91       	ld	r20, X
    2624:	45 23       	and	r20, r21
				// Ignora colisiones hasta salir de zona de switch
				if (!eorSwitch->isPressed()) {
    2626:	e1 f0       	breq	.+56     	; 0x2660 <__stack+0x461>
					if((currentTime - escapeStartTimestamp) > escapeDelay) {
    2628:	40 89       	ldd	r20, Z+16	; 0x10
    262a:	51 89       	ldd	r21, Z+17	; 0x11
    262c:	62 89       	ldd	r22, Z+18	; 0x12
    262e:	73 89       	ldd	r23, Z+19	; 0x13
    2630:	d7 01       	movw	r26, r14
    2632:	c6 01       	movw	r24, r12
    2634:	84 1b       	sub	r24, r20
    2636:	95 0b       	sbc	r25, r21
    2638:	a6 0b       	sbc	r26, r22
    263a:	b7 0b       	sbc	r27, r23
    263c:	44 89       	ldd	r20, Z+20	; 0x14
    263e:	55 89       	ldd	r21, Z+21	; 0x15
    2640:	66 89       	ldd	r22, Z+22	; 0x16
    2642:	77 89       	ldd	r23, Z+23	; 0x17
    2644:	48 17       	cp	r20, r24
    2646:	59 07       	cpc	r21, r25
    2648:	6a 07       	cpc	r22, r26
    264a:	7b 07       	cpc	r23, r27
    264c:	08 f0       	brcs	.+2      	; 0x2650 <__stack+0x451>
    264e:	4d c0       	rjmp	.+154    	; 0x26ea <__stack+0x4eb>
						isEscaping = false;
    2650:	17 86       	std	Z+15, r1	; 0x0f
		/* 
		 * ==== consumePressedFlag() ====
		 * Comprueba si se pulsó el switch y limpia la bandera.
		 *  - return: [bool] true si hubo un click no procesado, false en caso contrario.
		 */
		if (flagPressed) {
    2652:	f9 01       	movw	r30, r18
    2654:	80 85       	ldd	r24, Z+8	; 0x08
    2656:	88 23       	and	r24, r24
    2658:	09 f4       	brne	.+2      	; 0x265c <__stack+0x45d>
    265a:	47 c0       	rjmp	.+142    	; 0x26ea <__stack+0x4eb>
			flagPressed = false;
    265c:	10 86       	std	Z+8, r1	; 0x08
    265e:	45 c0       	rjmp	.+138    	; 0x26ea <__stack+0x4eb>
						eorSwitch->consumePressedFlag(); 
					}
				} else {
					escapeStartTimestamp = currentTime;
    2660:	c0 8a       	std	Z+16, r12	; 0x10
    2662:	d1 8a       	std	Z+17, r13	; 0x11
    2664:	e2 8a       	std	Z+18, r14	; 0x12
    2666:	f3 8a       	std	Z+19, r15	; 0x13
    2668:	40 c0       	rjmp	.+128    	; 0x26ea <__stack+0x4eb>
		/* 
		 * ==== consumePressedFlag() ====
		 * Comprueba si se pulsó el switch y limpia la bandera.
		 *  - return: [bool] true si hubo un click no procesado, false en caso contrario.
		 */
		if (flagPressed) {
    266a:	d9 01       	movw	r26, r18
    266c:	18 96       	adiw	r26, 0x08	; 8
    266e:	4c 91       	ld	r20, X
    2670:	18 97       	sbiw	r26, 0x08	; 8
    2672:	44 23       	and	r20, r20
    2674:	11 f0       	breq	.+4      	; 0x267a <__stack+0x47b>
			flagPressed = false;
    2676:	18 96       	adiw	r26, 0x08	; 8
    2678:	1c 92       	st	X, r1
				}
			} else {
				// Si se pulsa el switch:
				if(eorSwitch->consumePressedFlag()) {
    267a:	44 23       	and	r20, r20
    267c:	c1 f0       	breq	.+48     	; 0x26ae <__stack+0x4af>
		/* 
		 * ==== setSpeed(bool speed) ====
		 * Establece la velociad de rotación del motor.
		 *  - speed: [uint8_t] Velocidad (PWM) de rotación.
		 */
		*ocrPWM = speed;
    267e:	22 85       	ldd	r18, Z+10	; 0x0a
    2680:	33 85       	ldd	r19, Z+11	; 0x0b
    2682:	d9 01       	movw	r26, r18
    2684:	1c 92       	st	X, r1
		/* 
		 * ==== stop() ====
		 * Para el motor, y resetea las variables de estado.
		 */
		setSpeed(0);
		*portEN &= ~maskEN;
    2686:	45 81       	ldd	r20, Z+5	; 0x05
    2688:	56 81       	ldd	r21, Z+6	; 0x06
    268a:	da 01       	movw	r26, r20
    268c:	3c 91       	ld	r19, X
    268e:	21 85       	ldd	r18, Z+9	; 0x09
    2690:	20 95       	com	r18
    2692:	23 23       	and	r18, r19
    2694:	2c 93       	st	X, r18
		isMoving = false;
    2696:	16 86       	std	Z+14, r1	; 0x0e
			} else {
				// Si se pulsa el switch:
				if(eorSwitch->consumePressedFlag()) {
					stop();
				
					if (isCalibrating) {
    2698:	20 8d       	ldd	r18, Z+24	; 0x18
    269a:	22 23       	and	r18, r18
    269c:	31 f1       	breq	.+76     	; 0x26ea <__stack+0x4eb>
						isCalibrating = false;
    269e:	10 8e       	std	Z+24, r1	; 0x18
						isWaitingAfterCalib = true;
    26a0:	21 e0       	ldi	r18, 0x01	; 1
    26a2:	21 8f       	std	Z+25, r18	; 0x19
						stateTimer = currentTime;
    26a4:	c2 8e       	std	Z+26, r12	; 0x1a
    26a6:	d3 8e       	std	Z+27, r13	; 0x1b
    26a8:	e4 8e       	std	Z+28, r14	; 0x1c
    26aa:	f5 8e       	std	Z+29, r15	; 0x1d
    26ac:	1e c0       	rjmp	.+60     	; 0x26ea <__stack+0x4eb>
					}
				}
				// Timeout de seguridad para calibración.
				else if (isCalibrating && (currentTime - stateTimer) > 10000) {
    26ae:	20 8d       	ldd	r18, Z+24	; 0x18
    26b0:	22 23       	and	r18, r18
    26b2:	d9 f0       	breq	.+54     	; 0x26ea <__stack+0x4eb>
    26b4:	42 8d       	ldd	r20, Z+26	; 0x1a
    26b6:	53 8d       	ldd	r21, Z+27	; 0x1b
    26b8:	64 8d       	ldd	r22, Z+28	; 0x1c
    26ba:	75 8d       	ldd	r23, Z+29	; 0x1d
    26bc:	d7 01       	movw	r26, r14
    26be:	c6 01       	movw	r24, r12
    26c0:	84 1b       	sub	r24, r20
    26c2:	95 0b       	sbc	r25, r21
    26c4:	a6 0b       	sbc	r26, r22
    26c6:	b7 0b       	sbc	r27, r23
    26c8:	81 31       	cpi	r24, 0x11	; 17
    26ca:	97 42       	sbci	r25, 0x27	; 39
    26cc:	a1 05       	cpc	r26, r1
    26ce:	b1 05       	cpc	r27, r1
    26d0:	60 f0       	brcs	.+24     	; 0x26ea <__stack+0x4eb>
		/* 
		 * ==== setSpeed(bool speed) ====
		 * Establece la velociad de rotación del motor.
		 *  - speed: [uint8_t] Velocidad (PWM) de rotación.
		 */
		*ocrPWM = speed;
    26d2:	a2 85       	ldd	r26, Z+10	; 0x0a
    26d4:	b3 85       	ldd	r27, Z+11	; 0x0b
    26d6:	1c 92       	st	X, r1
		/* 
		 * ==== stop() ====
		 * Para el motor, y resetea las variables de estado.
		 */
		setSpeed(0);
		*portEN &= ~maskEN;
    26d8:	a5 81       	ldd	r26, Z+5	; 0x05
    26da:	b6 81       	ldd	r27, Z+6	; 0x06
    26dc:	9c 91       	ld	r25, X
    26de:	81 85       	ldd	r24, Z+9	; 0x09
    26e0:	80 95       	com	r24
    26e2:	89 23       	and	r24, r25
    26e4:	8c 93       	st	X, r24
		isMoving = false;
    26e6:	16 86       	std	Z+14, r1	; 0x0e
					}
				}
				// Timeout de seguridad para calibración.
				else if (isCalibrating && (currentTime - stateTimer) > 10000) {
					stop();
					isCalibrating = false;
    26e8:	10 8e       	std	Z+24, r1	; 0x18
			m4->update(current_time);
    26ea:	cd a0       	ldd	r12, Y+37	; 0x25
    26ec:	de a0       	ldd	r13, Y+38	; 0x26
    26ee:	ef a0       	ldd	r14, Y+39	; 0x27
    26f0:	f8 a4       	ldd	r15, Y+40	; 0x28
    26f2:	ee 81       	ldd	r30, Y+6	; 0x06
    26f4:	ff 81       	ldd	r31, Y+7	; 0x07
		 * Revisa colisiones y timeouts.
		 *  - currentTime: [uint32_t] Tiempo actual en ms.
		 */
		
		// 1. Pausa post-calibración
		if (isWaitingAfterCalib) {
    26f6:	21 8d       	ldd	r18, Z+25	; 0x19
    26f8:	22 23       	and	r18, r18
    26fa:	39 f1       	breq	.+78     	; 0x274a <__stack+0x54b>
			if ((currentTime - stateTimer) >= 200) {
    26fc:	42 8d       	ldd	r20, Z+26	; 0x1a
    26fe:	53 8d       	ldd	r21, Z+27	; 0x1b
    2700:	64 8d       	ldd	r22, Z+28	; 0x1c
    2702:	75 8d       	ldd	r23, Z+29	; 0x1d
    2704:	d7 01       	movw	r26, r14
    2706:	c6 01       	movw	r24, r12
    2708:	84 1b       	sub	r24, r20
    270a:	95 0b       	sbc	r25, r21
    270c:	a6 0b       	sbc	r26, r22
    270e:	b7 0b       	sbc	r27, r23
    2710:	88 3c       	cpi	r24, 0xC8	; 200
    2712:	91 05       	cpc	r25, r1
    2714:	a1 05       	cpc	r26, r1
    2716:	b1 05       	cpc	r27, r1
    2718:	08 f4       	brcc	.+2      	; 0x271c <__stack+0x51d>
    271a:	8f c0       	rjmp	.+286    	; 0x283a <__stack+0x63b>
				isWaitingAfterCalib = false;
    271c:	11 8e       	std	Z+25, r1	; 0x19
				if (eorSwitch != 0) {
    271e:	a4 85       	ldd	r26, Z+12	; 0x0c
    2720:	b5 85       	ldd	r27, Z+13	; 0x0d
    2722:	10 97       	sbiw	r26, 0x00	; 0
    2724:	09 f4       	brne	.+2      	; 0x2728 <__stack+0x529>
    2726:	89 c0       	rjmp	.+274    	; 0x283a <__stack+0x63b>
					if (calibDirection)	eorSwitch->forceState(SwitchMotor::SIDE_1);
    2728:	86 8d       	ldd	r24, Z+30	; 0x1e
    272a:	88 23       	and	r24, r24
    272c:	39 f0       	breq	.+14     	; 0x273c <__stack+0x53d>
		/* 
		 * ==== forceState(SwState s) ====
		 * Establece el estado del actuador. Debe ser usado tras la calibración.
		 *  - s: [SwState] Estado actual del actuador.
		 */
		currentState = s;
    272e:	81 e0       	ldi	r24, 0x01	; 1
    2730:	17 96       	adiw	r26, 0x07	; 7
    2732:	8c 93       	st	X, r24
    2734:	17 97       	sbiw	r26, 0x07	; 7
		flagPressed = false;
    2736:	18 96       	adiw	r26, 0x08	; 8
    2738:	1c 92       	st	X, r1
    273a:	7f c0       	rjmp	.+254    	; 0x283a <__stack+0x63b>
		/* 
		 * ==== forceState(SwState s) ====
		 * Establece el estado del actuador. Debe ser usado tras la calibración.
		 *  - s: [SwState] Estado actual del actuador.
		 */
		currentState = s;
    273c:	82 e0       	ldi	r24, 0x02	; 2
    273e:	17 96       	adiw	r26, 0x07	; 7
    2740:	8c 93       	st	X, r24
    2742:	17 97       	sbiw	r26, 0x07	; 7
		flagPressed = false;
    2744:	18 96       	adiw	r26, 0x08	; 8
    2746:	1c 92       	st	X, r1
    2748:	78 c0       	rjmp	.+240    	; 0x283a <__stack+0x63b>
			}
			return;
		}
		
		// 2. Control del movimiento general
		if (eorSwitch != 0 && isMoving) {
    274a:	24 85       	ldd	r18, Z+12	; 0x0c
    274c:	35 85       	ldd	r19, Z+13	; 0x0d
    274e:	21 15       	cp	r18, r1
    2750:	31 05       	cpc	r19, r1
    2752:	09 f4       	brne	.+2      	; 0x2756 <__stack+0x557>
    2754:	72 c0       	rjmp	.+228    	; 0x283a <__stack+0x63b>
    2756:	46 85       	ldd	r20, Z+14	; 0x0e
    2758:	44 23       	and	r20, r20
    275a:	09 f4       	brne	.+2      	; 0x275e <__stack+0x55f>
    275c:	6e c0       	rjmp	.+220    	; 0x283a <__stack+0x63b>
			if (isEscaping) {
    275e:	47 85       	ldd	r20, Z+15	; 0x0f
    2760:	44 23       	and	r20, r20
    2762:	59 f1       	breq	.+86     	; 0x27ba <__stack+0x5bb>
		/* 
		 * ==== isPressed() ====
		 * Devuelve el estado acutal de la seńal del switch.
		 *  - return: [bool] true si el switch está presionado. flase en caso contrario.
		 */
		return !(*pinReg & mask);	// Lógica invertida (Pull-up)
    2764:	d9 01       	movw	r26, r18
    2766:	4d 91       	ld	r20, X+
    2768:	5c 91       	ld	r21, X
    276a:	da 01       	movw	r26, r20
    276c:	5c 91       	ld	r21, X
    276e:	d9 01       	movw	r26, r18
    2770:	16 96       	adiw	r26, 0x06	; 6
    2772:	4c 91       	ld	r20, X
    2774:	45 23       	and	r20, r21
				// Ignora colisiones hasta salir de zona de switch
				if (!eorSwitch->isPressed()) {
    2776:	e1 f0       	breq	.+56     	; 0x27b0 <__stack+0x5b1>
					if((currentTime - escapeStartTimestamp) > escapeDelay) {
    2778:	40 89       	ldd	r20, Z+16	; 0x10
    277a:	51 89       	ldd	r21, Z+17	; 0x11
    277c:	62 89       	ldd	r22, Z+18	; 0x12
    277e:	73 89       	ldd	r23, Z+19	; 0x13
    2780:	d7 01       	movw	r26, r14
    2782:	c6 01       	movw	r24, r12
    2784:	84 1b       	sub	r24, r20
    2786:	95 0b       	sbc	r25, r21
    2788:	a6 0b       	sbc	r26, r22
    278a:	b7 0b       	sbc	r27, r23
    278c:	44 89       	ldd	r20, Z+20	; 0x14
    278e:	55 89       	ldd	r21, Z+21	; 0x15
    2790:	66 89       	ldd	r22, Z+22	; 0x16
    2792:	77 89       	ldd	r23, Z+23	; 0x17
    2794:	48 17       	cp	r20, r24
    2796:	59 07       	cpc	r21, r25
    2798:	6a 07       	cpc	r22, r26
    279a:	7b 07       	cpc	r23, r27
    279c:	08 f0       	brcs	.+2      	; 0x27a0 <__stack+0x5a1>
    279e:	4d c0       	rjmp	.+154    	; 0x283a <__stack+0x63b>
						isEscaping = false;
    27a0:	17 86       	std	Z+15, r1	; 0x0f
		/* 
		 * ==== consumePressedFlag() ====
		 * Comprueba si se pulsó el switch y limpia la bandera.
		 *  - return: [bool] true si hubo un click no procesado, false en caso contrario.
		 */
		if (flagPressed) {
    27a2:	f9 01       	movw	r30, r18
    27a4:	80 85       	ldd	r24, Z+8	; 0x08
    27a6:	88 23       	and	r24, r24
    27a8:	09 f4       	brne	.+2      	; 0x27ac <__stack+0x5ad>
    27aa:	47 c0       	rjmp	.+142    	; 0x283a <__stack+0x63b>
			flagPressed = false;
    27ac:	10 86       	std	Z+8, r1	; 0x08
    27ae:	45 c0       	rjmp	.+138    	; 0x283a <__stack+0x63b>
						eorSwitch->consumePressedFlag(); 
					}
				} else {
					escapeStartTimestamp = currentTime;
    27b0:	c0 8a       	std	Z+16, r12	; 0x10
    27b2:	d1 8a       	std	Z+17, r13	; 0x11
    27b4:	e2 8a       	std	Z+18, r14	; 0x12
    27b6:	f3 8a       	std	Z+19, r15	; 0x13
    27b8:	40 c0       	rjmp	.+128    	; 0x283a <__stack+0x63b>
		/* 
		 * ==== consumePressedFlag() ====
		 * Comprueba si se pulsó el switch y limpia la bandera.
		 *  - return: [bool] true si hubo un click no procesado, false en caso contrario.
		 */
		if (flagPressed) {
    27ba:	d9 01       	movw	r26, r18
    27bc:	18 96       	adiw	r26, 0x08	; 8
    27be:	4c 91       	ld	r20, X
    27c0:	18 97       	sbiw	r26, 0x08	; 8
    27c2:	44 23       	and	r20, r20
    27c4:	11 f0       	breq	.+4      	; 0x27ca <__stack+0x5cb>
			flagPressed = false;
    27c6:	18 96       	adiw	r26, 0x08	; 8
    27c8:	1c 92       	st	X, r1
				}
			} else {
				// Si se pulsa el switch:
				if(eorSwitch->consumePressedFlag()) {
    27ca:	44 23       	and	r20, r20
    27cc:	c1 f0       	breq	.+48     	; 0x27fe <__stack+0x5ff>
		/* 
		 * ==== setSpeed(bool speed) ====
		 * Establece la velociad de rotación del motor.
		 *  - speed: [uint8_t] Velocidad (PWM) de rotación.
		 */
		*ocrPWM = speed;
    27ce:	22 85       	ldd	r18, Z+10	; 0x0a
    27d0:	33 85       	ldd	r19, Z+11	; 0x0b
    27d2:	d9 01       	movw	r26, r18
    27d4:	1c 92       	st	X, r1
		/* 
		 * ==== stop() ====
		 * Para el motor, y resetea las variables de estado.
		 */
		setSpeed(0);
		*portEN &= ~maskEN;
    27d6:	45 81       	ldd	r20, Z+5	; 0x05
    27d8:	56 81       	ldd	r21, Z+6	; 0x06
    27da:	da 01       	movw	r26, r20
    27dc:	3c 91       	ld	r19, X
    27de:	21 85       	ldd	r18, Z+9	; 0x09
    27e0:	20 95       	com	r18
    27e2:	23 23       	and	r18, r19
    27e4:	2c 93       	st	X, r18
		isMoving = false;
    27e6:	16 86       	std	Z+14, r1	; 0x0e
			} else {
				// Si se pulsa el switch:
				if(eorSwitch->consumePressedFlag()) {
					stop();
				
					if (isCalibrating) {
    27e8:	20 8d       	ldd	r18, Z+24	; 0x18
    27ea:	22 23       	and	r18, r18
    27ec:	31 f1       	breq	.+76     	; 0x283a <__stack+0x63b>
						isCalibrating = false;
    27ee:	10 8e       	std	Z+24, r1	; 0x18
						isWaitingAfterCalib = true;
    27f0:	21 e0       	ldi	r18, 0x01	; 1
    27f2:	21 8f       	std	Z+25, r18	; 0x19
						stateTimer = currentTime;
    27f4:	c2 8e       	std	Z+26, r12	; 0x1a
    27f6:	d3 8e       	std	Z+27, r13	; 0x1b
    27f8:	e4 8e       	std	Z+28, r14	; 0x1c
    27fa:	f5 8e       	std	Z+29, r15	; 0x1d
    27fc:	1e c0       	rjmp	.+60     	; 0x283a <__stack+0x63b>
					}
				}
				// Timeout de seguridad para calibración.
				else if (isCalibrating && (currentTime - stateTimer) > 10000) {
    27fe:	20 8d       	ldd	r18, Z+24	; 0x18
    2800:	22 23       	and	r18, r18
    2802:	d9 f0       	breq	.+54     	; 0x283a <__stack+0x63b>
    2804:	42 8d       	ldd	r20, Z+26	; 0x1a
    2806:	53 8d       	ldd	r21, Z+27	; 0x1b
    2808:	64 8d       	ldd	r22, Z+28	; 0x1c
    280a:	75 8d       	ldd	r23, Z+29	; 0x1d
    280c:	d7 01       	movw	r26, r14
    280e:	c6 01       	movw	r24, r12
    2810:	84 1b       	sub	r24, r20
    2812:	95 0b       	sbc	r25, r21
    2814:	a6 0b       	sbc	r26, r22
    2816:	b7 0b       	sbc	r27, r23
    2818:	81 31       	cpi	r24, 0x11	; 17
    281a:	97 42       	sbci	r25, 0x27	; 39
    281c:	a1 05       	cpc	r26, r1
    281e:	b1 05       	cpc	r27, r1
    2820:	60 f0       	brcs	.+24     	; 0x283a <__stack+0x63b>
		/* 
		 * ==== setSpeed(bool speed) ====
		 * Establece la velociad de rotación del motor.
		 *  - speed: [uint8_t] Velocidad (PWM) de rotación.
		 */
		*ocrPWM = speed;
    2822:	a2 85       	ldd	r26, Z+10	; 0x0a
    2824:	b3 85       	ldd	r27, Z+11	; 0x0b
    2826:	1c 92       	st	X, r1
		/* 
		 * ==== stop() ====
		 * Para el motor, y resetea las variables de estado.
		 */
		setSpeed(0);
		*portEN &= ~maskEN;
    2828:	a5 81       	ldd	r26, Z+5	; 0x05
    282a:	b6 81       	ldd	r27, Z+6	; 0x06
    282c:	9c 91       	ld	r25, X
    282e:	81 85       	ldd	r24, Z+9	; 0x09
    2830:	80 95       	com	r24
    2832:	89 23       	and	r24, r25
    2834:	8c 93       	st	X, r24
		isMoving = false;
    2836:	16 86       	std	Z+14, r1	; 0x0e
					}
				}
				// Timeout de seguridad para calibración.
				else if (isCalibrating && (currentTime - stateTimer) > 10000) {
					stop();
					isCalibrating = false;
    2838:	10 8e       	std	Z+24, r1	; 0x18
			m5->update(current_time);
    283a:	cd a0       	ldd	r12, Y+37	; 0x25
    283c:	de a0       	ldd	r13, Y+38	; 0x26
    283e:	ef a0       	ldd	r14, Y+39	; 0x27
    2840:	f8 a4       	ldd	r15, Y+40	; 0x28
    2842:	e8 85       	ldd	r30, Y+8	; 0x08
    2844:	f9 85       	ldd	r31, Y+9	; 0x09
		 * Revisa colisiones y timeouts.
		 *  - currentTime: [uint32_t] Tiempo actual en ms.
		 */
		
		// 1. Pausa post-calibración
		if (isWaitingAfterCalib) {
    2846:	21 8d       	ldd	r18, Z+25	; 0x19
    2848:	22 23       	and	r18, r18
    284a:	39 f1       	breq	.+78     	; 0x289a <__stack+0x69b>
			if ((currentTime - stateTimer) >= 200) {
    284c:	42 8d       	ldd	r20, Z+26	; 0x1a
    284e:	53 8d       	ldd	r21, Z+27	; 0x1b
    2850:	64 8d       	ldd	r22, Z+28	; 0x1c
    2852:	75 8d       	ldd	r23, Z+29	; 0x1d
    2854:	d7 01       	movw	r26, r14
    2856:	c6 01       	movw	r24, r12
    2858:	84 1b       	sub	r24, r20
    285a:	95 0b       	sbc	r25, r21
    285c:	a6 0b       	sbc	r26, r22
    285e:	b7 0b       	sbc	r27, r23
    2860:	88 3c       	cpi	r24, 0xC8	; 200
    2862:	91 05       	cpc	r25, r1
    2864:	a1 05       	cpc	r26, r1
    2866:	b1 05       	cpc	r27, r1
    2868:	08 f4       	brcc	.+2      	; 0x286c <__stack+0x66d>
    286a:	8f c0       	rjmp	.+286    	; 0x298a <__stack+0x78b>
				isWaitingAfterCalib = false;
    286c:	11 8e       	std	Z+25, r1	; 0x19
				if (eorSwitch != 0) {
    286e:	a4 85       	ldd	r26, Z+12	; 0x0c
    2870:	b5 85       	ldd	r27, Z+13	; 0x0d
    2872:	10 97       	sbiw	r26, 0x00	; 0
    2874:	09 f4       	brne	.+2      	; 0x2878 <__stack+0x679>
    2876:	89 c0       	rjmp	.+274    	; 0x298a <__stack+0x78b>
					if (calibDirection)	eorSwitch->forceState(SwitchMotor::SIDE_1);
    2878:	86 8d       	ldd	r24, Z+30	; 0x1e
    287a:	88 23       	and	r24, r24
    287c:	39 f0       	breq	.+14     	; 0x288c <__stack+0x68d>
		/* 
		 * ==== forceState(SwState s) ====
		 * Establece el estado del actuador. Debe ser usado tras la calibración.
		 *  - s: [SwState] Estado actual del actuador.
		 */
		currentState = s;
    287e:	81 e0       	ldi	r24, 0x01	; 1
    2880:	17 96       	adiw	r26, 0x07	; 7
    2882:	8c 93       	st	X, r24
    2884:	17 97       	sbiw	r26, 0x07	; 7
		flagPressed = false;
    2886:	18 96       	adiw	r26, 0x08	; 8
    2888:	1c 92       	st	X, r1
    288a:	7f c0       	rjmp	.+254    	; 0x298a <__stack+0x78b>
		/* 
		 * ==== forceState(SwState s) ====
		 * Establece el estado del actuador. Debe ser usado tras la calibración.
		 *  - s: [SwState] Estado actual del actuador.
		 */
		currentState = s;
    288c:	82 e0       	ldi	r24, 0x02	; 2
    288e:	17 96       	adiw	r26, 0x07	; 7
    2890:	8c 93       	st	X, r24
    2892:	17 97       	sbiw	r26, 0x07	; 7
		flagPressed = false;
    2894:	18 96       	adiw	r26, 0x08	; 8
    2896:	1c 92       	st	X, r1
    2898:	78 c0       	rjmp	.+240    	; 0x298a <__stack+0x78b>
			}
			return;
		}
		
		// 2. Control del movimiento general
		if (eorSwitch != 0 && isMoving) {
    289a:	24 85       	ldd	r18, Z+12	; 0x0c
    289c:	35 85       	ldd	r19, Z+13	; 0x0d
    289e:	21 15       	cp	r18, r1
    28a0:	31 05       	cpc	r19, r1
    28a2:	09 f4       	brne	.+2      	; 0x28a6 <__stack+0x6a7>
    28a4:	72 c0       	rjmp	.+228    	; 0x298a <__stack+0x78b>
    28a6:	46 85       	ldd	r20, Z+14	; 0x0e
    28a8:	44 23       	and	r20, r20
    28aa:	09 f4       	brne	.+2      	; 0x28ae <__stack+0x6af>
    28ac:	6e c0       	rjmp	.+220    	; 0x298a <__stack+0x78b>
			if (isEscaping) {
    28ae:	47 85       	ldd	r20, Z+15	; 0x0f
    28b0:	44 23       	and	r20, r20
    28b2:	59 f1       	breq	.+86     	; 0x290a <__stack+0x70b>
		/* 
		 * ==== isPressed() ====
		 * Devuelve el estado acutal de la seńal del switch.
		 *  - return: [bool] true si el switch está presionado. flase en caso contrario.
		 */
		return !(*pinReg & mask);	// Lógica invertida (Pull-up)
    28b4:	d9 01       	movw	r26, r18
    28b6:	4d 91       	ld	r20, X+
    28b8:	5c 91       	ld	r21, X
    28ba:	da 01       	movw	r26, r20
    28bc:	5c 91       	ld	r21, X
    28be:	d9 01       	movw	r26, r18
    28c0:	16 96       	adiw	r26, 0x06	; 6
    28c2:	4c 91       	ld	r20, X
    28c4:	45 23       	and	r20, r21
				// Ignora colisiones hasta salir de zona de switch
				if (!eorSwitch->isPressed()) {
    28c6:	e1 f0       	breq	.+56     	; 0x2900 <__stack+0x701>
					if((currentTime - escapeStartTimestamp) > escapeDelay) {
    28c8:	40 89       	ldd	r20, Z+16	; 0x10
    28ca:	51 89       	ldd	r21, Z+17	; 0x11
    28cc:	62 89       	ldd	r22, Z+18	; 0x12
    28ce:	73 89       	ldd	r23, Z+19	; 0x13
    28d0:	d7 01       	movw	r26, r14
    28d2:	c6 01       	movw	r24, r12
    28d4:	84 1b       	sub	r24, r20
    28d6:	95 0b       	sbc	r25, r21
    28d8:	a6 0b       	sbc	r26, r22
    28da:	b7 0b       	sbc	r27, r23
    28dc:	44 89       	ldd	r20, Z+20	; 0x14
    28de:	55 89       	ldd	r21, Z+21	; 0x15
    28e0:	66 89       	ldd	r22, Z+22	; 0x16
    28e2:	77 89       	ldd	r23, Z+23	; 0x17
    28e4:	48 17       	cp	r20, r24
    28e6:	59 07       	cpc	r21, r25
    28e8:	6a 07       	cpc	r22, r26
    28ea:	7b 07       	cpc	r23, r27
    28ec:	08 f0       	brcs	.+2      	; 0x28f0 <__stack+0x6f1>
    28ee:	4d c0       	rjmp	.+154    	; 0x298a <__stack+0x78b>
						isEscaping = false;
    28f0:	17 86       	std	Z+15, r1	; 0x0f
		/* 
		 * ==== consumePressedFlag() ====
		 * Comprueba si se pulsó el switch y limpia la bandera.
		 *  - return: [bool] true si hubo un click no procesado, false en caso contrario.
		 */
		if (flagPressed) {
    28f2:	f9 01       	movw	r30, r18
    28f4:	80 85       	ldd	r24, Z+8	; 0x08
    28f6:	88 23       	and	r24, r24
    28f8:	09 f4       	brne	.+2      	; 0x28fc <__stack+0x6fd>
    28fa:	47 c0       	rjmp	.+142    	; 0x298a <__stack+0x78b>
			flagPressed = false;
    28fc:	10 86       	std	Z+8, r1	; 0x08
    28fe:	45 c0       	rjmp	.+138    	; 0x298a <__stack+0x78b>
						eorSwitch->consumePressedFlag(); 
					}
				} else {
					escapeStartTimestamp = currentTime;
    2900:	c0 8a       	std	Z+16, r12	; 0x10
    2902:	d1 8a       	std	Z+17, r13	; 0x11
    2904:	e2 8a       	std	Z+18, r14	; 0x12
    2906:	f3 8a       	std	Z+19, r15	; 0x13
    2908:	40 c0       	rjmp	.+128    	; 0x298a <__stack+0x78b>
		/* 
		 * ==== consumePressedFlag() ====
		 * Comprueba si se pulsó el switch y limpia la bandera.
		 *  - return: [bool] true si hubo un click no procesado, false en caso contrario.
		 */
		if (flagPressed) {
    290a:	d9 01       	movw	r26, r18
    290c:	18 96       	adiw	r26, 0x08	; 8
    290e:	4c 91       	ld	r20, X
    2910:	18 97       	sbiw	r26, 0x08	; 8
    2912:	44 23       	and	r20, r20
    2914:	11 f0       	breq	.+4      	; 0x291a <__stack+0x71b>
			flagPressed = false;
    2916:	18 96       	adiw	r26, 0x08	; 8
    2918:	1c 92       	st	X, r1
				}
			} else {
				// Si se pulsa el switch:
				if(eorSwitch->consumePressedFlag()) {
    291a:	44 23       	and	r20, r20
    291c:	c1 f0       	breq	.+48     	; 0x294e <__stack+0x74f>
		/* 
		 * ==== setSpeed(bool speed) ====
		 * Establece la velociad de rotación del motor.
		 *  - speed: [uint8_t] Velocidad (PWM) de rotación.
		 */
		*ocrPWM = speed;
    291e:	22 85       	ldd	r18, Z+10	; 0x0a
    2920:	33 85       	ldd	r19, Z+11	; 0x0b
    2922:	d9 01       	movw	r26, r18
    2924:	1c 92       	st	X, r1
		/* 
		 * ==== stop() ====
		 * Para el motor, y resetea las variables de estado.
		 */
		setSpeed(0);
		*portEN &= ~maskEN;
    2926:	45 81       	ldd	r20, Z+5	; 0x05
    2928:	56 81       	ldd	r21, Z+6	; 0x06
    292a:	da 01       	movw	r26, r20
    292c:	3c 91       	ld	r19, X
    292e:	21 85       	ldd	r18, Z+9	; 0x09
    2930:	20 95       	com	r18
    2932:	23 23       	and	r18, r19
    2934:	2c 93       	st	X, r18
		isMoving = false;
    2936:	16 86       	std	Z+14, r1	; 0x0e
			} else {
				// Si se pulsa el switch:
				if(eorSwitch->consumePressedFlag()) {
					stop();
				
					if (isCalibrating) {
    2938:	20 8d       	ldd	r18, Z+24	; 0x18
    293a:	22 23       	and	r18, r18
    293c:	31 f1       	breq	.+76     	; 0x298a <__stack+0x78b>
						isCalibrating = false;
    293e:	10 8e       	std	Z+24, r1	; 0x18
						isWaitingAfterCalib = true;
    2940:	21 e0       	ldi	r18, 0x01	; 1
    2942:	21 8f       	std	Z+25, r18	; 0x19
						stateTimer = currentTime;
    2944:	c2 8e       	std	Z+26, r12	; 0x1a
    2946:	d3 8e       	std	Z+27, r13	; 0x1b
    2948:	e4 8e       	std	Z+28, r14	; 0x1c
    294a:	f5 8e       	std	Z+29, r15	; 0x1d
    294c:	1e c0       	rjmp	.+60     	; 0x298a <__stack+0x78b>
					}
				}
				// Timeout de seguridad para calibración.
				else if (isCalibrating && (currentTime - stateTimer) > 10000) {
    294e:	20 8d       	ldd	r18, Z+24	; 0x18
    2950:	22 23       	and	r18, r18
    2952:	d9 f0       	breq	.+54     	; 0x298a <__stack+0x78b>
    2954:	42 8d       	ldd	r20, Z+26	; 0x1a
    2956:	53 8d       	ldd	r21, Z+27	; 0x1b
    2958:	64 8d       	ldd	r22, Z+28	; 0x1c
    295a:	75 8d       	ldd	r23, Z+29	; 0x1d
    295c:	d7 01       	movw	r26, r14
    295e:	c6 01       	movw	r24, r12
    2960:	84 1b       	sub	r24, r20
    2962:	95 0b       	sbc	r25, r21
    2964:	a6 0b       	sbc	r26, r22
    2966:	b7 0b       	sbc	r27, r23
    2968:	81 31       	cpi	r24, 0x11	; 17
    296a:	97 42       	sbci	r25, 0x27	; 39
    296c:	a1 05       	cpc	r26, r1
    296e:	b1 05       	cpc	r27, r1
    2970:	60 f0       	brcs	.+24     	; 0x298a <__stack+0x78b>
		/* 
		 * ==== setSpeed(bool speed) ====
		 * Establece la velociad de rotación del motor.
		 *  - speed: [uint8_t] Velocidad (PWM) de rotación.
		 */
		*ocrPWM = speed;
    2972:	a2 85       	ldd	r26, Z+10	; 0x0a
    2974:	b3 85       	ldd	r27, Z+11	; 0x0b
    2976:	1c 92       	st	X, r1
		/* 
		 * ==== stop() ====
		 * Para el motor, y resetea las variables de estado.
		 */
		setSpeed(0);
		*portEN &= ~maskEN;
    2978:	a5 81       	ldd	r26, Z+5	; 0x05
    297a:	b6 81       	ldd	r27, Z+6	; 0x06
    297c:	9c 91       	ld	r25, X
    297e:	81 85       	ldd	r24, Z+9	; 0x09
    2980:	80 95       	com	r24
    2982:	89 23       	and	r24, r25
    2984:	8c 93       	st	X, r24
		isMoving = false;
    2986:	16 86       	std	Z+14, r1	; 0x0e
					}
				}
				// Timeout de seguridad para calibración.
				else if (isCalibrating && (currentTime - stateTimer) > 10000) {
					stop();
					isCalibrating = false;
    2988:	10 8e       	std	Z+24, r1	; 0x18
			
			led->update(current_time, is_last_turn);
    298a:	9f 8d       	ldd	r25, Y+31	; 0x1f
    298c:	4d a1       	ldd	r20, Y+37	; 0x25
    298e:	5e a1       	ldd	r21, Y+38	; 0x26
    2990:	6f a1       	ldd	r22, Y+39	; 0x27
    2992:	78 a5       	ldd	r23, Y+40	; 0x28
    2994:	ee 89       	ldd	r30, Y+22	; 0x16
    2996:	ff 89       	ldd	r31, Y+23	; 0x17
		*portReg ^= mask;
	}
	
	void update(uint32_t currentTime, bool lastTurn) {
		// Parpadeo de último turno
		if(isActive) {	
    2998:	85 85       	ldd	r24, Z+13	; 0x0d
    299a:	88 23       	and	r24, r24
    299c:	39 f1       	breq	.+78     	; 0x29ec <__stack+0x7ed>
			if (lastTurn) {
    299e:	99 23       	and	r25, r25
    29a0:	f1 f0       	breq	.+60     	; 0x29de <__stack+0x7df>
				if (currentTime - lastTime >= blinkInterval) {
    29a2:	85 81       	ldd	r24, Z+5	; 0x05
    29a4:	96 81       	ldd	r25, Z+6	; 0x06
    29a6:	a7 81       	ldd	r26, Z+7	; 0x07
    29a8:	b0 85       	ldd	r27, Z+8	; 0x08
    29aa:	8a 01       	movw	r16, r20
    29ac:	9b 01       	movw	r18, r22
    29ae:	08 1b       	sub	r16, r24
    29b0:	19 0b       	sbc	r17, r25
    29b2:	2a 0b       	sbc	r18, r26
    29b4:	3b 0b       	sbc	r19, r27
    29b6:	81 85       	ldd	r24, Z+9	; 0x09
    29b8:	92 85       	ldd	r25, Z+10	; 0x0a
    29ba:	a3 85       	ldd	r26, Z+11	; 0x0b
    29bc:	b4 85       	ldd	r27, Z+12	; 0x0c
    29be:	08 17       	cp	r16, r24
    29c0:	19 07       	cpc	r17, r25
    29c2:	2a 07       	cpc	r18, r26
    29c4:	3b 07       	cpc	r19, r27
    29c6:	c8 f0       	brcs	.+50     	; 0x29fa <__stack+0x7fb>
		isActive = false;
		*portReg &= ~mask;
	}
	
	void toggle() {
		*portReg ^= mask;
    29c8:	a0 81       	ld	r26, Z
    29ca:	b1 81       	ldd	r27, Z+1	; 0x01
    29cc:	9c 91       	ld	r25, X
    29ce:	84 81       	ldd	r24, Z+4	; 0x04
    29d0:	89 27       	eor	r24, r25
    29d2:	8c 93       	st	X, r24
		// Parpadeo de último turno
		if(isActive) {	
			if (lastTurn) {
				if (currentTime - lastTime >= blinkInterval) {
					toggle();
					lastTime = currentTime;
    29d4:	45 83       	std	Z+5, r20	; 0x05
    29d6:	56 83       	std	Z+6, r21	; 0x06
    29d8:	67 83       	std	Z+7, r22	; 0x07
    29da:	70 87       	std	Z+8, r23	; 0x08
    29dc:	0e c0       	rjmp	.+28     	; 0x29fa <__stack+0x7fb>
				}
			} else {
				*portReg |= mask;
    29de:	a0 81       	ld	r26, Z
    29e0:	b1 81       	ldd	r27, Z+1	; 0x01
    29e2:	9c 91       	ld	r25, X
    29e4:	84 81       	ldd	r24, Z+4	; 0x04
    29e6:	89 2b       	or	r24, r25
    29e8:	8c 93       	st	X, r24
    29ea:	07 c0       	rjmp	.+14     	; 0x29fa <__stack+0x7fb>
			}
		} else {
			*portReg &= ~mask;
    29ec:	a0 81       	ld	r26, Z
    29ee:	b1 81       	ldd	r27, Z+1	; 0x01
    29f0:	9c 91       	ld	r25, X
    29f2:	84 81       	ldd	r24, Z+4	; 0x04
    29f4:	80 95       	com	r24
    29f6:	89 23       	and	r24, r25
    29f8:	8c 93       	st	X, r24
			display->update(current_time, !game_running);
    29fa:	88 a1       	ldd	r24, Y+32	; 0x20
    29fc:	cd a0       	ldd	r12, Y+37	; 0x25
    29fe:	de a0       	ldd	r13, Y+38	; 0x26
    2a00:	ef a0       	ldd	r14, Y+39	; 0x27
    2a02:	f8 a4       	ldd	r15, Y+40	; 0x28
    2a04:	08 8d       	ldd	r16, Y+24	; 0x18
    2a06:	19 8d       	ldd	r17, Y+25	; 0x19
		
		showTens = !showTens;
	}
	
	void update(uint32_t currentTime, bool endGame) {
		if (endGame && ((currentTime%1000) >= 900)) {
    2a08:	81 30       	cpi	r24, 0x01	; 1
    2a0a:	31 f1       	breq	.+76     	; 0x2a58 <__stack+0x859>
    2a0c:	c7 01       	movw	r24, r14
    2a0e:	b6 01       	movw	r22, r12
    2a10:	28 ee       	ldi	r18, 0xE8	; 232
    2a12:	33 e0       	ldi	r19, 0x03	; 3
    2a14:	40 e0       	ldi	r20, 0x00	; 0
    2a16:	50 e0       	ldi	r21, 0x00	; 0
    2a18:	0e 94 e5 1a 	call	0x35ca	; 0x35ca <__udivmodsi4>
    2a1c:	64 38       	cpi	r22, 0x84	; 132
    2a1e:	73 40       	sbci	r23, 0x03	; 3
    2a20:	81 05       	cpc	r24, r1
    2a22:	91 05       	cpc	r25, r1
    2a24:	c8 f0       	brcs	.+50     	; 0x2a58 <__stack+0x859>
    2a26:	20 e0       	ldi	r18, 0x00	; 0
		*ddrDS |= maskDS;
		*portDS &= ~maskDS;	
	}
	
	void clear() {
		for (uint8_t i = 0; i<7; i++) {
    2a28:	27 30       	cpi	r18, 0x07	; 7
    2a2a:	08 f0       	brcs	.+2      	; 0x2a2e <__stack+0x82f>
    2a2c:	ef c0       	rjmp	.+478    	; 0x2c0c <__stack+0xa0d>
			*portData[i] &= ~maskData[i];
    2a2e:	82 2f       	mov	r24, r18
    2a30:	90 e0       	ldi	r25, 0x00	; 0
    2a32:	fc 01       	movw	r30, r24
    2a34:	ee 0f       	add	r30, r30
    2a36:	ff 1f       	adc	r31, r31
    2a38:	e0 0f       	add	r30, r16
    2a3a:	f1 1f       	adc	r31, r17
    2a3c:	01 90       	ld	r0, Z+
    2a3e:	f0 81       	ld	r31, Z
    2a40:	e0 2d       	mov	r30, r0
    2a42:	30 81       	ld	r19, Z
    2a44:	d8 01       	movw	r26, r16
    2a46:	a8 0f       	add	r26, r24
    2a48:	b9 1f       	adc	r27, r25
    2a4a:	5c 96       	adiw	r26, 0x1c	; 28
    2a4c:	8c 91       	ld	r24, X
    2a4e:	80 95       	com	r24
    2a50:	83 23       	and	r24, r19
    2a52:	80 83       	st	Z, r24
		*ddrDS |= maskDS;
		*portDS &= ~maskDS;	
	}
	
	void clear() {
		for (uint8_t i = 0; i<7; i++) {
    2a54:	2f 5f       	subi	r18, 0xFF	; 255
    2a56:	e8 cf       	rjmp	.-48     	; 0x2a28 <__stack+0x829>
	
	void update(uint32_t currentTime, bool endGame) {
		if (endGame && ((currentTime%1000) >= 900)) {
			clear(); 
		} else {
			if (currentTime - lastTime >= refreshInterval) {
    2a58:	f8 01       	movw	r30, r16
    2a5a:	84 a9       	ldd	r24, Z+52	; 0x34
    2a5c:	95 a9       	ldd	r25, Z+53	; 0x35
    2a5e:	a6 a9       	ldd	r26, Z+54	; 0x36
    2a60:	b7 a9       	ldd	r27, Z+55	; 0x37
    2a62:	b7 01       	movw	r22, r14
    2a64:	a6 01       	movw	r20, r12
    2a66:	48 1b       	sub	r20, r24
    2a68:	59 0b       	sbc	r21, r25
    2a6a:	6a 0b       	sbc	r22, r26
    2a6c:	7b 0b       	sbc	r23, r27
    2a6e:	80 ad       	ldd	r24, Z+56	; 0x38
    2a70:	91 ad       	ldd	r25, Z+57	; 0x39
    2a72:	a2 ad       	ldd	r26, Z+58	; 0x3a
    2a74:	b3 ad       	ldd	r27, Z+59	; 0x3b
    2a76:	48 17       	cp	r20, r24
    2a78:	59 07       	cpc	r21, r25
    2a7a:	6a 07       	cpc	r22, r26
    2a7c:	7b 07       	cpc	r23, r27
    2a7e:	08 f4       	brcc	.+2      	; 0x2a82 <__stack+0x883>
    2a80:	c5 c0       	rjmp	.+394    	; 0x2c0c <__stack+0xa0d>
		*ddrDS |= maskDS;
		*portDS &= ~maskDS;	
	}
	
	void clear() {
		for (uint8_t i = 0; i<7; i++) {
    2a82:	20 e0       	ldi	r18, 0x00	; 0
    2a84:	27 30       	cpi	r18, 0x07	; 7
    2a86:	a8 f4       	brcc	.+42     	; 0x2ab2 <__stack+0x8b3>
			*portData[i] &= ~maskData[i];
    2a88:	82 2f       	mov	r24, r18
    2a8a:	90 e0       	ldi	r25, 0x00	; 0
    2a8c:	fc 01       	movw	r30, r24
    2a8e:	ee 0f       	add	r30, r30
    2a90:	ff 1f       	adc	r31, r31
    2a92:	e0 0f       	add	r30, r16
    2a94:	f1 1f       	adc	r31, r17
    2a96:	01 90       	ld	r0, Z+
    2a98:	f0 81       	ld	r31, Z
    2a9a:	e0 2d       	mov	r30, r0
    2a9c:	30 81       	ld	r19, Z
    2a9e:	d8 01       	movw	r26, r16
    2aa0:	a8 0f       	add	r26, r24
    2aa2:	b9 1f       	adc	r27, r25
    2aa4:	5c 96       	adiw	r26, 0x1c	; 28
    2aa6:	8c 91       	ld	r24, X
    2aa8:	80 95       	com	r24
    2aaa:	83 23       	and	r24, r19
    2aac:	80 83       	st	Z, r24
		*ddrDS |= maskDS;
		*portDS &= ~maskDS;	
	}
	
	void clear() {
		for (uint8_t i = 0; i<7; i++) {
    2aae:	2f 5f       	subi	r18, 0xFF	; 255
    2ab0:	e9 cf       	rjmp	.-46     	; 0x2a84 <__stack+0x885>
	}
	
	void refresh() {
		clear();
		
		if (showTens) {
    2ab2:	d8 01       	movw	r26, r16
    2ab4:	99 96       	adiw	r26, 0x29	; 41
    2ab6:	8c 91       	ld	r24, X
    2ab8:	99 97       	sbiw	r26, 0x29	; 41
    2aba:	88 23       	and	r24, r24
    2abc:	09 f4       	brne	.+2      	; 0x2ac0 <__stack+0x8c1>
    2abe:	4a c0       	rjmp	.+148    	; 0x2b54 <__stack+0x955>
			uint8_t tens = currentScore/10;
    2ac0:	98 96       	adiw	r26, 0x28	; 40
    2ac2:	8c 91       	ld	r24, X
    2ac4:	98 97       	sbiw	r26, 0x28	; 40
    2ac6:	9d ec       	ldi	r25, 0xCD	; 205
    2ac8:	89 9f       	mul	r24, r25
    2aca:	81 2d       	mov	r24, r1
    2acc:	11 24       	eor	r1, r1
    2ace:	86 95       	lsr	r24
    2ad0:	86 95       	lsr	r24
    2ad2:	86 95       	lsr	r24
			*portDS |= maskDS;
    2ad4:	93 96       	adiw	r26, 0x23	; 35
    2ad6:	ed 91       	ld	r30, X+
    2ad8:	fc 91       	ld	r31, X
    2ada:	94 97       	sbiw	r26, 0x24	; 36
    2adc:	20 81       	ld	r18, Z
    2ade:	97 96       	adiw	r26, 0x27	; 39
    2ae0:	9c 91       	ld	r25, X
    2ae2:	92 2b       	or	r25, r18
    2ae4:	90 83       	st	Z, r25
			*portData[i] &= ~maskData[i];
		}
	}
	
	void printDigit(uint8_t digit) {
		if (digit>9) return;
    2ae6:	8a 30       	cpi	r24, 0x0A	; 10
    2ae8:	08 f0       	brcs	.+2      	; 0x2aec <__stack+0x8ed>
    2aea:	87 c0       	rjmp	.+270    	; 0x2bfa <__stack+0x9fb>
		uint8_t pattern = digits[digit];
    2aec:	f8 01       	movw	r30, r16
    2aee:	e8 0f       	add	r30, r24
    2af0:	f1 1d       	adc	r31, r1
    2af2:	32 a5       	ldd	r19, Z+42	; 0x2a
		
		for (uint8_t i=0; i<7; i++) {
    2af4:	20 e0       	ldi	r18, 0x00	; 0
    2af6:	27 30       	cpi	r18, 0x07	; 7
    2af8:	08 f0       	brcs	.+2      	; 0x2afc <__stack+0x8fd>
    2afa:	7f c0       	rjmp	.+254    	; 0x2bfa <__stack+0x9fb>
			if (pattern & (1<<i)) {
    2afc:	e2 2f       	mov	r30, r18
    2afe:	f0 e0       	ldi	r31, 0x00	; 0
    2b00:	83 2f       	mov	r24, r19
    2b02:	90 e0       	ldi	r25, 0x00	; 0
    2b04:	02 2e       	mov	r0, r18
    2b06:	02 c0       	rjmp	.+4      	; 0x2b0c <__stack+0x90d>
    2b08:	95 95       	asr	r25
    2b0a:	87 95       	ror	r24
    2b0c:	0a 94       	dec	r0
    2b0e:	e2 f7       	brpl	.-8      	; 0x2b08 <__stack+0x909>
    2b10:	80 ff       	sbrs	r24, 0
    2b12:	0f c0       	rjmp	.+30     	; 0x2b32 <__stack+0x933>
				*portData[i] |= maskData[i];
    2b14:	df 01       	movw	r26, r30
    2b16:	aa 0f       	add	r26, r26
    2b18:	bb 1f       	adc	r27, r27
    2b1a:	a0 0f       	add	r26, r16
    2b1c:	b1 1f       	adc	r27, r17
    2b1e:	0d 90       	ld	r0, X+
    2b20:	bc 91       	ld	r27, X
    2b22:	a0 2d       	mov	r26, r0
    2b24:	9c 91       	ld	r25, X
    2b26:	e0 0f       	add	r30, r16
    2b28:	f1 1f       	adc	r31, r17
    2b2a:	84 8d       	ldd	r24, Z+28	; 0x1c
    2b2c:	89 2b       	or	r24, r25
    2b2e:	8c 93       	st	X, r24
    2b30:	0f c0       	rjmp	.+30     	; 0x2b50 <__stack+0x951>
			} else {
				*portData[i] &= ~maskData[i];
    2b32:	df 01       	movw	r26, r30
    2b34:	aa 0f       	add	r26, r26
    2b36:	bb 1f       	adc	r27, r27
    2b38:	a0 0f       	add	r26, r16
    2b3a:	b1 1f       	adc	r27, r17
    2b3c:	0d 90       	ld	r0, X+
    2b3e:	bc 91       	ld	r27, X
    2b40:	a0 2d       	mov	r26, r0
    2b42:	9c 91       	ld	r25, X
    2b44:	e0 0f       	add	r30, r16
    2b46:	f1 1f       	adc	r31, r17
    2b48:	84 8d       	ldd	r24, Z+28	; 0x1c
    2b4a:	80 95       	com	r24
    2b4c:	89 23       	and	r24, r25
    2b4e:	8c 93       	st	X, r24
	
	void printDigit(uint8_t digit) {
		if (digit>9) return;
		uint8_t pattern = digits[digit];
		
		for (uint8_t i=0; i<7; i++) {
    2b50:	2f 5f       	subi	r18, 0xFF	; 255
    2b52:	d1 cf       	rjmp	.-94     	; 0x2af6 <__stack+0x8f7>
		if (showTens) {
			uint8_t tens = currentScore/10;
			*portDS |= maskDS;
			printDigit(tens);
		} else {
			uint8_t units = currentScore%10;
    2b54:	f8 01       	movw	r30, r16
    2b56:	20 a5       	ldd	r18, Z+40	; 0x28
    2b58:	8d ec       	ldi	r24, 0xCD	; 205
    2b5a:	28 9f       	mul	r18, r24
    2b5c:	81 2d       	mov	r24, r1
    2b5e:	11 24       	eor	r1, r1
    2b60:	86 95       	lsr	r24
    2b62:	86 95       	lsr	r24
    2b64:	86 95       	lsr	r24
    2b66:	88 0f       	add	r24, r24
    2b68:	98 2f       	mov	r25, r24
    2b6a:	99 0f       	add	r25, r25
    2b6c:	99 0f       	add	r25, r25
    2b6e:	89 0f       	add	r24, r25
    2b70:	28 1b       	sub	r18, r24
    2b72:	82 2f       	mov	r24, r18
			*portDS &= ~maskDS;
    2b74:	03 a0       	ldd	r0, Z+35	; 0x23
    2b76:	f4 a1       	ldd	r31, Z+36	; 0x24
    2b78:	e0 2d       	mov	r30, r0
    2b7a:	20 81       	ld	r18, Z
    2b7c:	d8 01       	movw	r26, r16
    2b7e:	97 96       	adiw	r26, 0x27	; 39
    2b80:	9c 91       	ld	r25, X
    2b82:	90 95       	com	r25
    2b84:	92 23       	and	r25, r18
    2b86:	90 83       	st	Z, r25
			*portData[i] &= ~maskData[i];
		}
	}
	
	void printDigit(uint8_t digit) {
		if (digit>9) return;
    2b88:	8a 30       	cpi	r24, 0x0A	; 10
    2b8a:	b8 f5       	brcc	.+110    	; 0x2bfa <__stack+0x9fb>
		uint8_t pattern = digits[digit];
    2b8c:	f8 01       	movw	r30, r16
    2b8e:	e8 0f       	add	r30, r24
    2b90:	f1 1d       	adc	r31, r1
    2b92:	62 a5       	ldd	r22, Z+42	; 0x2a
		
		for (uint8_t i=0; i<7; i++) {
    2b94:	80 e0       	ldi	r24, 0x00	; 0
    2b96:	87 30       	cpi	r24, 0x07	; 7
    2b98:	80 f5       	brcc	.+96     	; 0x2bfa <__stack+0x9fb>
			if (pattern & (1<<i)) {
    2b9a:	28 2f       	mov	r18, r24
    2b9c:	30 e0       	ldi	r19, 0x00	; 0
    2b9e:	46 2f       	mov	r20, r22
    2ba0:	50 e0       	ldi	r21, 0x00	; 0
    2ba2:	08 2e       	mov	r0, r24
    2ba4:	02 c0       	rjmp	.+4      	; 0x2baa <__stack+0x9ab>
    2ba6:	55 95       	asr	r21
    2ba8:	47 95       	ror	r20
    2baa:	0a 94       	dec	r0
    2bac:	e2 f7       	brpl	.-8      	; 0x2ba6 <__stack+0x9a7>
    2bae:	40 ff       	sbrs	r20, 0
    2bb0:	11 c0       	rjmp	.+34     	; 0x2bd4 <__stack+0x9d5>
				*portData[i] |= maskData[i];
    2bb2:	f9 01       	movw	r30, r18
    2bb4:	ee 0f       	add	r30, r30
    2bb6:	ff 1f       	adc	r31, r31
    2bb8:	e0 0f       	add	r30, r16
    2bba:	f1 1f       	adc	r31, r17
    2bbc:	01 90       	ld	r0, Z+
    2bbe:	f0 81       	ld	r31, Z
    2bc0:	e0 2d       	mov	r30, r0
    2bc2:	40 81       	ld	r20, Z
    2bc4:	d8 01       	movw	r26, r16
    2bc6:	a2 0f       	add	r26, r18
    2bc8:	b3 1f       	adc	r27, r19
    2bca:	5c 96       	adiw	r26, 0x1c	; 28
    2bcc:	9c 91       	ld	r25, X
    2bce:	94 2b       	or	r25, r20
    2bd0:	90 83       	st	Z, r25
    2bd2:	11 c0       	rjmp	.+34     	; 0x2bf6 <__stack+0x9f7>
			} else {
				*portData[i] &= ~maskData[i];
    2bd4:	f9 01       	movw	r30, r18
    2bd6:	ee 0f       	add	r30, r30
    2bd8:	ff 1f       	adc	r31, r31
    2bda:	e0 0f       	add	r30, r16
    2bdc:	f1 1f       	adc	r31, r17
    2bde:	01 90       	ld	r0, Z+
    2be0:	f0 81       	ld	r31, Z
    2be2:	e0 2d       	mov	r30, r0
    2be4:	40 81       	ld	r20, Z
    2be6:	d8 01       	movw	r26, r16
    2be8:	a2 0f       	add	r26, r18
    2bea:	b3 1f       	adc	r27, r19
    2bec:	5c 96       	adiw	r26, 0x1c	; 28
    2bee:	9c 91       	ld	r25, X
    2bf0:	90 95       	com	r25
    2bf2:	94 23       	and	r25, r20
    2bf4:	90 83       	st	Z, r25
	
	void printDigit(uint8_t digit) {
		if (digit>9) return;
		uint8_t pattern = digits[digit];
		
		for (uint8_t i=0; i<7; i++) {
    2bf6:	8f 5f       	subi	r24, 0xFF	; 255
    2bf8:	ce cf       	rjmp	.-100    	; 0x2b96 <__stack+0x997>
			uint8_t units = currentScore%10;
			*portDS &= ~maskDS;
			printDigit(units);
		}
		
		showTens = !showTens;
    2bfa:	f8 01       	movw	r30, r16
    2bfc:	91 a5       	ldd	r25, Z+41	; 0x29
    2bfe:	81 e0       	ldi	r24, 0x01	; 1
    2c00:	89 27       	eor	r24, r25
    2c02:	81 a7       	std	Z+41, r24	; 0x29
		if (endGame && ((currentTime%1000) >= 900)) {
			clear(); 
		} else {
			if (currentTime - lastTime >= refreshInterval) {
				refresh();
				lastTime = currentTime;
    2c04:	c4 aa       	std	Z+52, r12	; 0x34
    2c06:	d5 aa       	std	Z+53, r13	; 0x35
    2c08:	e6 aa       	std	Z+54, r14	; 0x36
    2c0a:	f7 aa       	std	Z+55, r15	; 0x37
			
			if(game_running && ((current_time-game_start_time) >= 30000)) {
    2c0c:	88 a1       	ldd	r24, Y+32	; 0x20
    2c0e:	88 23       	and	r24, r24
    2c10:	99 f0       	breq	.+38     	; 0x2c38 <__stack+0xa39>
    2c12:	8d a1       	ldd	r24, Y+37	; 0x25
    2c14:	9e a1       	ldd	r25, Y+38	; 0x26
    2c16:	af a1       	ldd	r26, Y+39	; 0x27
    2c18:	b8 a5       	ldd	r27, Y+40	; 0x28
    2c1a:	49 a1       	ldd	r20, Y+33	; 0x21
    2c1c:	5a a1       	ldd	r21, Y+34	; 0x22
    2c1e:	6b a1       	ldd	r22, Y+35	; 0x23
    2c20:	7c a1       	ldd	r23, Y+36	; 0x24
    2c22:	84 1b       	sub	r24, r20
    2c24:	95 0b       	sbc	r25, r21
    2c26:	a6 0b       	sbc	r26, r22
    2c28:	b7 0b       	sbc	r27, r23
    2c2a:	80 33       	cpi	r24, 0x30	; 48
    2c2c:	95 47       	sbci	r25, 0x75	; 117
    2c2e:	a1 05       	cpc	r26, r1
    2c30:	b1 05       	cpc	r27, r1
    2c32:	10 f0       	brcs	.+4      	; 0x2c38 <__stack+0xa39>
				is_last_turn = true;
    2c34:	81 e0       	ldi	r24, 0x01	; 1
    2c36:	8f 8f       	std	Y+31, r24	; 0x1f
		Status() : current_state(States::Init) {}
			
		~Status() = default;
		
		void setState(States new_state) { current_state = new_state; }
		States getState() {return current_state; }
    2c38:	e9 a5       	ldd	r30, Y+41	; 0x29

	void step() {
		status.update_sensors();

		// 1. Get from current state the transition state (if any)
		StateActionBase* current_action = state_actions[static_cast<uint8_t>(status.getState())];
    2c3a:	f0 e0       	ldi	r31, 0x00	; 0
    2c3c:	bc 96       	adiw	r30, 0x2c	; 44
    2c3e:	ee 0f       	add	r30, r30
    2c40:	ff 1f       	adc	r31, r31
    2c42:	ec 0f       	add	r30, r28
    2c44:	fd 1f       	adc	r31, r29
    2c46:	e0 80       	ld	r14, Z
    2c48:	f1 80       	ldd	r15, Z+1	; 0x01
		States next_state = current_action->check_transitions();
    2c4a:	d7 01       	movw	r26, r14
    2c4c:	ed 91       	ld	r30, X+
    2c4e:	fc 91       	ld	r31, X
    2c50:	01 90       	ld	r0, Z+
    2c52:	f0 81       	ld	r31, Z
    2c54:	e0 2d       	mov	r30, r0
    2c56:	c7 01       	movw	r24, r14
    2c58:	09 95       	icall
    2c5a:	18 2f       	mov	r17, r24

		// 2. Perform transition if needed
		if (next_state != States::NO_CHANGE && next_state != status.getState()) {
    2c5c:	8f 3f       	cpi	r24, 0xFF	; 255
    2c5e:	29 f0       	breq	.+10     	; 0x2c6a <__stack+0xa6b>
    2c60:	89 a5       	ldd	r24, Y+41	; 0x29
    2c62:	18 17       	cp	r17, r24
    2c64:	21 f0       	breq	.+8      	; 0x2c6e <__stack+0xa6f>
    2c66:	81 e0       	ldi	r24, 0x01	; 1
    2c68:	03 c0       	rjmp	.+6      	; 0x2c70 <__stack+0xa71>
    2c6a:	80 e0       	ldi	r24, 0x00	; 0
    2c6c:	01 c0       	rjmp	.+2      	; 0x2c70 <__stack+0xa71>
    2c6e:	80 e0       	ldi	r24, 0x00	; 0
    2c70:	88 23       	and	r24, r24
    2c72:	c9 f0       	breq	.+50     	; 0x2ca6 <__stack+0xaa7>
			current_action->exit();
    2c74:	d7 01       	movw	r26, r14
    2c76:	ed 91       	ld	r30, X+
    2c78:	fc 91       	ld	r31, X
    2c7a:	06 80       	ldd	r0, Z+6	; 0x06
    2c7c:	f7 81       	ldd	r31, Z+7	; 0x07
    2c7e:	e0 2d       	mov	r30, r0
    2c80:	c7 01       	movw	r24, r14
    2c82:	09 95       	icall
	public:
		Status() : current_state(States::Init) {}
			
		~Status() = default;
		
		void setState(States new_state) { current_state = new_state; }
    2c84:	19 a7       	std	Y+41, r17	; 0x29
			status.setState(next_state);
			state_actions[static_cast<uint8_t>(status.getState())]->entry();
    2c86:	e1 2f       	mov	r30, r17
    2c88:	f0 e0       	ldi	r31, 0x00	; 0
    2c8a:	bc 96       	adiw	r30, 0x2c	; 44
    2c8c:	ee 0f       	add	r30, r30
    2c8e:	ff 1f       	adc	r31, r31
    2c90:	ec 0f       	add	r30, r28
    2c92:	fd 1f       	adc	r31, r29
    2c94:	80 81       	ld	r24, Z
    2c96:	91 81       	ldd	r25, Z+1	; 0x01
    2c98:	dc 01       	movw	r26, r24
    2c9a:	ed 91       	ld	r30, X+
    2c9c:	fc 91       	ld	r31, X
    2c9e:	02 80       	ldd	r0, Z+2	; 0x02
    2ca0:	f3 81       	ldd	r31, Z+3	; 0x03
    2ca2:	e0 2d       	mov	r30, r0
    2ca4:	09 95       	icall
		States getState() {return current_state; }
    2ca6:	e9 a5       	ldd	r30, Y+41	; 0x29
		}

		// 3. Perform action of the (potentially new) current state
		state_actions[static_cast<uint8_t>(status.getState())]->run();
    2ca8:	f0 e0       	ldi	r31, 0x00	; 0
    2caa:	bc 96       	adiw	r30, 0x2c	; 44
    2cac:	ee 0f       	add	r30, r30
    2cae:	ff 1f       	adc	r31, r31
    2cb0:	ec 0f       	add	r30, r28
    2cb2:	fd 1f       	adc	r31, r29
    2cb4:	80 81       	ld	r24, Z
    2cb6:	91 81       	ldd	r25, Z+1	; 0x01
    2cb8:	dc 01       	movw	r26, r24
    2cba:	ed 91       	ld	r30, X+
    2cbc:	fc 91       	ld	r31, X
    2cbe:	04 80       	ldd	r0, Z+4	; 0x04
    2cc0:	f5 81       	ldd	r31, Z+5	; 0x05
    2cc2:	e0 2d       	mov	r30, r0
    2cc4:	09 95       	icall
    2cc6:	00 ca       	rjmp	.-3072   	; 0x20c8 <_ZN12StateMachine5startEv+0x22>

00002cc8 <__vector_11>:
#include "StateMachine/state_machine.h"
#include "StateMachine/state_actions.h"
#include "StateMachine/status.h"

PinsManager* pinsPtr = 0;
ISR(PCINT2_vect) { if(pinsPtr) pinsPtr->onInterrupt(); }
    2cc8:	1f 92       	push	r1
    2cca:	0f 92       	push	r0
    2ccc:	0f b6       	in	r0, 0x3f	; 63
    2cce:	0f 92       	push	r0
    2cd0:	11 24       	eor	r1, r1
    2cd2:	2f 93       	push	r18
    2cd4:	3f 93       	push	r19
    2cd6:	4f 93       	push	r20
    2cd8:	5f 93       	push	r21
    2cda:	8f 93       	push	r24
    2cdc:	9f 93       	push	r25
    2cde:	ef 93       	push	r30
    2ce0:	ff 93       	push	r31
    2ce2:	e0 91 84 02 	lds	r30, 0x0284	; 0x800284 <pinsPtr>
    2ce6:	f0 91 85 02 	lds	r31, 0x0285	; 0x800285 <pinsPtr+0x1>
    2cea:	30 97       	sbiw	r30, 0x00	; 0
    2cec:	69 f1       	breq	.+90     	; 0x2d48 <__vector_11+0x80>
		/*
		 * ==== onInterrupt() ====
		 * Función ejecutada por ISR(PCINT2_vect).
		 * Emplea máscara para evitar múltiples detecciones de los bolos.
		 */
		uint8_t pinsState = PINK & 0x3F;
    2cee:	50 91 06 01 	lds	r21, 0x0106	; 0x800106 <__TEXT_REGION_LENGTH__+0x7f0106>
    2cf2:	5f 73       	andi	r21, 0x3F	; 63
		
		for (int i=0; i<6; i++) {
    2cf4:	80 e0       	ldi	r24, 0x00	; 0
    2cf6:	90 e0       	ldi	r25, 0x00	; 0
    2cf8:	86 30       	cpi	r24, 0x06	; 6
    2cfa:	91 05       	cpc	r25, r1
    2cfc:	2c f5       	brge	.+74     	; 0x2d48 <__vector_11+0x80>
			// Si no se detecta bolo y en máscara está disponible
			if (!(pinsState & (1<<i)) && (pinsMask & (1<<i))) {
    2cfe:	25 2f       	mov	r18, r21
    2d00:	30 e0       	ldi	r19, 0x00	; 0
    2d02:	08 2e       	mov	r0, r24
    2d04:	02 c0       	rjmp	.+4      	; 0x2d0a <__vector_11+0x42>
    2d06:	35 95       	asr	r19
    2d08:	27 95       	ror	r18
    2d0a:	0a 94       	dec	r0
    2d0c:	e2 f7       	brpl	.-8      	; 0x2d06 <__vector_11+0x3e>
    2d0e:	20 fd       	sbrc	r18, 0
    2d10:	19 c0       	rjmp	.+50     	; 0x2d44 <__vector_11+0x7c>
    2d12:	40 81       	ld	r20, Z
    2d14:	24 2f       	mov	r18, r20
    2d16:	30 e0       	ldi	r19, 0x00	; 0
    2d18:	08 2e       	mov	r0, r24
    2d1a:	02 c0       	rjmp	.+4      	; 0x2d20 <__vector_11+0x58>
    2d1c:	35 95       	asr	r19
    2d1e:	27 95       	ror	r18
    2d20:	0a 94       	dec	r0
    2d22:	e2 f7       	brpl	.-8      	; 0x2d1c <__vector_11+0x54>
    2d24:	20 ff       	sbrs	r18, 0
    2d26:	0e c0       	rjmp	.+28     	; 0x2d44 <__vector_11+0x7c>
				score++;
    2d28:	21 81       	ldd	r18, Z+1	; 0x01
    2d2a:	2f 5f       	subi	r18, 0xFF	; 255
    2d2c:	21 83       	std	Z+1, r18	; 0x01
				pinsMask &= ~(1<<i);	// Marcamos bolo como caido
    2d2e:	21 e0       	ldi	r18, 0x01	; 1
    2d30:	30 e0       	ldi	r19, 0x00	; 0
    2d32:	08 2e       	mov	r0, r24
    2d34:	02 c0       	rjmp	.+4      	; 0x2d3a <__vector_11+0x72>
    2d36:	22 0f       	add	r18, r18
    2d38:	33 1f       	adc	r19, r19
    2d3a:	0a 94       	dec	r0
    2d3c:	e2 f7       	brpl	.-8      	; 0x2d36 <__vector_11+0x6e>
    2d3e:	20 95       	com	r18
    2d40:	42 23       	and	r20, r18
    2d42:	40 83       	st	Z, r20
		 * Función ejecutada por ISR(PCINT2_vect).
		 * Emplea máscara para evitar múltiples detecciones de los bolos.
		 */
		uint8_t pinsState = PINK & 0x3F;
		
		for (int i=0; i<6; i++) {
    2d44:	01 96       	adiw	r24, 0x01	; 1
    2d46:	d8 cf       	rjmp	.-80     	; 0x2cf8 <__vector_11+0x30>
    2d48:	ff 91       	pop	r31
    2d4a:	ef 91       	pop	r30
    2d4c:	9f 91       	pop	r25
    2d4e:	8f 91       	pop	r24
    2d50:	5f 91       	pop	r21
    2d52:	4f 91       	pop	r20
    2d54:	3f 91       	pop	r19
    2d56:	2f 91       	pop	r18
    2d58:	0f 90       	pop	r0
    2d5a:	0f be       	out	0x3f, r0	; 63
    2d5c:	0f 90       	pop	r0
    2d5e:	1f 90       	pop	r1
    2d60:	18 95       	reti

00002d62 <__vector_42>:
	
Timer* timerPtr = 0;
ISR(TIMER4_COMPA_vect) { if(timerPtr) timerPtr->addTick(); }
    2d62:	1f 92       	push	r1
    2d64:	0f 92       	push	r0
    2d66:	0f b6       	in	r0, 0x3f	; 63
    2d68:	0f 92       	push	r0
    2d6a:	11 24       	eor	r1, r1
    2d6c:	8f 93       	push	r24
    2d6e:	9f 93       	push	r25
    2d70:	af 93       	push	r26
    2d72:	bf 93       	push	r27
    2d74:	ef 93       	push	r30
    2d76:	ff 93       	push	r31
    2d78:	e0 91 82 02 	lds	r30, 0x0282	; 0x800282 <__data_end>
    2d7c:	f0 91 83 02 	lds	r31, 0x0283	; 0x800283 <__data_end+0x1>
    2d80:	30 97       	sbiw	r30, 0x00	; 0
    2d82:	59 f0       	breq	.+22     	; 0x2d9a <__vector_42+0x38>
	void addTick() {
		/* 
		 * ==== addTick() ====
		 * Incrementa el reloj. Debe ser llamado exclusivamente durante la ISR.
		 */
		system_millis++;
    2d84:	80 81       	ld	r24, Z
    2d86:	91 81       	ldd	r25, Z+1	; 0x01
    2d88:	a2 81       	ldd	r26, Z+2	; 0x02
    2d8a:	b3 81       	ldd	r27, Z+3	; 0x03
    2d8c:	01 96       	adiw	r24, 0x01	; 1
    2d8e:	a1 1d       	adc	r26, r1
    2d90:	b1 1d       	adc	r27, r1
    2d92:	80 83       	st	Z, r24
    2d94:	91 83       	std	Z+1, r25	; 0x01
    2d96:	a2 83       	std	Z+2, r26	; 0x02
    2d98:	b3 83       	std	Z+3, r27	; 0x03
    2d9a:	ff 91       	pop	r31
    2d9c:	ef 91       	pop	r30
    2d9e:	bf 91       	pop	r27
    2da0:	af 91       	pop	r26
    2da2:	9f 91       	pop	r25
    2da4:	8f 91       	pop	r24
    2da6:	0f 90       	pop	r0
    2da8:	0f be       	out	0x3f, r0	; 63
    2daa:	0f 90       	pop	r0
    2dac:	1f 90       	pop	r1
    2dae:	18 95       	reti

00002db0 <main>:

int main(void) {
    2db0:	cf 93       	push	r28
    2db2:	df 93       	push	r29
    2db4:	cd b7       	in	r28, 0x3d	; 61
    2db6:	de b7       	in	r29, 0x3e	; 62
    2db8:	cb 5e       	subi	r28, 0xEB	; 235
    2dba:	d1 40       	sbci	r29, 0x01	; 1
    2dbc:	0f b6       	in	r0, 0x3f	; 63
    2dbe:	f8 94       	cli
    2dc0:	de bf       	out	0x3e, r29	; 62
    2dc2:	0f be       	out	0x3f, r0	; 63
    2dc4:	cd bf       	out	0x3d, r28	; 61
	bool lastReading;
	bool stableState;
	const uint32_t debounceDelay = 20;	//ms de espera para ignorar ruido mecánico.
	
	public:
	SwitchMotor(volatile uint8_t* pinR, volatile uint8_t* portR, volatile uint8_t* ddrR, uint8_t m) {
    2dc6:	04 e1       	ldi	r16, 0x14	; 20
    2dc8:	10 e0       	ldi	r17, 0x00	; 0
    2dca:	20 e0       	ldi	r18, 0x00	; 0
    2dcc:	30 e0       	ldi	r19, 0x00	; 0
    2dce:	09 8b       	std	Y+17, r16	; 0x11
    2dd0:	1a 8b       	std	Y+18, r17	; 0x12
    2dd2:	2b 8b       	std	Y+19, r18	; 0x13
    2dd4:	3c 8b       	std	Y+20, r19	; 0x14
		pinReg  = pinR;
    2dd6:	66 e0       	ldi	r22, 0x06	; 6
    2dd8:	71 e0       	ldi	r23, 0x01	; 1
    2dda:	7a 83       	std	Y+2, r23	; 0x02
    2ddc:	69 83       	std	Y+1, r22	; 0x01
		portReg = portR;
    2dde:	48 e0       	ldi	r20, 0x08	; 8
    2de0:	51 e0       	ldi	r21, 0x01	; 1
    2de2:	5c 83       	std	Y+4, r21	; 0x04
    2de4:	4b 83       	std	Y+3, r20	; 0x03
		ddrReg  = ddrR;
    2de6:	87 e0       	ldi	r24, 0x07	; 7
    2de8:	91 e0       	ldi	r25, 0x01	; 1
    2dea:	9e 83       	std	Y+6, r25	; 0x06
    2dec:	8d 83       	std	Y+5, r24	; 0x05
		mask    = m;
    2dee:	68 94       	set
    2df0:	99 24       	eor	r9, r9
    2df2:	96 f8       	bld	r9, 6
    2df4:	9f 82       	std	Y+7, r9	; 0x07
		currentState = MOVING;
    2df6:	18 86       	std	Y+8, r1	; 0x08
		flagPressed = false;
    2df8:	19 86       	std	Y+9, r1	; 0x09
		expectedDirection = false;
    2dfa:	1a 86       	std	Y+10, r1	; 0x0a
		
		lastDebounceTimestamp = 0;
    2dfc:	1b 86       	std	Y+11, r1	; 0x0b
    2dfe:	1c 86       	std	Y+12, r1	; 0x0c
    2e00:	1d 86       	std	Y+13, r1	; 0x0d
    2e02:	1e 86       	std	Y+14, r1	; 0x0e
		lastReading = false;
    2e04:	1f 86       	std	Y+15, r1	; 0x0f
		stableState = false;
    2e06:	18 8a       	std	Y+16, r1	; 0x10
	bool lastReading;
	bool stableState;
	const uint32_t debounceDelay = 20;	//ms de espera para ignorar ruido mecánico.
	
	public:
	SwitchMotor2(volatile uint8_t* pinR, volatile uint8_t* portR, volatile uint8_t* ddrR, uint8_t m) {
    2e08:	0e a3       	std	Y+38, r16	; 0x26
    2e0a:	1f a3       	std	Y+39, r17	; 0x27
    2e0c:	28 a7       	std	Y+40, r18	; 0x28
    2e0e:	39 a7       	std	Y+41, r19	; 0x29
		pinReg  = pinR;
    2e10:	7e 8b       	std	Y+22, r23	; 0x16
    2e12:	6d 8b       	std	Y+21, r22	; 0x15
		portReg = portR;
    2e14:	58 8f       	std	Y+24, r21	; 0x18
    2e16:	4f 8b       	std	Y+23, r20	; 0x17
		ddrReg  = ddrR;
    2e18:	9a 8f       	std	Y+26, r25	; 0x1a
    2e1a:	89 8f       	std	Y+25, r24	; 0x19
		mask    = m;
    2e1c:	68 94       	set
    2e1e:	aa 24       	eor	r10, r10
    2e20:	a7 f8       	bld	r10, 7
    2e22:	ab 8e       	std	Y+27, r10	; 0x1b
		currentState = MOVING;
    2e24:	1c 8e       	std	Y+28, r1	; 0x1c
		nextExpectedState = SIDE_1;
    2e26:	77 24       	eor	r7, r7
    2e28:	73 94       	inc	r7
    2e2a:	7d 8e       	std	Y+29, r7	; 0x1d
		flagPressed = false;
    2e2c:	1e 8e       	std	Y+30, r1	; 0x1e
		expectedDirection = false;
    2e2e:	1f 8e       	std	Y+31, r1	; 0x1f
		
		lastDebounceTimestamp = 0;
    2e30:	18 a2       	std	Y+32, r1	; 0x20
    2e32:	19 a2       	std	Y+33, r1	; 0x21
    2e34:	1a a2       	std	Y+34, r1	; 0x22
    2e36:	1b a2       	std	Y+35, r1	; 0x23
		lastReading = false;
    2e38:	1c a2       	std	Y+36, r1	; 0x24
		stableState = false;
    2e3a:	1d a2       	std	Y+37, r1	; 0x25
	bool lastReading;
	bool stableState;
	const uint32_t debounceDelay = 20;	//ms de espera para ignorar ruido mecánico.
	
	public:
	SwitchMotor(volatile uint8_t* pinR, volatile uint8_t* portR, volatile uint8_t* ddrR, uint8_t m) {
    2e3c:	0a af       	std	Y+58, r16	; 0x3a
    2e3e:	1b af       	std	Y+59, r17	; 0x3b
    2e40:	2c af       	std	Y+60, r18	; 0x3c
    2e42:	3d af       	std	Y+61, r19	; 0x3d
		pinReg  = pinR;
    2e44:	89 e2       	ldi	r24, 0x29	; 41
    2e46:	90 e0       	ldi	r25, 0x00	; 0
    2e48:	9b a7       	std	Y+43, r25	; 0x2b
    2e4a:	8a a7       	std	Y+42, r24	; 0x2a
		portReg = portR;
    2e4c:	6b e2       	ldi	r22, 0x2B	; 43
    2e4e:	70 e0       	ldi	r23, 0x00	; 0
    2e50:	7d a7       	std	Y+45, r23	; 0x2d
    2e52:	6c a7       	std	Y+44, r22	; 0x2c
		ddrReg  = ddrR;
    2e54:	4a e2       	ldi	r20, 0x2A	; 42
    2e56:	50 e0       	ldi	r21, 0x00	; 0
    2e58:	5f a7       	std	Y+47, r21	; 0x2f
    2e5a:	4e a7       	std	Y+46, r20	; 0x2e
		mask    = m;
    2e5c:	78 aa       	std	Y+48, r7	; 0x30
		currentState = MOVING;
    2e5e:	19 aa       	std	Y+49, r1	; 0x31
		flagPressed = false;
    2e60:	1a aa       	std	Y+50, r1	; 0x32
		expectedDirection = false;
    2e62:	1b aa       	std	Y+51, r1	; 0x33
		
		lastDebounceTimestamp = 0;
    2e64:	1c aa       	std	Y+52, r1	; 0x34
    2e66:	1d aa       	std	Y+53, r1	; 0x35
    2e68:	1e aa       	std	Y+54, r1	; 0x36
    2e6a:	1f aa       	std	Y+55, r1	; 0x37
		lastReading = false;
    2e6c:	18 ae       	std	Y+56, r1	; 0x38
		stableState = false;
    2e6e:	19 ae       	std	Y+57, r1	; 0x39
	bool lastReading;
	bool stableState;
	const uint32_t debounceDelay = 20;	//ms de espera para ignorar ruido mecánico.
	
	public:
	SwitchMotor(volatile uint8_t* pinR, volatile uint8_t* portR, volatile uint8_t* ddrR, uint8_t m) {
    2e70:	de 01       	movw	r26, r28
    2e72:	de 96       	adiw	r26, 0x3e	; 62
    2e74:	50 96       	adiw	r26, 0x10	; 16
    2e76:	0d 93       	st	X+, r16
    2e78:	1d 93       	st	X+, r17
    2e7a:	2d 93       	st	X+, r18
    2e7c:	3c 93       	st	X, r19
    2e7e:	53 97       	sbiw	r26, 0x13	; 19
		pinReg  = pinR;
    2e80:	9f af       	std	Y+63, r25	; 0x3f
    2e82:	8e af       	std	Y+62, r24	; 0x3e
		portReg = portR;
    2e84:	22 96       	adiw	r28, 0x02	; 2
    2e86:	7f af       	std	Y+63, r23	; 0x3f
    2e88:	6e af       	std	Y+62, r22	; 0x3e
    2e8a:	22 97       	sbiw	r28, 0x02	; 2
		ddrReg  = ddrR;
    2e8c:	24 96       	adiw	r28, 0x04	; 4
    2e8e:	5f af       	std	Y+63, r21	; 0x3f
    2e90:	4e af       	std	Y+62, r20	; 0x3e
    2e92:	24 97       	sbiw	r28, 0x04	; 4
		mask    = m;
    2e94:	68 94       	set
    2e96:	66 24       	eor	r6, r6
    2e98:	61 f8       	bld	r6, 1
    2e9a:	25 96       	adiw	r28, 0x05	; 5
    2e9c:	6f ae       	std	Y+63, r6	; 0x3f
    2e9e:	25 97       	sbiw	r28, 0x05	; 5
		currentState = MOVING;
    2ea0:	26 96       	adiw	r28, 0x06	; 6
    2ea2:	1f ae       	std	Y+63, r1	; 0x3f
    2ea4:	26 97       	sbiw	r28, 0x06	; 6
		flagPressed = false;
    2ea6:	27 96       	adiw	r28, 0x07	; 7
    2ea8:	1f ae       	std	Y+63, r1	; 0x3f
    2eaa:	27 97       	sbiw	r28, 0x07	; 7
		expectedDirection = false;
    2eac:	28 96       	adiw	r28, 0x08	; 8
    2eae:	1f ae       	std	Y+63, r1	; 0x3f
    2eb0:	28 97       	sbiw	r28, 0x08	; 8
		
		lastDebounceTimestamp = 0;
    2eb2:	1a 96       	adiw	r26, 0x0a	; 10
    2eb4:	1d 92       	st	X+, r1
    2eb6:	1d 92       	st	X+, r1
    2eb8:	1d 92       	st	X+, r1
    2eba:	1c 92       	st	X, r1
    2ebc:	1d 97       	sbiw	r26, 0x0d	; 13
		lastReading = false;
    2ebe:	2d 96       	adiw	r28, 0x0d	; 13
    2ec0:	1f ae       	std	Y+63, r1	; 0x3f
    2ec2:	2d 97       	sbiw	r28, 0x0d	; 13
		stableState = false;
    2ec4:	2e 96       	adiw	r28, 0x0e	; 14
    2ec6:	1f ae       	std	Y+63, r1	; 0x3f
    2ec8:	2e 97       	sbiw	r28, 0x0e	; 14
	bool lastReading;
	bool stableState;
	const uint32_t debounceDelay = 20;	//ms de espera para ignorar ruido mecánico.
	
	public:
	SwitchMotor(volatile uint8_t* pinR, volatile uint8_t* portR, volatile uint8_t* ddrR, uint8_t m) {
    2eca:	fe 01       	movw	r30, r28
    2ecc:	ee 5a       	subi	r30, 0xAE	; 174
    2ece:	ff 4f       	sbci	r31, 0xFF	; 255
    2ed0:	00 8b       	std	Z+16, r16	; 0x10
    2ed2:	11 8b       	std	Z+17, r17	; 0x11
    2ed4:	22 8b       	std	Z+18, r18	; 0x12
    2ed6:	33 8b       	std	Z+19, r19	; 0x13
		pinReg  = pinR;
    2ed8:	91 83       	std	Z+1, r25	; 0x01
    2eda:	80 83       	st	Z, r24
		portReg = portR;
    2edc:	73 83       	std	Z+3, r23	; 0x03
    2ede:	62 83       	std	Z+2, r22	; 0x02
		ddrReg  = ddrR;
    2ee0:	55 83       	std	Z+5, r21	; 0x05
    2ee2:	44 83       	std	Z+4, r20	; 0x04
		mask    = m;
    2ee4:	68 94       	set
    2ee6:	88 24       	eor	r8, r8
    2ee8:	82 f8       	bld	r8, 2
    2eea:	86 82       	std	Z+6, r8	; 0x06
		currentState = MOVING;
    2eec:	17 82       	std	Z+7, r1	; 0x07
		flagPressed = false;
    2eee:	10 86       	std	Z+8, r1	; 0x08
		expectedDirection = false;
    2ef0:	11 86       	std	Z+9, r1	; 0x09
		
		lastDebounceTimestamp = 0;
    2ef2:	12 86       	std	Z+10, r1	; 0x0a
    2ef4:	13 86       	std	Z+11, r1	; 0x0b
    2ef6:	14 86       	std	Z+12, r1	; 0x0c
    2ef8:	15 86       	std	Z+13, r1	; 0x0d
		lastReading = false;
    2efa:	16 86       	std	Z+14, r1	; 0x0e
		stableState = false;
    2efc:	17 86       	std	Z+15, r1	; 0x0f
	bool lastState;
	bool stableState;
	bool flagPressed;
	
	public:
	SwitchUser(volatile uint8_t* pinR, volatile uint8_t* portR, volatile uint8_t* ddrR, uint8_t m) {
    2efe:	02 e3       	ldi	r16, 0x32	; 50
    2f00:	10 e0       	ldi	r17, 0x00	; 0
    2f02:	20 e0       	ldi	r18, 0x00	; 0
    2f04:	30 e0       	ldi	r19, 0x00	; 0
    2f06:	e5 96       	adiw	r28, 0x35	; 53
    2f08:	0c af       	std	Y+60, r16	; 0x3c
    2f0a:	1d af       	std	Y+61, r17	; 0x3d
    2f0c:	2e af       	std	Y+62, r18	; 0x3e
    2f0e:	3f af       	std	Y+63, r19	; 0x3f
    2f10:	e5 97       	sbiw	r28, 0x35	; 53
		pinReg = pinR;
    2f12:	a8 96       	adiw	r28, 0x28	; 40
    2f14:	9f af       	std	Y+63, r25	; 0x3f
    2f16:	8e af       	std	Y+62, r24	; 0x3e
    2f18:	a8 97       	sbiw	r28, 0x28	; 40
		portReg = portR;
    2f1a:	aa 96       	adiw	r28, 0x2a	; 42
    2f1c:	7f af       	std	Y+63, r23	; 0x3f
    2f1e:	6e af       	std	Y+62, r22	; 0x3e
    2f20:	aa 97       	sbiw	r28, 0x2a	; 42
		ddrReg = ddrR;
    2f22:	ac 96       	adiw	r28, 0x2c	; 44
    2f24:	5f af       	std	Y+63, r21	; 0x3f
    2f26:	4e af       	std	Y+62, r20	; 0x3e
    2f28:	ac 97       	sbiw	r28, 0x2c	; 44
		mask = m;
    2f2a:	68 94       	set
    2f2c:	bb 24       	eor	r11, r11
    2f2e:	b3 f8       	bld	r11, 3
    2f30:	ad 96       	adiw	r28, 0x2d	; 45
    2f32:	bf ae       	std	Y+63, r11	; 0x3f
    2f34:	ad 97       	sbiw	r28, 0x2d	; 45
		
		lastChangeTimestamp = 0;
    2f36:	e1 96       	adiw	r28, 0x31	; 49
    2f38:	1c ae       	std	Y+60, r1	; 0x3c
    2f3a:	1d ae       	std	Y+61, r1	; 0x3d
    2f3c:	1e ae       	std	Y+62, r1	; 0x3e
    2f3e:	1f ae       	std	Y+63, r1	; 0x3f
    2f40:	e1 97       	sbiw	r28, 0x31	; 49
		lastState = false;
    2f42:	e6 96       	adiw	r28, 0x36	; 54
    2f44:	1f ae       	std	Y+63, r1	; 0x3f
    2f46:	e6 97       	sbiw	r28, 0x36	; 54
		stableState = false;
    2f48:	e7 96       	adiw	r28, 0x37	; 55
    2f4a:	1f ae       	std	Y+63, r1	; 0x3f
    2f4c:	e7 97       	sbiw	r28, 0x37	; 55
		flagPressed = false;
    2f4e:	e8 96       	adiw	r28, 0x38	; 56
    2f50:	1f ae       	std	Y+63, r1	; 0x3f
    2f52:	e8 97       	sbiw	r28, 0x38	; 56
	Motor(
		volatile uint8_t* pDIR, volatile uint8_t* dDIR, uint8_t mDIR,
		volatile uint8_t* pEN,  volatile uint8_t* dEN,  uint8_t mEN,
		volatile uint8_t* rPWM,
		SwitchMotor* sw = 0
	) {
    2f54:	0f 2e       	mov	r0, r31
    2f56:	f4 e6       	ldi	r31, 0x64	; 100
    2f58:	cf 2e       	mov	r12, r31
    2f5a:	d1 2c       	mov	r13, r1
    2f5c:	e1 2c       	mov	r14, r1
    2f5e:	f1 2c       	mov	r15, r1
    2f60:	f0 2d       	mov	r31, r0
    2f62:	c4 57       	subi	r28, 0x74	; 116
    2f64:	df 4f       	sbci	r29, 0xFF	; 255
    2f66:	c8 82       	st	Y, r12
    2f68:	d9 82       	std	Y+1, r13	; 0x01
    2f6a:	ea 82       	std	Y+2, r14	; 0x02
    2f6c:	fb 82       	std	Y+3, r15	; 0x03
    2f6e:	cc 58       	subi	r28, 0x8C	; 140
    2f70:	d0 40       	sbci	r29, 0x00	; 0
		portDIR = pDIR; ddrDIR = dDIR; maskDIR = mDIR;
    2f72:	25 e2       	ldi	r18, 0x25	; 37
    2f74:	30 e0       	ldi	r19, 0x00	; 0
    2f76:	ea 96       	adiw	r28, 0x3a	; 58
    2f78:	3f af       	std	Y+63, r19	; 0x3f
    2f7a:	2e af       	std	Y+62, r18	; 0x3e
    2f7c:	ea 97       	sbiw	r28, 0x3a	; 58
    2f7e:	84 e2       	ldi	r24, 0x24	; 36
    2f80:	90 e0       	ldi	r25, 0x00	; 0
    2f82:	ec 96       	adiw	r28, 0x3c	; 60
    2f84:	9f af       	std	Y+63, r25	; 0x3f
    2f86:	8e af       	std	Y+62, r24	; 0x3e
    2f88:	ec 97       	sbiw	r28, 0x3c	; 60
    2f8a:	ed 96       	adiw	r28, 0x3d	; 61
    2f8c:	7f ae       	std	Y+63, r7	; 0x3f
    2f8e:	ed 97       	sbiw	r28, 0x3d	; 61
		portEN  = pEN;  ddrEN  = dEN;  maskEN  = mEN;
    2f90:	ef 96       	adiw	r28, 0x3f	; 63
    2f92:	3f af       	std	Y+63, r19	; 0x3f
    2f94:	2e af       	std	Y+62, r18	; 0x3e
    2f96:	ef 97       	sbiw	r28, 0x3f	; 63
    2f98:	c1 58       	subi	r28, 0x81	; 129
    2f9a:	df 4f       	sbci	r29, 0xFF	; 255
    2f9c:	99 83       	std	Y+1, r25	; 0x01
    2f9e:	88 83       	st	Y, r24
    2fa0:	cf 57       	subi	r28, 0x7F	; 127
    2fa2:	d0 40       	sbci	r29, 0x00	; 0
    2fa4:	68 94       	set
    2fa6:	77 24       	eor	r7, r7
    2fa8:	74 f8       	bld	r7, 4
    2faa:	cf 57       	subi	r28, 0x7F	; 127
    2fac:	df 4f       	sbci	r29, 0xFF	; 255
    2fae:	78 82       	st	Y, r7
    2fb0:	c1 58       	subi	r28, 0x81	; 129
    2fb2:	d0 40       	sbci	r29, 0x00	; 0
		ocrPWM  = rPWM;
    2fb4:	03 eb       	ldi	r16, 0xB3	; 179
    2fb6:	10 e0       	ldi	r17, 0x00	; 0
    2fb8:	ce 57       	subi	r28, 0x7E	; 126
    2fba:	df 4f       	sbci	r29, 0xFF	; 255
    2fbc:	19 83       	std	Y+1, r17	; 0x01
    2fbe:	08 83       	st	Y, r16
    2fc0:	c2 58       	subi	r28, 0x82	; 130
    2fc2:	d0 40       	sbci	r29, 0x00	; 0
		eorSwitch = sw;
    2fc4:	8e 01       	movw	r16, r28
    2fc6:	0f 5f       	subi	r16, 0xFF	; 255
    2fc8:	1f 4f       	sbci	r17, 0xFF	; 255
    2fca:	cc 57       	subi	r28, 0x7C	; 124
    2fcc:	df 4f       	sbci	r29, 0xFF	; 255
    2fce:	19 83       	std	Y+1, r17	; 0x01
    2fd0:	08 83       	st	Y, r16
    2fd2:	c4 58       	subi	r28, 0x84	; 132
    2fd4:	d0 40       	sbci	r29, 0x00	; 0
		
		isMoving = false;
    2fd6:	ca 57       	subi	r28, 0x7A	; 122
    2fd8:	df 4f       	sbci	r29, 0xFF	; 255
    2fda:	18 82       	st	Y, r1
    2fdc:	c6 58       	subi	r28, 0x86	; 134
    2fde:	d0 40       	sbci	r29, 0x00	; 0
		isEscaping = false;
    2fe0:	c9 57       	subi	r28, 0x79	; 121
    2fe2:	df 4f       	sbci	r29, 0xFF	; 255
    2fe4:	18 82       	st	Y, r1
    2fe6:	c7 58       	subi	r28, 0x87	; 135
    2fe8:	d0 40       	sbci	r29, 0x00	; 0
		isCalibrating = false;
    2fea:	c0 57       	subi	r28, 0x70	; 112
    2fec:	df 4f       	sbci	r29, 0xFF	; 255
    2fee:	18 82       	st	Y, r1
    2ff0:	c0 59       	subi	r28, 0x90	; 144
    2ff2:	d0 40       	sbci	r29, 0x00	; 0
		isWaitingAfterCalib = false;
    2ff4:	cf 56       	subi	r28, 0x6F	; 111
    2ff6:	df 4f       	sbci	r29, 0xFF	; 255
    2ff8:	18 82       	st	Y, r1
    2ffa:	c1 59       	subi	r28, 0x91	; 145
    2ffc:	d0 40       	sbci	r29, 0x00	; 0
	Motor2(
		volatile uint8_t* pDIR, volatile uint8_t* dDIR, uint8_t mDIR,
		volatile uint8_t* pEN,  volatile uint8_t* dEN,  uint8_t mEN,
		volatile uint8_t* rPWM,
		SwitchMotor2* sw = 0
	) {
    2ffe:	c5 55       	subi	r28, 0x55	; 85
    3000:	df 4f       	sbci	r29, 0xFF	; 255
    3002:	c8 82       	st	Y, r12
    3004:	d9 82       	std	Y+1, r13	; 0x01
    3006:	ea 82       	std	Y+2, r14	; 0x02
    3008:	fb 82       	std	Y+3, r15	; 0x03
    300a:	cb 5a       	subi	r28, 0xAB	; 171
    300c:	d0 40       	sbci	r29, 0x00	; 0
		portDIR = pDIR; ddrDIR = dDIR; maskDIR = mDIR;
    300e:	c9 56       	subi	r28, 0x69	; 105
    3010:	df 4f       	sbci	r29, 0xFF	; 255
    3012:	39 83       	std	Y+1, r19	; 0x01
    3014:	28 83       	st	Y, r18
    3016:	c7 59       	subi	r28, 0x97	; 151
    3018:	d0 40       	sbci	r29, 0x00	; 0
    301a:	c7 56       	subi	r28, 0x67	; 103
    301c:	df 4f       	sbci	r29, 0xFF	; 255
    301e:	99 83       	std	Y+1, r25	; 0x01
    3020:	88 83       	st	Y, r24
    3022:	c9 59       	subi	r28, 0x99	; 153
    3024:	d0 40       	sbci	r29, 0x00	; 0
    3026:	c5 56       	subi	r28, 0x65	; 101
    3028:	df 4f       	sbci	r29, 0xFF	; 255
    302a:	68 82       	st	Y, r6
    302c:	cb 59       	subi	r28, 0x9B	; 155
    302e:	d0 40       	sbci	r29, 0x00	; 0
		portEN  = pEN;  ddrEN  = dEN;  maskEN  = mEN;
    3030:	c4 56       	subi	r28, 0x64	; 100
    3032:	df 4f       	sbci	r29, 0xFF	; 255
    3034:	39 83       	std	Y+1, r19	; 0x01
    3036:	28 83       	st	Y, r18
    3038:	cc 59       	subi	r28, 0x9C	; 156
    303a:	d0 40       	sbci	r29, 0x00	; 0
    303c:	c2 56       	subi	r28, 0x62	; 98
    303e:	df 4f       	sbci	r29, 0xFF	; 255
    3040:	99 83       	std	Y+1, r25	; 0x01
    3042:	88 83       	st	Y, r24
    3044:	ce 59       	subi	r28, 0x9E	; 158
    3046:	d0 40       	sbci	r29, 0x00	; 0
    3048:	10 e2       	ldi	r17, 0x20	; 32
    304a:	c0 56       	subi	r28, 0x60	; 96
    304c:	df 4f       	sbci	r29, 0xFF	; 255
    304e:	18 83       	st	Y, r17
    3050:	c0 5a       	subi	r28, 0xA0	; 160
    3052:	d0 40       	sbci	r29, 0x00	; 0
		ocrPWM  = rPWM;
    3054:	08 e8       	ldi	r16, 0x88	; 136
    3056:	10 e0       	ldi	r17, 0x00	; 0
    3058:	cf 55       	subi	r28, 0x5F	; 95
    305a:	df 4f       	sbci	r29, 0xFF	; 255
    305c:	19 83       	std	Y+1, r17	; 0x01
    305e:	08 83       	st	Y, r16
    3060:	c1 5a       	subi	r28, 0xA1	; 161
    3062:	d0 40       	sbci	r29, 0x00	; 0
		eorSwitch = sw;
    3064:	8e 01       	movw	r16, r28
    3066:	0b 5e       	subi	r16, 0xEB	; 235
    3068:	1f 4f       	sbci	r17, 0xFF	; 255
    306a:	cd 55       	subi	r28, 0x5D	; 93
    306c:	df 4f       	sbci	r29, 0xFF	; 255
    306e:	19 83       	std	Y+1, r17	; 0x01
    3070:	08 83       	st	Y, r16
    3072:	c3 5a       	subi	r28, 0xA3	; 163
    3074:	d0 40       	sbci	r29, 0x00	; 0
		
		isMoving = false;
    3076:	cb 55       	subi	r28, 0x5B	; 91
    3078:	df 4f       	sbci	r29, 0xFF	; 255
    307a:	18 82       	st	Y, r1
    307c:	c5 5a       	subi	r28, 0xA5	; 165
    307e:	d0 40       	sbci	r29, 0x00	; 0
		isEscaping = false;
    3080:	ca 55       	subi	r28, 0x5A	; 90
    3082:	df 4f       	sbci	r29, 0xFF	; 255
    3084:	18 82       	st	Y, r1
    3086:	c6 5a       	subi	r28, 0xA6	; 166
    3088:	d0 40       	sbci	r29, 0x00	; 0
		isCalibrating = false;
    308a:	c1 55       	subi	r28, 0x51	; 81
    308c:	df 4f       	sbci	r29, 0xFF	; 255
    308e:	18 82       	st	Y, r1
    3090:	cf 5a       	subi	r28, 0xAF	; 175
    3092:	d0 40       	sbci	r29, 0x00	; 0
		isWaitingAfterCalib = false;
    3094:	c0 55       	subi	r28, 0x50	; 80
    3096:	df 4f       	sbci	r29, 0xFF	; 255
    3098:	18 82       	st	Y, r1
    309a:	c0 5b       	subi	r28, 0xB0	; 176
    309c:	d0 40       	sbci	r29, 0x00	; 0
	Motor(
		volatile uint8_t* pDIR, volatile uint8_t* dDIR, uint8_t mDIR,
		volatile uint8_t* pEN,  volatile uint8_t* dEN,  uint8_t mEN,
		volatile uint8_t* rPWM,
		SwitchMotor* sw = 0
	) {
    309e:	c6 53       	subi	r28, 0x36	; 54
    30a0:	df 4f       	sbci	r29, 0xFF	; 255
    30a2:	c8 82       	st	Y, r12
    30a4:	d9 82       	std	Y+1, r13	; 0x01
    30a6:	ea 82       	std	Y+2, r14	; 0x02
    30a8:	fb 82       	std	Y+3, r15	; 0x03
    30aa:	ca 5c       	subi	r28, 0xCA	; 202
    30ac:	d0 40       	sbci	r29, 0x00	; 0
		portDIR = pDIR; ddrDIR = dDIR; maskDIR = mDIR;
    30ae:	ca 54       	subi	r28, 0x4A	; 74
    30b0:	df 4f       	sbci	r29, 0xFF	; 255
    30b2:	39 83       	std	Y+1, r19	; 0x01
    30b4:	28 83       	st	Y, r18
    30b6:	c6 5b       	subi	r28, 0xB6	; 182
    30b8:	d0 40       	sbci	r29, 0x00	; 0
    30ba:	c8 54       	subi	r28, 0x48	; 72
    30bc:	df 4f       	sbci	r29, 0xFF	; 255
    30be:	99 83       	std	Y+1, r25	; 0x01
    30c0:	88 83       	st	Y, r24
    30c2:	c8 5b       	subi	r28, 0xB8	; 184
    30c4:	d0 40       	sbci	r29, 0x00	; 0
    30c6:	c6 54       	subi	r28, 0x46	; 70
    30c8:	df 4f       	sbci	r29, 0xFF	; 255
    30ca:	88 82       	st	Y, r8
    30cc:	ca 5b       	subi	r28, 0xBA	; 186
    30ce:	d0 40       	sbci	r29, 0x00	; 0
		portEN  = pEN;  ddrEN  = dEN;  maskEN  = mEN;
    30d0:	c5 54       	subi	r28, 0x45	; 69
    30d2:	df 4f       	sbci	r29, 0xFF	; 255
    30d4:	39 83       	std	Y+1, r19	; 0x01
    30d6:	28 83       	st	Y, r18
    30d8:	cb 5b       	subi	r28, 0xBB	; 187
    30da:	d0 40       	sbci	r29, 0x00	; 0
    30dc:	c3 54       	subi	r28, 0x43	; 67
    30de:	df 4f       	sbci	r29, 0xFF	; 255
    30e0:	99 83       	std	Y+1, r25	; 0x01
    30e2:	88 83       	st	Y, r24
    30e4:	cd 5b       	subi	r28, 0xBD	; 189
    30e6:	d0 40       	sbci	r29, 0x00	; 0
    30e8:	c1 54       	subi	r28, 0x41	; 65
    30ea:	df 4f       	sbci	r29, 0xFF	; 255
    30ec:	98 82       	st	Y, r9
    30ee:	cf 5b       	subi	r28, 0xBF	; 191
    30f0:	d0 40       	sbci	r29, 0x00	; 0
		ocrPWM  = rPWM;
    30f2:	0a e8       	ldi	r16, 0x8A	; 138
    30f4:	10 e0       	ldi	r17, 0x00	; 0
    30f6:	c0 54       	subi	r28, 0x40	; 64
    30f8:	df 4f       	sbci	r29, 0xFF	; 255
    30fa:	19 83       	std	Y+1, r17	; 0x01
    30fc:	08 83       	st	Y, r16
    30fe:	c0 5c       	subi	r28, 0xC0	; 192
    3100:	d0 40       	sbci	r29, 0x00	; 0
		eorSwitch = sw;
    3102:	8e 01       	movw	r16, r28
    3104:	06 5d       	subi	r16, 0xD6	; 214
    3106:	1f 4f       	sbci	r17, 0xFF	; 255
    3108:	ce 53       	subi	r28, 0x3E	; 62
    310a:	df 4f       	sbci	r29, 0xFF	; 255
    310c:	19 83       	std	Y+1, r17	; 0x01
    310e:	08 83       	st	Y, r16
    3110:	c2 5c       	subi	r28, 0xC2	; 194
    3112:	d0 40       	sbci	r29, 0x00	; 0
		
		isMoving = false;
    3114:	cc 53       	subi	r28, 0x3C	; 60
    3116:	df 4f       	sbci	r29, 0xFF	; 255
    3118:	18 82       	st	Y, r1
    311a:	c4 5c       	subi	r28, 0xC4	; 196
    311c:	d0 40       	sbci	r29, 0x00	; 0
		isEscaping = false;
    311e:	cb 53       	subi	r28, 0x3B	; 59
    3120:	df 4f       	sbci	r29, 0xFF	; 255
    3122:	18 82       	st	Y, r1
    3124:	c5 5c       	subi	r28, 0xC5	; 197
    3126:	d0 40       	sbci	r29, 0x00	; 0
		isCalibrating = false;
    3128:	c2 53       	subi	r28, 0x32	; 50
    312a:	df 4f       	sbci	r29, 0xFF	; 255
    312c:	18 82       	st	Y, r1
    312e:	ce 5c       	subi	r28, 0xCE	; 206
    3130:	d0 40       	sbci	r29, 0x00	; 0
		isWaitingAfterCalib = false;
    3132:	c1 53       	subi	r28, 0x31	; 49
    3134:	df 4f       	sbci	r29, 0xFF	; 255
    3136:	18 82       	st	Y, r1
    3138:	cf 5c       	subi	r28, 0xCF	; 207
    313a:	d0 40       	sbci	r29, 0x00	; 0
	Motor(
		volatile uint8_t* pDIR, volatile uint8_t* dDIR, uint8_t mDIR,
		volatile uint8_t* pEN,  volatile uint8_t* dEN,  uint8_t mEN,
		volatile uint8_t* rPWM,
		SwitchMotor* sw = 0
	) {
    313c:	c7 51       	subi	r28, 0x17	; 23
    313e:	df 4f       	sbci	r29, 0xFF	; 255
    3140:	c8 82       	st	Y, r12
    3142:	d9 82       	std	Y+1, r13	; 0x01
    3144:	ea 82       	std	Y+2, r14	; 0x02
    3146:	fb 82       	std	Y+3, r15	; 0x03
    3148:	c9 5e       	subi	r28, 0xE9	; 233
    314a:	d0 40       	sbci	r29, 0x00	; 0
		portDIR = pDIR; ddrDIR = dDIR; maskDIR = mDIR;
    314c:	cb 52       	subi	r28, 0x2B	; 43
    314e:	df 4f       	sbci	r29, 0xFF	; 255
    3150:	39 83       	std	Y+1, r19	; 0x01
    3152:	28 83       	st	Y, r18
    3154:	c5 5d       	subi	r28, 0xD5	; 213
    3156:	d0 40       	sbci	r29, 0x00	; 0
    3158:	c9 52       	subi	r28, 0x29	; 41
    315a:	df 4f       	sbci	r29, 0xFF	; 255
    315c:	99 83       	std	Y+1, r25	; 0x01
    315e:	88 83       	st	Y, r24
    3160:	c7 5d       	subi	r28, 0xD7	; 215
    3162:	d0 40       	sbci	r29, 0x00	; 0
    3164:	c7 52       	subi	r28, 0x27	; 39
    3166:	df 4f       	sbci	r29, 0xFF	; 255
    3168:	b8 82       	st	Y, r11
    316a:	c9 5d       	subi	r28, 0xD9	; 217
    316c:	d0 40       	sbci	r29, 0x00	; 0
		portEN  = pEN;  ddrEN  = dEN;  maskEN  = mEN;
    316e:	c6 52       	subi	r28, 0x26	; 38
    3170:	df 4f       	sbci	r29, 0xFF	; 255
    3172:	39 83       	std	Y+1, r19	; 0x01
    3174:	28 83       	st	Y, r18
    3176:	ca 5d       	subi	r28, 0xDA	; 218
    3178:	d0 40       	sbci	r29, 0x00	; 0
    317a:	c4 52       	subi	r28, 0x24	; 36
    317c:	df 4f       	sbci	r29, 0xFF	; 255
    317e:	99 83       	std	Y+1, r25	; 0x01
    3180:	88 83       	st	Y, r24
    3182:	cc 5d       	subi	r28, 0xDC	; 220
    3184:	d0 40       	sbci	r29, 0x00	; 0
    3186:	c2 52       	subi	r28, 0x22	; 34
    3188:	df 4f       	sbci	r29, 0xFF	; 255
    318a:	a8 82       	st	Y, r10
    318c:	ce 5d       	subi	r28, 0xDE	; 222
    318e:	d0 40       	sbci	r29, 0x00	; 0
		ocrPWM  = rPWM;
    3190:	87 e4       	ldi	r24, 0x47	; 71
    3192:	90 e0       	ldi	r25, 0x00	; 0
    3194:	c1 52       	subi	r28, 0x21	; 33
    3196:	df 4f       	sbci	r29, 0xFF	; 255
    3198:	99 83       	std	Y+1, r25	; 0x01
    319a:	88 83       	st	Y, r24
    319c:	cf 5d       	subi	r28, 0xDF	; 223
    319e:	d0 40       	sbci	r29, 0x00	; 0
		eorSwitch = sw;
    31a0:	cf 51       	subi	r28, 0x1F	; 31
    31a2:	df 4f       	sbci	r29, 0xFF	; 255
    31a4:	b9 83       	std	Y+1, r27	; 0x01
    31a6:	a8 83       	st	Y, r26
    31a8:	c1 5e       	subi	r28, 0xE1	; 225
    31aa:	d0 40       	sbci	r29, 0x00	; 0
		
		isMoving = false;
    31ac:	cd 51       	subi	r28, 0x1D	; 29
    31ae:	df 4f       	sbci	r29, 0xFF	; 255
    31b0:	18 82       	st	Y, r1
    31b2:	c3 5e       	subi	r28, 0xE3	; 227
    31b4:	d0 40       	sbci	r29, 0x00	; 0
		isEscaping = false;
    31b6:	cc 51       	subi	r28, 0x1C	; 28
    31b8:	df 4f       	sbci	r29, 0xFF	; 255
    31ba:	18 82       	st	Y, r1
    31bc:	c4 5e       	subi	r28, 0xE4	; 228
    31be:	d0 40       	sbci	r29, 0x00	; 0
		isCalibrating = false;
    31c0:	c3 51       	subi	r28, 0x13	; 19
    31c2:	df 4f       	sbci	r29, 0xFF	; 255
    31c4:	18 82       	st	Y, r1
    31c6:	cd 5e       	subi	r28, 0xED	; 237
    31c8:	d0 40       	sbci	r29, 0x00	; 0
		isWaitingAfterCalib = false;
    31ca:	c2 51       	subi	r28, 0x12	; 18
    31cc:	df 4f       	sbci	r29, 0xFF	; 255
    31ce:	18 82       	st	Y, r1
    31d0:	ce 5e       	subi	r28, 0xEE	; 238
    31d2:	d0 40       	sbci	r29, 0x00	; 0
	Motor(
		volatile uint8_t* pDIR, volatile uint8_t* dDIR, uint8_t mDIR,
		volatile uint8_t* pEN,  volatile uint8_t* dEN,  uint8_t mEN,
		volatile uint8_t* rPWM,
		SwitchMotor* sw = 0
	) {
    31d4:	c8 5f       	subi	r28, 0xF8	; 248
    31d6:	de 4f       	sbci	r29, 0xFE	; 254
    31d8:	c8 82       	st	Y, r12
    31da:	d9 82       	std	Y+1, r13	; 0x01
    31dc:	ea 82       	std	Y+2, r14	; 0x02
    31de:	fb 82       	std	Y+3, r15	; 0x03
    31e0:	c8 50       	subi	r28, 0x08	; 8
    31e2:	d1 40       	sbci	r29, 0x01	; 1
		portDIR = pDIR; ddrDIR = dDIR; maskDIR = mDIR;
    31e4:	cc 50       	subi	r28, 0x0C	; 12
    31e6:	df 4f       	sbci	r29, 0xFF	; 255
    31e8:	79 83       	std	Y+1, r23	; 0x01
    31ea:	68 83       	st	Y, r22
    31ec:	c4 5f       	subi	r28, 0xF4	; 244
    31ee:	d0 40       	sbci	r29, 0x00	; 0
    31f0:	ca 50       	subi	r28, 0x0A	; 10
    31f2:	df 4f       	sbci	r29, 0xFF	; 255
    31f4:	59 83       	std	Y+1, r21	; 0x01
    31f6:	48 83       	st	Y, r20
    31f8:	c6 5f       	subi	r28, 0xF6	; 246
    31fa:	d0 40       	sbci	r29, 0x00	; 0
    31fc:	c8 50       	subi	r28, 0x08	; 8
    31fe:	df 4f       	sbci	r29, 0xFF	; 255
    3200:	78 82       	st	Y, r7
    3202:	c8 5f       	subi	r28, 0xF8	; 248
    3204:	d0 40       	sbci	r29, 0x00	; 0
		portEN  = pEN;  ddrEN  = dEN;  maskEN  = mEN;
    3206:	8b e0       	ldi	r24, 0x0B	; 11
    3208:	91 e0       	ldi	r25, 0x01	; 1
    320a:	c7 50       	subi	r28, 0x07	; 7
    320c:	df 4f       	sbci	r29, 0xFF	; 255
    320e:	99 83       	std	Y+1, r25	; 0x01
    3210:	88 83       	st	Y, r24
    3212:	c9 5f       	subi	r28, 0xF9	; 249
    3214:	d0 40       	sbci	r29, 0x00	; 0
    3216:	8a e0       	ldi	r24, 0x0A	; 10
    3218:	91 e0       	ldi	r25, 0x01	; 1
    321a:	c5 50       	subi	r28, 0x05	; 5
    321c:	df 4f       	sbci	r29, 0xFF	; 255
    321e:	99 83       	std	Y+1, r25	; 0x01
    3220:	88 83       	st	Y, r24
    3222:	cb 5f       	subi	r28, 0xFB	; 251
    3224:	d0 40       	sbci	r29, 0x00	; 0
    3226:	c3 50       	subi	r28, 0x03	; 3
    3228:	df 4f       	sbci	r29, 0xFF	; 255
    322a:	b8 82       	st	Y, r11
    322c:	cd 5f       	subi	r28, 0xFD	; 253
    322e:	d0 40       	sbci	r29, 0x00	; 0
		ocrPWM  = rPWM;
    3230:	88 e2       	ldi	r24, 0x28	; 40
    3232:	91 e0       	ldi	r25, 0x01	; 1
    3234:	c2 50       	subi	r28, 0x02	; 2
    3236:	df 4f       	sbci	r29, 0xFF	; 255
    3238:	99 83       	std	Y+1, r25	; 0x01
    323a:	88 83       	st	Y, r24
    323c:	ce 5f       	subi	r28, 0xFE	; 254
    323e:	d0 40       	sbci	r29, 0x00	; 0
		eorSwitch = sw;
    3240:	c0 50       	subi	r28, 0x00	; 0
    3242:	df 4f       	sbci	r29, 0xFF	; 255
    3244:	f9 83       	std	Y+1, r31	; 0x01
    3246:	e8 83       	st	Y, r30
    3248:	c0 50       	subi	r28, 0x00	; 0
    324a:	d1 40       	sbci	r29, 0x01	; 1
		
		isMoving = false;
    324c:	ce 5f       	subi	r28, 0xFE	; 254
    324e:	de 4f       	sbci	r29, 0xFE	; 254
    3250:	18 82       	st	Y, r1
    3252:	c2 50       	subi	r28, 0x02	; 2
    3254:	d1 40       	sbci	r29, 0x01	; 1
		isEscaping = false;
    3256:	cd 5f       	subi	r28, 0xFD	; 253
    3258:	de 4f       	sbci	r29, 0xFE	; 254
    325a:	18 82       	st	Y, r1
    325c:	c3 50       	subi	r28, 0x03	; 3
    325e:	d1 40       	sbci	r29, 0x01	; 1
		isCalibrating = false;
    3260:	c4 5f       	subi	r28, 0xF4	; 244
    3262:	de 4f       	sbci	r29, 0xFE	; 254
    3264:	18 82       	st	Y, r1
    3266:	cc 50       	subi	r28, 0x0C	; 12
    3268:	d1 40       	sbci	r29, 0x01	; 1
		isWaitingAfterCalib = false;
    326a:	c3 5f       	subi	r28, 0xF3	; 243
    326c:	de 4f       	sbci	r29, 0xFE	; 254
    326e:	18 82       	st	Y, r1
    3270:	cd 50       	subi	r28, 0x0D	; 13
    3272:	d1 40       	sbci	r29, 0x01	; 1
	Motor2 m2(&PORTB, &DDRB, (1 << PB1), &PORTB, &DDRB, (1 << PB5), &OCR1AL, &sw2);
	Motor m3(&PORTB, &DDRB, (1 << PB2), &PORTB, &DDRB, (1 << PB6), &OCR1BL, &sw3);
	Motor m4(&PORTB, &DDRB, (1 << PB3), &PORTB, &DDRB, (1 << PB7), &OCR0A, &sw4);
	Motor m5(&PORTD, &DDRD, (1 << PD4), &PORTL, &DDRL, (1 << PL3), &OCR5AL, &sw5);
	
	volatile uint8_t* segPorts[7] = {&PORTL, &PORTL, &PORTL, &PORTD, &PORTL, &PORTL, &PORTL};
    3274:	8e e0       	ldi	r24, 0x0E	; 14
    3276:	e0 e0       	ldi	r30, 0x00	; 0
    3278:	f2 e0       	ldi	r31, 0x02	; 2
    327a:	ab 52       	subi	r26, 0x2B	; 43
    327c:	bf 4f       	sbci	r27, 0xFF	; 255
    327e:	01 90       	ld	r0, Z+
    3280:	0d 92       	st	X+, r0
    3282:	8a 95       	dec	r24
    3284:	e1 f7       	brne	.-8      	; 0x327e <main+0x4ce>
	volatile uint8_t* segDdrs[7]  = {&DDRL,  &DDRL,  &DDRL,  &DDRD,  &DDRL,  &DDRL,  &DDRL};
    3286:	8e e0       	ldi	r24, 0x0E	; 14
    3288:	ee e0       	ldi	r30, 0x0E	; 14
    328a:	f2 e0       	ldi	r31, 0x02	; 2
    328c:	de 01       	movw	r26, r28
    328e:	af 5d       	subi	r26, 0xDF	; 223
    3290:	be 4f       	sbci	r27, 0xFE	; 254
    3292:	01 90       	ld	r0, Z+
    3294:	0d 92       	st	X+, r0
    3296:	8a 95       	dec	r24
    3298:	e1 f7       	brne	.-8      	; 0x3292 <main+0x4e2>
	uint8_t segMasks[7]           = {(1<<PL0), (1<<PL1), (1<<PL2), (1<<PD6), (1<<PL4), (1<<PL5), (1<<PL6)};
    329a:	87 e0       	ldi	r24, 0x07	; 7
    329c:	ec e1       	ldi	r30, 0x1C	; 28
    329e:	f2 e0       	ldi	r31, 0x02	; 2
    32a0:	de 01       	movw	r26, r28
    32a2:	a1 5d       	subi	r26, 0xD1	; 209
    32a4:	be 4f       	sbci	r27, 0xFE	; 254
    32a6:	01 90       	ld	r0, Z+
    32a8:	0d 92       	st	X+, r0
    32aa:	8a 95       	dec	r24
    32ac:	e1 f7       	brne	.-8      	; 0x32a6 <main+0x4f6>
		uint8_t mData[7],
		volatile uint8_t* pDS,
		volatile uint8_t* dDS,
		uint8_t mDS
		
	) {
    32ae:	8a e0       	ldi	r24, 0x0A	; 10
    32b0:	e3 e2       	ldi	r30, 0x23	; 35
    32b2:	f2 e0       	ldi	r31, 0x02	; 2
    32b4:	a6 e3       	ldi	r26, 0x36	; 54
    32b6:	b1 e0       	ldi	r27, 0x01	; 1
    32b8:	ac 0f       	add	r26, r28
    32ba:	bd 1f       	adc	r27, r29
    32bc:	9a 96       	adiw	r26, 0x2a	; 42
    32be:	01 90       	ld	r0, Z+
    32c0:	0d 92       	st	X+, r0
    32c2:	8a 95       	dec	r24
    32c4:	e1 f7       	brne	.-8      	; 0x32be <main+0x50e>
    32c6:	85 e0       	ldi	r24, 0x05	; 5
    32c8:	90 e0       	ldi	r25, 0x00	; 0
    32ca:	a0 e0       	ldi	r26, 0x00	; 0
    32cc:	b0 e0       	ldi	r27, 0x00	; 0
    32ce:	c2 59       	subi	r28, 0x92	; 146
    32d0:	de 4f       	sbci	r29, 0xFE	; 254
    32d2:	88 83       	st	Y, r24
    32d4:	99 83       	std	Y+1, r25	; 0x01
    32d6:	aa 83       	std	Y+2, r26	; 0x02
    32d8:	bb 83       	std	Y+3, r27	; 0x03
    32da:	ce 56       	subi	r28, 0x6E	; 110
    32dc:	d1 40       	sbci	r29, 0x01	; 1
		for (uint8_t i = 0; i<7; i++) {
    32de:	40 e0       	ldi	r20, 0x00	; 0
    32e0:	47 30       	cpi	r20, 0x07	; 7
    32e2:	b0 f5       	brcc	.+108    	; 0x3350 <main+0x5a0>
			portData[i] = pData[i];
    32e4:	84 2f       	mov	r24, r20
    32e6:	90 e0       	ldi	r25, 0x00	; 0
    32e8:	9c 01       	movw	r18, r24
    32ea:	22 0f       	add	r18, r18
    32ec:	33 1f       	adc	r19, r19
    32ee:	e3 e1       	ldi	r30, 0x13	; 19
    32f0:	f1 e0       	ldi	r31, 0x01	; 1
    32f2:	ec 0f       	add	r30, r28
    32f4:	fd 1f       	adc	r31, r29
    32f6:	e2 0f       	add	r30, r18
    32f8:	f3 1f       	adc	r31, r19
    32fa:	60 81       	ld	r22, Z
    32fc:	71 81       	ldd	r23, Z+1	; 0x01
    32fe:	e6 e3       	ldi	r30, 0x36	; 54
    3300:	f1 e0       	ldi	r31, 0x01	; 1
    3302:	ec 0f       	add	r30, r28
    3304:	fd 1f       	adc	r31, r29
    3306:	e2 0f       	add	r30, r18
    3308:	f3 1f       	adc	r31, r19
    330a:	71 83       	std	Z+1, r23	; 0x01
    330c:	60 83       	st	Z, r22
			ddrData[i] = dData[i];
    330e:	e1 e2       	ldi	r30, 0x21	; 33
    3310:	f1 e0       	ldi	r31, 0x01	; 1
    3312:	ec 0f       	add	r30, r28
    3314:	fd 1f       	adc	r31, r29
    3316:	e2 0f       	add	r30, r18
    3318:	f3 1f       	adc	r31, r19
    331a:	20 81       	ld	r18, Z
    331c:	31 81       	ldd	r19, Z+1	; 0x01
    331e:	fc 01       	movw	r30, r24
    3320:	37 96       	adiw	r30, 0x07	; 7
    3322:	ee 0f       	add	r30, r30
    3324:	ff 1f       	adc	r31, r31
    3326:	66 e3       	ldi	r22, 0x36	; 54
    3328:	71 e0       	ldi	r23, 0x01	; 1
    332a:	6c 0f       	add	r22, r28
    332c:	7d 1f       	adc	r23, r29
    332e:	e6 0f       	add	r30, r22
    3330:	f7 1f       	adc	r31, r23
    3332:	31 83       	std	Z+1, r19	; 0x01
    3334:	20 83       	st	Z, r18
			maskData[i] = mData[i];
    3336:	ef e2       	ldi	r30, 0x2F	; 47
    3338:	f1 e0       	ldi	r31, 0x01	; 1
    333a:	ec 0f       	add	r30, r28
    333c:	fd 1f       	adc	r31, r29
    333e:	e8 0f       	add	r30, r24
    3340:	f9 1f       	adc	r31, r25
    3342:	20 81       	ld	r18, Z
    3344:	fb 01       	movw	r30, r22
    3346:	e8 0f       	add	r30, r24
    3348:	f9 1f       	adc	r31, r25
    334a:	24 8f       	std	Z+28, r18	; 0x1c
		volatile uint8_t* pDS,
		volatile uint8_t* dDS,
		uint8_t mDS
		
	) {
		for (uint8_t i = 0; i<7; i++) {
    334c:	4f 5f       	subi	r20, 0xFF	; 255
    334e:	c8 cf       	rjmp	.-112    	; 0x32e0 <main+0x530>
			portData[i] = pData[i];
			ddrData[i] = dData[i];
			maskData[i] = mData[i];
		}
		
		portDS = pDS;
    3350:	ce 01       	movw	r24, r28
    3352:	8a 5c       	subi	r24, 0xCA	; 202
    3354:	9e 4f       	sbci	r25, 0xFE	; 254
    3356:	2b e0       	ldi	r18, 0x0B	; 11
    3358:	31 e0       	ldi	r19, 0x01	; 1
    335a:	dc 01       	movw	r26, r24
    335c:	94 96       	adiw	r26, 0x24	; 36
    335e:	3c 93       	st	X, r19
    3360:	2e 93       	st	-X, r18
    3362:	93 97       	sbiw	r26, 0x23	; 35
		ddrDS = dDS;
    3364:	2a e0       	ldi	r18, 0x0A	; 10
    3366:	31 e0       	ldi	r19, 0x01	; 1
    3368:	96 96       	adiw	r26, 0x26	; 38
    336a:	3c 93       	st	X, r19
    336c:	2e 93       	st	-X, r18
    336e:	95 97       	sbiw	r26, 0x25	; 37
		maskDS = mDS;
    3370:	20 e8       	ldi	r18, 0x80	; 128
    3372:	97 96       	adiw	r26, 0x27	; 39
    3374:	2c 93       	st	X, r18
    3376:	97 97       	sbiw	r26, 0x27	; 39
		
		currentScore = 0;
    3378:	98 96       	adiw	r26, 0x28	; 40
    337a:	1c 92       	st	X, r1
    337c:	98 97       	sbiw	r26, 0x28	; 40
		showTens = false;
    337e:	99 96       	adiw	r26, 0x29	; 41
    3380:	1c 92       	st	X, r1
	
	bool isActive;
	
	public:
	Led(volatile uint8_t* portR, volatile uint8_t* ddrR, uint8_t m) {
		portReg	= portR;
    3382:	5e 01       	movw	r10, r28
    3384:	be e8       	ldi	r27, 0x8E	; 142
    3386:	ab 1a       	sub	r10, r27
    3388:	be ef       	ldi	r27, 0xFE	; 254
    338a:	bb 0a       	sbc	r11, r27
    338c:	4b e2       	ldi	r20, 0x2B	; 43
    338e:	50 e0       	ldi	r21, 0x00	; 0
    3390:	f5 01       	movw	r30, r10
    3392:	51 83       	std	Z+1, r21	; 0x01
    3394:	40 83       	st	Z, r20
		ddrReg	= ddrR;
    3396:	4a e2       	ldi	r20, 0x2A	; 42
    3398:	50 e0       	ldi	r21, 0x00	; 0
    339a:	53 83       	std	Z+3, r21	; 0x03
    339c:	42 83       	std	Z+2, r20	; 0x02
		mask	= m;
    339e:	24 83       	std	Z+4, r18	; 0x04
		
		lastTime = 0;
    33a0:	15 82       	std	Z+5, r1	; 0x05
    33a2:	16 82       	std	Z+6, r1	; 0x06
    33a4:	17 82       	std	Z+7, r1	; 0x07
    33a6:	10 86       	std	Z+8, r1	; 0x08
		blinkInterval =	100; // 100ms
    33a8:	44 e6       	ldi	r20, 0x64	; 100
    33aa:	50 e0       	ldi	r21, 0x00	; 0
    33ac:	60 e0       	ldi	r22, 0x00	; 0
    33ae:	70 e0       	ldi	r23, 0x00	; 0
    33b0:	41 87       	std	Z+9, r20	; 0x09
    33b2:	52 87       	std	Z+10, r21	; 0x0a
    33b4:	63 87       	std	Z+11, r22	; 0x0b
    33b6:	74 87       	std	Z+12, r23	; 0x0c
		isActive = false;
    33b8:	15 86       	std	Z+13, r1	; 0x0d
	uint8_t pinsMask;	// Bolos en pie
	uint8_t score;		// Puntuación acumulada
	
	public:
	PinsManager() {
		pinsMask = 0b00111111;
    33ba:	9e 01       	movw	r18, r28
    33bc:	20 58       	subi	r18, 0x80	; 128
    33be:	3e 4f       	sbci	r19, 0xFE	; 254
    33c0:	4f e3       	ldi	r20, 0x3F	; 63
    33c2:	d9 01       	movw	r26, r18
    33c4:	4c 93       	st	X, r20
		score = 0;
    33c6:	11 96       	adiw	r26, 0x01	; 1
    33c8:	1c 92       	st	X, r1
	private:
	volatile uint32_t system_millis; // Contador de milisegundos desde el inicio.
	
	public:
	Timer() {
		system_millis = 0;
    33ca:	ae 01       	movw	r20, r28
    33cc:	4e 57       	subi	r20, 0x7E	; 126
    33ce:	5e 4f       	sbci	r21, 0xFE	; 254
    33d0:	fa 01       	movw	r30, r20
    33d2:	10 82       	st	Z, r1
    33d4:	11 82       	std	Z+1, r1	; 0x01
    33d6:	12 82       	std	Z+2, r1	; 0x02
    33d8:	13 82       	std	Z+3, r1	; 0x03
	Led led(&PORTD, &DDRD, (1<<PD7));
	PinsManager pinsManager;
	Timer timer;
	
	// Interrupt pointers
	pinsPtr = &pinsManager;
    33da:	30 93 85 02 	sts	0x0285, r19	; 0x800285 <pinsPtr+0x1>
    33de:	20 93 84 02 	sts	0x0284, r18	; 0x800284 <pinsPtr>
	timerPtr = &timer;
    33e2:	50 93 83 02 	sts	0x0283, r21	; 0x800283 <__data_end+0x1>
    33e6:	40 93 82 02 	sts	0x0282, r20	; 0x800282 <__data_end>
	NO_CHANGE = 255
};

class Status {
	public:
		Status() : current_state(States::Init) {}
    33ea:	34 96       	adiw	r30, 0x04	; 4
    33ec:	16 8e       	std	Z+30, r1	; 0x1e
    33ee:	17 8e       	std	Z+31, r1	; 0x1f
    33f0:	10 a2       	std	Z+32, r1	; 0x20
    33f2:	11 a2       	std	Z+33, r1	; 0x21
    33f4:	12 a2       	std	Z+34, r1	; 0x22
    33f6:	13 a2       	std	Z+35, r1	; 0x23
    33f8:	14 a2       	std	Z+36, r1	; 0x24
    33fa:	15 a2       	std	Z+37, r1	; 0x25
    33fc:	16 a2       	std	Z+38, r1	; 0x26
    33fe:	17 a2       	std	Z+39, r1	; 0x27
    3400:	10 a6       	std	Z+40, r1	; 0x28
    3402:	11 a6       	std	Z+41, r1	; 0x29

class StateActionBase {
	protected:
		Status* status;
	public:
		explicit StateActionBase(Status* s): status(s) {}
    3404:	f5 a7       	std	Z+45, r31	; 0x2d
    3406:	e4 a7       	std	Z+44, r30	; 0x2c
/*		       INIT			    */
/* ============================ */

class InitState : public StateActionBase {
	public:
	explicit InitState(Status* s) : StateActionBase(s) {}
    3408:	61 e3       	ldi	r22, 0x31	; 49
    340a:	72 e0       	ldi	r23, 0x02	; 2
    340c:	73 a7       	std	Z+43, r23	; 0x2b
    340e:	62 a7       	std	Z+42, r22	; 0x2a

class StateActionBase {
	protected:
		Status* status;
	public:
		explicit StateActionBase(Status* s): status(s) {}
    3410:	f1 ab       	std	Z+49, r31	; 0x31
    3412:	e0 ab       	std	Z+48, r30	; 0x30
/*		   CALIBRATION			*/
/* ============================ */

class CalibrationState : public StateActionBase {
	public:
		explicit CalibrationState(Status *s) : StateActionBase(s) {}
    3414:	6d e3       	ldi	r22, 0x3D	; 61
    3416:	72 e0       	ldi	r23, 0x02	; 2
    3418:	77 a7       	std	Z+47, r23	; 0x2f
    341a:	66 a7       	std	Z+46, r22	; 0x2e

class StateActionBase {
	protected:
		Status* status;
	public:
		explicit StateActionBase(Status* s): status(s) {}
    341c:	f5 ab       	std	Z+53, r31	; 0x35
    341e:	e4 ab       	std	Z+52, r30	; 0x34
/*		       IDLE			    */
/* ============================ */

class IdleState : public StateActionBase {
	public:
		explicit IdleState(Status* s) : StateActionBase(s) {}
    3420:	69 e4       	ldi	r22, 0x49	; 73
    3422:	72 e0       	ldi	r23, 0x02	; 2
    3424:	73 ab       	std	Z+51, r23	; 0x33
    3426:	62 ab       	std	Z+50, r22	; 0x32

class StateActionBase {
	protected:
		Status* status;
	public:
		explicit StateActionBase(Status* s): status(s) {}
    3428:	f1 af       	std	Z+57, r31	; 0x39
    342a:	e0 af       	std	Z+56, r30	; 0x38
	private:
		uint8_t step_m12 = 0;
		uint8_t step_m34 = 0;
		uint32_t timer_m1 = 0;
	public:
			explicit CargaState(Status* s) : StateActionBase(s) {}
    342c:	65 e5       	ldi	r22, 0x55	; 85
    342e:	72 e0       	ldi	r23, 0x02	; 2
    3430:	77 ab       	std	Z+55, r23	; 0x37
    3432:	66 ab       	std	Z+54, r22	; 0x36
    3434:	12 ae       	std	Z+58, r1	; 0x3a
    3436:	13 ae       	std	Z+59, r1	; 0x3b
    3438:	14 ae       	std	Z+60, r1	; 0x3c
    343a:	15 ae       	std	Z+61, r1	; 0x3d
    343c:	16 ae       	std	Z+62, r1	; 0x3e
    343e:	17 ae       	std	Z+63, r1	; 0x3f

class StateActionBase {
	protected:
		Status* status;
	public:
		explicit StateActionBase(Status* s): status(s) {}
    3440:	7e 01       	movw	r14, r28
    3442:	6a e3       	ldi	r22, 0x3A	; 58
    3444:	e6 1a       	sub	r14, r22
    3446:	6e ef       	ldi	r22, 0xFE	; 254
    3448:	f6 0a       	sbc	r15, r22
    344a:	c8 53       	subi	r28, 0x38	; 56
    344c:	de 4f       	sbci	r29, 0xFE	; 254
    344e:	f9 83       	std	Y+1, r31	; 0x01
    3450:	e8 83       	st	Y, r30
    3452:	c8 5c       	subi	r28, 0xC8	; 200
    3454:	d1 40       	sbci	r29, 0x01	; 1

class ArmadoState : public StateActionBase {
	private:
		bool is_oscilating = false;
	public:
		explicit ArmadoState(Status* s) : StateActionBase(s) {}
    3456:	61 e6       	ldi	r22, 0x61	; 97
    3458:	72 e0       	ldi	r23, 0x02	; 2
    345a:	d7 01       	movw	r26, r14
    345c:	6d 93       	st	X+, r22
    345e:	7c 93       	st	X, r23
    3460:	c6 53       	subi	r28, 0x36	; 54
    3462:	de 4f       	sbci	r29, 0xFE	; 254
    3464:	18 82       	st	Y, r1
    3466:	ca 5c       	subi	r28, 0xCA	; 202
    3468:	d1 40       	sbci	r29, 0x01	; 1

class StateActionBase {
	protected:
		Status* status;
	public:
		explicit StateActionBase(Status* s): status(s) {}
    346a:	8e 01       	movw	r16, r28
    346c:	05 53       	subi	r16, 0x35	; 53
    346e:	1e 4f       	sbci	r17, 0xFE	; 254
    3470:	c3 53       	subi	r28, 0x33	; 51
    3472:	de 4f       	sbci	r29, 0xFE	; 254
    3474:	f9 83       	std	Y+1, r31	; 0x01
    3476:	e8 83       	st	Y, r30
    3478:	cd 5c       	subi	r28, 0xCD	; 205
    347a:	d1 40       	sbci	r29, 0x01	; 1
	uint32_t start_time = 0;
	uint8_t step_m34 = 0;
	bool m2_finished = false;
	
	public:
	explicit DisparoState(Status* s) : StateActionBase(s) {}
    347c:	6d e6       	ldi	r22, 0x6D	; 109
    347e:	72 e0       	ldi	r23, 0x02	; 2
    3480:	d8 01       	movw	r26, r16
    3482:	6d 93       	st	X+, r22
    3484:	7c 93       	st	X, r23
    3486:	c1 53       	subi	r28, 0x31	; 49
    3488:	de 4f       	sbci	r29, 0xFE	; 254
    348a:	18 82       	st	Y, r1
    348c:	19 82       	std	Y+1, r1	; 0x01
    348e:	1a 82       	std	Y+2, r1	; 0x02
    3490:	1b 82       	std	Y+3, r1	; 0x03
    3492:	cf 5c       	subi	r28, 0xCF	; 207
    3494:	d1 40       	sbci	r29, 0x01	; 1
    3496:	cd 52       	subi	r28, 0x2D	; 45
    3498:	de 4f       	sbci	r29, 0xFE	; 254
    349a:	18 82       	st	Y, r1
    349c:	c3 5d       	subi	r28, 0xD3	; 211
    349e:	d1 40       	sbci	r29, 0x01	; 1
    34a0:	cc 52       	subi	r28, 0x2C	; 44
    34a2:	de 4f       	sbci	r29, 0xFE	; 254
    34a4:	18 82       	st	Y, r1
    34a6:	c4 5d       	subi	r28, 0xD4	; 212
    34a8:	d1 40       	sbci	r29, 0x01	; 1

class StateActionBase {
	protected:
		Status* status;
	public:
		explicit StateActionBase(Status* s): status(s) {}
    34aa:	be 01       	movw	r22, r28
    34ac:	6b 52       	subi	r22, 0x2B	; 43
    34ae:	7e 4f       	sbci	r23, 0xFE	; 254
    34b0:	c9 52       	subi	r28, 0x29	; 41
    34b2:	de 4f       	sbci	r29, 0xFE	; 254
    34b4:	f9 83       	std	Y+1, r31	; 0x01
    34b6:	e8 83       	st	Y, r30
    34b8:	c7 5d       	subi	r28, 0xD7	; 215
    34ba:	d1 40       	sbci	r29, 0x01	; 1
	private:
	uint8_t step = 0;
	uint32_t delay_timer = 0;
	
	public:
	explicit RetornoState(Status* s) : StateActionBase(s) {}
    34bc:	0f 2e       	mov	r0, r31
    34be:	f9 e7       	ldi	r31, 0x79	; 121
    34c0:	cf 2e       	mov	r12, r31
    34c2:	f2 e0       	ldi	r31, 0x02	; 2
    34c4:	df 2e       	mov	r13, r31
    34c6:	f0 2d       	mov	r31, r0
    34c8:	db 01       	movw	r26, r22
    34ca:	cd 92       	st	X+, r12
    34cc:	dc 92       	st	X, r13
    34ce:	c7 52       	subi	r28, 0x27	; 39
    34d0:	de 4f       	sbci	r29, 0xFE	; 254
    34d2:	18 82       	st	Y, r1
    34d4:	c9 5d       	subi	r28, 0xD9	; 217
    34d6:	d1 40       	sbci	r29, 0x01	; 1
    34d8:	c6 52       	subi	r28, 0x26	; 38
    34da:	de 4f       	sbci	r29, 0xFE	; 254
    34dc:	18 82       	st	Y, r1
    34de:	19 82       	std	Y+1, r1	; 0x01
    34e0:	1a 82       	std	Y+2, r1	; 0x02
    34e2:	1b 82       	std	Y+3, r1	; 0x03
    34e4:	ca 5d       	subi	r28, 0xDA	; 218
    34e6:	d1 40       	sbci	r29, 0x01	; 1
	StateActionBase* state_actions[NUM_STATES];

	public:
	explicit StateMachine() {
		// Populate lookup array
		state_actions[static_cast<uint8_t>(States::Init)] = &init_state;
    34e8:	6f 01       	movw	r12, r30
    34ea:	ba e2       	ldi	r27, 0x2A	; 42
    34ec:	cb 0e       	add	r12, r27
    34ee:	d1 1c       	adc	r13, r1
    34f0:	c2 52       	subi	r28, 0x22	; 34
    34f2:	de 4f       	sbci	r29, 0xFE	; 254
    34f4:	d9 82       	std	Y+1, r13	; 0x01
    34f6:	c8 82       	st	Y, r12
    34f8:	ce 5d       	subi	r28, 0xDE	; 222
    34fa:	d1 40       	sbci	r29, 0x01	; 1
		state_actions[static_cast<uint8_t>(States::Calibration)] = &calibration_state;
    34fc:	6f 01       	movw	r12, r30
    34fe:	ae e2       	ldi	r26, 0x2E	; 46
    3500:	ca 0e       	add	r12, r26
    3502:	d1 1c       	adc	r13, r1
    3504:	c0 52       	subi	r28, 0x20	; 32
    3506:	de 4f       	sbci	r29, 0xFE	; 254
    3508:	d9 82       	std	Y+1, r13	; 0x01
    350a:	c8 82       	st	Y, r12
    350c:	c0 5e       	subi	r28, 0xE0	; 224
    350e:	d1 40       	sbci	r29, 0x01	; 1
		state_actions[static_cast<uint8_t>(States::Idle)] = &idle_state;
    3510:	6f 01       	movw	r12, r30
    3512:	b2 e3       	ldi	r27, 0x32	; 50
    3514:	cb 0e       	add	r12, r27
    3516:	d1 1c       	adc	r13, r1
    3518:	ce 51       	subi	r28, 0x1E	; 30
    351a:	de 4f       	sbci	r29, 0xFE	; 254
    351c:	d9 82       	std	Y+1, r13	; 0x01
    351e:	c8 82       	st	Y, r12
    3520:	c2 5e       	subi	r28, 0xE2	; 226
    3522:	d1 40       	sbci	r29, 0x01	; 1
		state_actions[static_cast<uint8_t>(States::Carga)] = &carga_state;
    3524:	6f 01       	movw	r12, r30
    3526:	a6 e3       	ldi	r26, 0x36	; 54
    3528:	ca 0e       	add	r12, r26
    352a:	d1 1c       	adc	r13, r1
    352c:	cc 51       	subi	r28, 0x1C	; 28
    352e:	de 4f       	sbci	r29, 0xFE	; 254
    3530:	d9 82       	std	Y+1, r13	; 0x01
    3532:	c8 82       	st	Y, r12
    3534:	c4 5e       	subi	r28, 0xE4	; 228
    3536:	d1 40       	sbci	r29, 0x01	; 1
		state_actions[static_cast<uint8_t>(States::Armado)] = &armado_state;
    3538:	ca 51       	subi	r28, 0x1A	; 26
    353a:	de 4f       	sbci	r29, 0xFE	; 254
    353c:	f9 82       	std	Y+1, r15	; 0x01
    353e:	e8 82       	st	Y, r14
    3540:	c6 5e       	subi	r28, 0xE6	; 230
    3542:	d1 40       	sbci	r29, 0x01	; 1
		state_actions[static_cast<uint8_t>(States::Disparo)] = &disparo_state;
    3544:	c8 51       	subi	r28, 0x18	; 24
    3546:	de 4f       	sbci	r29, 0xFE	; 254
    3548:	19 83       	std	Y+1, r17	; 0x01
    354a:	08 83       	st	Y, r16
    354c:	c8 5e       	subi	r28, 0xE8	; 232
    354e:	d1 40       	sbci	r29, 0x01	; 1
		state_actions[static_cast<uint8_t>(States::Retorno)] = &retorno_state;
    3550:	c6 51       	subi	r28, 0x16	; 22
    3552:	de 4f       	sbci	r29, 0xFE	; 254
    3554:	79 83       	std	Y+1, r23	; 0x01
    3556:	68 83       	st	Y, r22
    3558:	ca 5e       	subi	r28, 0xEA	; 234
    355a:	d1 40       	sbci	r29, 0x01	; 1
	
	// Vincular a state machine
	StateMachine sm;
	Status& st = sm.get_status();
	
	st.m1 = &m1; st.m2 = &m2; st.m3 = &m3; st.m4 = &m4; st.m5 = &m5;
    355c:	6d 55       	subi	r22, 0x5D	; 93
    355e:	71 40       	sbci	r23, 0x01	; 1
    3560:	71 83       	std	Z+1, r23	; 0x01
    3562:	60 83       	st	Z, r22
    3564:	61 5e       	subi	r22, 0xE1	; 225
    3566:	7f 4f       	sbci	r23, 0xFF	; 255
    3568:	73 83       	std	Z+3, r23	; 0x03
    356a:	62 83       	std	Z+2, r22	; 0x02
    356c:	61 5e       	subi	r22, 0xE1	; 225
    356e:	7f 4f       	sbci	r23, 0xFF	; 255
    3570:	75 83       	std	Z+5, r23	; 0x05
    3572:	64 83       	std	Z+4, r22	; 0x04
    3574:	61 5e       	subi	r22, 0xE1	; 225
    3576:	7f 4f       	sbci	r23, 0xFF	; 255
    3578:	77 83       	std	Z+7, r23	; 0x07
    357a:	66 83       	std	Z+6, r22	; 0x06
    357c:	61 5e       	subi	r22, 0xE1	; 225
    357e:	7f 4f       	sbci	r23, 0xFF	; 255
    3580:	71 87       	std	Z+9, r23	; 0x09
    3582:	60 87       	std	Z+8, r22	; 0x08
	st.sw1 = &sw1; st.sw2 = &sw2; st.sw3 = &sw3; st.sw4 = &sw4; st.sw5 = &sw5; st.sw6 = &sw6;
    3584:	63 5f       	subi	r22, 0xF3	; 243
    3586:	71 09       	sbc	r23, r1
    3588:	73 87       	std	Z+11, r23	; 0x0b
    358a:	62 87       	std	Z+10, r22	; 0x0a
    358c:	6c 5e       	subi	r22, 0xEC	; 236
    358e:	7f 4f       	sbci	r23, 0xFF	; 255
    3590:	75 87       	std	Z+13, r23	; 0x0d
    3592:	64 87       	std	Z+12, r22	; 0x0c
    3594:	6b 5e       	subi	r22, 0xEB	; 235
    3596:	7f 4f       	sbci	r23, 0xFF	; 255
    3598:	77 87       	std	Z+15, r23	; 0x0f
    359a:	66 87       	std	Z+14, r22	; 0x0e
    359c:	6c 5e       	subi	r22, 0xEC	; 236
    359e:	7f 4f       	sbci	r23, 0xFF	; 255
    35a0:	71 8b       	std	Z+17, r23	; 0x11
    35a2:	60 8b       	std	Z+16, r22	; 0x10
    35a4:	6c 5e       	subi	r22, 0xEC	; 236
    35a6:	7f 4f       	sbci	r23, 0xFF	; 255
    35a8:	73 8b       	std	Z+19, r23	; 0x13
    35aa:	62 8b       	std	Z+18, r22	; 0x12
    35ac:	6c 5e       	subi	r22, 0xEC	; 236
    35ae:	7f 4f       	sbci	r23, 0xFF	; 255
    35b0:	75 8b       	std	Z+21, r23	; 0x15
    35b2:	64 8b       	std	Z+20, r22	; 0x14
	st.led = &led;
    35b4:	b7 8a       	std	Z+23, r11	; 0x17
    35b6:	a6 8a       	std	Z+22, r10	; 0x16
	st.display = &display;
    35b8:	91 8f       	std	Z+25, r25	; 0x19
    35ba:	80 8f       	std	Z+24, r24	; 0x18
	st.pinsManager = &pinsManager;
    35bc:	33 8f       	std	Z+27, r19	; 0x1b
    35be:	22 8f       	std	Z+26, r18	; 0x1a
	st.timer = &timer;
    35c0:	55 8f       	std	Z+29, r21	; 0x1d
    35c2:	44 8f       	std	Z+28, r20	; 0x1c
	
	sm.start();
    35c4:	cf 01       	movw	r24, r30
    35c6:	0e 94 53 10 	call	0x20a6	; 0x20a6 <_ZN12StateMachine5startEv>

000035ca <__udivmodsi4>:
    35ca:	a1 e2       	ldi	r26, 0x21	; 33
    35cc:	1a 2e       	mov	r1, r26
    35ce:	aa 1b       	sub	r26, r26
    35d0:	bb 1b       	sub	r27, r27
    35d2:	fd 01       	movw	r30, r26
    35d4:	0d c0       	rjmp	.+26     	; 0x35f0 <__udivmodsi4_ep>

000035d6 <__udivmodsi4_loop>:
    35d6:	aa 1f       	adc	r26, r26
    35d8:	bb 1f       	adc	r27, r27
    35da:	ee 1f       	adc	r30, r30
    35dc:	ff 1f       	adc	r31, r31
    35de:	a2 17       	cp	r26, r18
    35e0:	b3 07       	cpc	r27, r19
    35e2:	e4 07       	cpc	r30, r20
    35e4:	f5 07       	cpc	r31, r21
    35e6:	20 f0       	brcs	.+8      	; 0x35f0 <__udivmodsi4_ep>
    35e8:	a2 1b       	sub	r26, r18
    35ea:	b3 0b       	sbc	r27, r19
    35ec:	e4 0b       	sbc	r30, r20
    35ee:	f5 0b       	sbc	r31, r21

000035f0 <__udivmodsi4_ep>:
    35f0:	66 1f       	adc	r22, r22
    35f2:	77 1f       	adc	r23, r23
    35f4:	88 1f       	adc	r24, r24
    35f6:	99 1f       	adc	r25, r25
    35f8:	1a 94       	dec	r1
    35fa:	69 f7       	brne	.-38     	; 0x35d6 <__udivmodsi4_loop>
    35fc:	60 95       	com	r22
    35fe:	70 95       	com	r23
    3600:	80 95       	com	r24
    3602:	90 95       	com	r25
    3604:	9b 01       	movw	r18, r22
    3606:	ac 01       	movw	r20, r24
    3608:	bd 01       	movw	r22, r26
    360a:	cf 01       	movw	r24, r30
    360c:	08 95       	ret

0000360e <_exit>:
    360e:	f8 94       	cli

00003610 <__stop_program>:
    3610:	ff cf       	rjmp	.-2      	; 0x3610 <__stop_program>
